0000 ff        rst     38h
0001 f3        di      
0002 314314    ld      sp,1443h
0005 c38b00    jp      008bh
0008 f1        pop     af
0009 c5        push    bc
000a d5        push    de
000b dde5      push    ix
000d fde5      push    iy
000f e5        push    hl
0010 e5        push    hl
0011 214b00    ld      hl,004bh
0014 e3        ex      (sp),hl
0015 f5        push    af
0016 c9        ret     

0017 00        nop     
0018 e7        rst     20h
0019 cab400    jp      z,00b4h
001c c3ba00    jp      00bah
001f 00        nop     
0020 fd21c000  ld      iy,00c0h
0024 c3a800    jp      00a8h
0027 00        nop     
0028 fd21d800  ld      iy,00d8h
002c c3a800    jp      00a8h
002f 00        nop     
0030 fd21f000  ld      iy,00f0h
0034 c3a800    jp      00a8h
0037 00        nop     
0038 f3        di      
0039 c5        push    bc
003a d5        push    de
003b dde5      push    ix
003d fde5      push    iy
003f e5        push    hl
0040 f5        push    af
0041 c3a81d    jp      1da8h
0044 ed57      ld      a,i
0046 cbbf      res     7,a
0048 ed47      ld      i,a
004a f1        pop     af
004b e1        pop     hl
004c fde1      pop     iy
004e dde1      pop     ix
0050 d1        pop     de
0051 c1        pop     bc
0052 c9        ret     

0053 f1        pop     af
0054 e1        pop     hl
0055 fde1      pop     iy
0057 dde1      pop     ix
0059 d1        pop     de
005a c1        pop     bc
005b fb        ei      
005c ed4d      reti    

005e e5        push    hl
005f 37        scf     
0060 3f        ccf     
0061 ed52      sbc     hl,de
0063 e1        pop     hl
0064 c9        ret     

0065 00        nop     
0066 08        ex      af,af'
0067 dc1064    call    c,6410h
006a ed57      ld      a,i
006c 3d        dec     a
006d fa7400    jp      m,0074h
0070 2805      jr      z,0077h
0072 ed47      ld      i,a
0074 08        ex      af,af'
0075 ed45      retn    

0077 3a00c0    ld      a,(0c000h)
007a ed47      ld      i,a
007c 08        ex      af,af'
007d c5        push    bc
007e d5        push    de
007f dde5      push    ix
0081 fde5      push    iy
0083 e5        push    hl
0084 f5        push    af
0085 21ab1d    ld      hl,1dabh
0088 e5        push    hl
0089 ed45      retn    

008b 08        ex      af,af'
008c af        xor     a
008d 08        ex      af,af'
008e 3e81      ld      a,81h
0090 ed47      ld      i,a
0092 ed56      im      1
0094 c33814    jp      1438h



00a8 			iy=iy+(h*3)
00b0 26c4      ld      h,0c4h
00b2 fde9      jp      (iy)
00b4 1e18      ld      e,18h
00b6 fd19      add     iy,de
00b8 fde9      jp      (iy)
00ba 1e30      ld      e,30h
00bc fd19      add     iy,de
00be fde9      jp      (iy)
00c0 cb46      bit     0,(hl)
00c2 c9        ret     

00c3 cb4e      bit     1,(hl)
00c5 c9        ret     

00c6 cb56      bit     2,(hl)
00c8 c9        ret     

00c9 cb5e      bit     3,(hl)
00cb c9        ret     

00cc cb66      bit     4,(hl)
00ce c9        ret     

00cf cb6e      bit     5,(hl)
00d1 c9        ret     

00d2 cb76      bit     6,(hl)
00d4 c9        ret     

00d5 cb7e      bit     7,(hl)
00d7 c9        ret     

00d8 cbc6      set     0,(hl)
00da c9        ret     

00db cbce      set     1,(hl)
00dd c9        ret     

00de cbd6      set     2,(hl)
00e0 c9        ret     

00e1 cbde      set     3,(hl)
00e3 c9        ret     

00e4 cbe6      set     4,(hl)
00e6 c9        ret     

00e7 cbee      set     5,(hl)
00e9 c9        ret     

00ea cbf6      set     6,(hl)
00ec c9        ret     

00ed cbfe      set     7,(hl)
00ef c9        ret     

00f0 cb86      res     0,(hl)
00f2 c9        ret     

00f3 cb8e      res     1,(hl)
00f5 c9        ret     

00f6 cb96      res     2,(hl)
00f8 c9        ret     

00f9 cb9e      res     3,(hl)
00fb c9        ret     

00fc cba6      res     4,(hl)
00fe c9        ret     

00ff cbae      res     5,(hl)
0101 c9        ret     

0102 cbb6      res     6,(hl)
0104 c9        ret     

0105 cbbe      res     7,(hl)
0107 c9        ret     



0186 3e80      ld      a,80h
0188 b2        or      d
0189 ed47      ld      i,a
018b 31fa02    ld      sp,02fah
018e 42        ld      b,d
018f af        xor     a
0190 215602    ld      hl,0256h
0193 111b00    ld      de,001bh
0196 fde1      pop     iy
0198 3805      jr      c,019fh
019a 78        ld      a,b
019b 3d        dec     a
019c 2805      jr      z,01a3h
019e 37        scf     
019f 47        ld      b,a
01a0 19        add     hl,de
01a1 18f5      jr      0198h
01a3 fde1      pop     iy
01a5 dd2136e2  ld      ix,0e236h
01a9 7d        ld      a,l
01aa c61a      add     a,1ah
01ac 47        ld      b,a
01ad 110200    ld      de,0002h
01b0 fde1      pop     iy
01b2 380f      jr      c,01c3h
01b4 7d        ld      a,l
01b5 3c        inc     a
01b6 4f        ld      c,a
01b7 a8        xor     b
01b8 280e      jr      z,01c8h
01ba 7e        ld      a,(hl)
01bb dd7700    ld      (ix+00h),a
01be dd360114  ld      (ix+01h),14h
01c2 37        scf     
01c3 69        ld      l,c
01c4 dd19      add     ix,de
01c6 18ea      jr      01b2h
01c8 3e06      ld      a,06h
01ca d337      out     (37h),a
01cc 0eff      ld      c,0ffh
01ce af        xor     a
01cf fde1      pop     iy
01d1 380e      jr      c,01e1h
01d3 41        ld      b,c
01d4 04        inc     b
01d5 78        ld      a,b
01d6 ee08      xor     08h
01d8 280d      jr      z,01e7h
01da ed57      ld      a,i
01dc e60f      and     0fh
01de f680      or      80h
01e0 37        scf     
01e1 48        ld      c,b
01e2 ed79      out     (c),a
01e4 3f        ccf     
01e5 18ea      jr      01d1h
01e7 0e17      ld      c,17h
01e9 af        xor     a
01ea fde1      pop     iy
01ec 380e      jr      c,01fch
01ee 41        ld      b,c
01ef 04        inc     b
01f0 78        ld      a,b
01f1 ee20      xor     20h
01f3 280d      jr      z,0202h
01f5 ed57      ld      a,i
01f7 e60f      and     0fh
01f9 f680      or      80h
01fb 37        scf     
01fc 48        ld      c,b
01fd ed79      out     (c),a
01ff 3f        ccf     
0200 18ea      jr      01ech
0202 fde1      pop     iy
0204 3e02      ld      a,02h
0206 d338      out     (38h),a
0208 3e00      ld      a,00h
020a d339      out     (39h),a
020c 3e03      ld      a,03h
020e d338      out     (38h),a
0210 3e01      ld      a,01h
0212 d339      out     (39h),a
0214 3e07      ld      a,07h
0216 d338      out     (38h),a
0218 3efd      ld      a,0fdh
021a d339      out     (39h),a
021c 210000    ld      hl,0000h
021f ed57      ld      a,i
0221 e60f      and     0fh
0223 4f        ld      c,a
0224 cb21      sla     c
0226 af        xor     a
0227 160f      ld      d,0fh
0229 0601      ld      b,01h
022b fde1      pop     iy
022d 3810      jr      c,023fh
022f 3e09      ld      a,09h
0231 d338      out     (38h),a
0233 7a        ld      a,d
0234 d339      out     (39h),a
0236 7c        ld      a,h
0237 b5        or      l
0238 2803      jr      z,023dh
023a 2b        dec     hl
023b 18f0      jr      022dh
023d 78        ld      a,b
023e 3d        dec     a
023f 37        scf     
0240 210020    ld      hl,2000h
0243 2004      jr      nz,0249h
0245 21ffff    ld      hl,0ffffh
0248 79        ld      a,c
0249 47        ld      b,a
024a cb5a      bit     3,d
024c 3e0f      ld      a,0fh
024e 2802      jr      z,0252h
0250 3e00      ld      a,00h
0252 57        ld      d,a
0253 3f        ccf     
0254 18d7      jr      022dh
0256 204e      jr      nz,02a6h
0258 4f        ld      c,a
0259 2049      jr      nz,02a4h
025b 4e        ld      c,(hl)
025c 54        ld      d,h
025d 45        ld      b,l
025e 52        ld      d,d
025f 52        ld      d,d
0260 55        ld      d,l
0261 50        ld      d,b
0262 54        ld      d,h
0263 204f      jr      nz,02b4h
0265 52        ld      d,d
0266 2054      jr      nz,02bch
0268 4f        ld      c,a
0269 4f        ld      c,a
026a 204c      jr      nz,02b8h
026c 4f        ld      c,a
026d 4e        ld      c,(hl)
026e 47        ld      b,a
026f 2008      jr      nz,0279h
0271 2020      jr      nz,0293h
0273 2020      jr      nz,0295h
0275 2057      jr      nz,02ceh
0277 4f        ld      c,a
0278 52        ld      d,d
0279 4b        ld      c,e
027a 2052      jr      nz,02ceh
027c 41        ld      b,c
027d 4d        ld      c,l
027e 2045      jr      nz,02c5h
0280 52        ld      d,d
0281 52        ld      d,d
0282 4f        ld      c,a
0283 52        ld      d,d
0284 2020      jr      nz,02a6h
0286 2020      jr      nz,02a8h
0288 2020      jr      nz,02aah
028a 2008      jr      nz,0294h
028c 2020      jr      nz,02aeh
028e 2043      jr      nz,02d3h
0290 48        ld      c,b
0291 41        ld      b,c
0292 52        ld      d,d
0293 41        ld      b,c
0294 4b        ld      c,e
0295 54        ld      d,h
0296 45        ld      b,l
0297 52        ld      d,d
0298 2052      jr      nz,02ech
029a 41        ld      b,c
029b 4d        ld      c,l
029c 2045      jr      nz,02e3h
029e 52        ld      d,d
029f 52        ld      d,d
02a0 4f        ld      c,a
02a1 52        ld      d,d
02a2 2020      jr      nz,02c4h
02a4 2020      jr      nz,02c6h
02a6 08        ex      af,af'
02a7 2020      jr      nz,02c9h
02a9 2020      jr      nz,02cbh
02ab 2043      jr      nz,02f0h
02ad 4f        ld      c,a
02ae 4c        ld      c,h
02af 4f        ld      c,a
02b0 55        ld      d,l
02b1 52        ld      d,d
02b2 2052      jr      nz,0306h
02b4 41        ld      b,c
02b5 4d        ld      c,l
02b6 2045      jr      nz,02fdh
02b8 52        ld      d,d
02b9 52        ld      d,d
02ba 4f        ld      c,a
02bb 52        ld      d,d
02bc 2020      jr      nz,02deh
02be 2020      jr      nz,02e0h
02c0 2008      jr      nz,02cah
02c2 2020      jr      nz,02e4h
02c4 2020      jr      nz,02e6h
02c6 50        ld      d,b
02c7 52        ld      d,d
02c8 4f        ld      c,a
02c9 47        ld      b,a
02ca 52        ld      d,d
02cb 41        ld      b,c
02cc 4d        ld      c,l
02cd 2045      jr      nz,0314h
02cf 50        ld      d,b
02d0 52        ld      d,d
02d1 4f        ld      c,a
02d2 4d        ld      c,l
02d3 2042      jr      nz,0317h
02d5 41        ld      b,c
02d6 44        ld      b,h
02d7 2020      jr      nz,02f9h
02d9 2020      jr      nz,02fbh
02db 2008      jr      nz,02e5h
02dd 2020      jr      nz,02ffh
02df 2020      jr      nz,0301h
02e1 4e        ld      c,(hl)
02e2 4f        ld      c,a
02e3 2056      jr      nz,033bh
02e5 2d        dec     l
02e6 53        ld      d,e
02e7 59        ld      e,c
02e8 4e        ld      c,(hl)
02e9 43        ld      b,e
02ea 2050      jr      nz,033ch
02ec 52        ld      d,d
02ed 45        ld      b,l
02ee 53        ld      d,e
02ef 45        ld      b,l
02f0 4e        ld      c,(hl)
02f1 54        ld      d,h
02f2 2020      jr      nz,0314h
02f4 2020      jr      nz,0316h
02f6 2008      jr      nz,0300h
02f8 86        add     a,(hl)
02f9 019801    ld      bc,0198h
02fc a5        and     l
02fd 01b201    ld      bc,01b2h
0300 d1        pop     de
0301 01ec01    ld      bc,01ech
0304 04        inc     b
0305 02        ld      (bc),a
0306 2d        dec     l
0307 02        ld      (bc),a
0308 cf        rst     08h
0309 cd2603    call    0326h
030c c5        push    bc
030d df        rst     18h
030e c1        pop     bc
030f 10f8      djnz    0309h
0311 c9        ret     

0312 cf        rst     08h
0313 cd2603    call    0326h
0316 c5        push    bc
0317 ef        rst     28h
0318 c1        pop     bc
0319 10f8      djnz    0313h
031b c9        ret     

031c cf        rst     08h
031d cd2603    call    0326h
0320 c5        push    bc
0321 f7        rst     30h
0322 c1        pop     bc
0323 10f8      djnz    031dh
0325 c9        ret     

0326 dd6e00    ld      l,(ix+00h)
0329 dd6601    ld      h,(ix+01h)
032c dd23      inc     ix
032e dd23      inc     ix
0330 c9        ret     

0331 cf        rst     08h
0332 dde5      push    ix
0334 c5        push    bc
0335 cd4003    call    0340h
0338 c1        pop     bc
0339 cdf603    call    03f6h
033c dde1      pop     ix
033e c9        ret     

0340			if (c534)==0 then (c534)=1
			hl=(c53b)
			temp=c534
			if c534==0 then c534=1
			else	c534=c534*2
			if temp>=64 then goto 3ad
037b 115364    ld      de,6453h
038a dd2137c5  ld      ix,0c537h
038e dd7e00    ld      a,(ix+00h)
0391 ddae03    xor     (ix+03h)
0394 ddae04    xor     (ix+04h)
0397 dd7704    ld      (ix+04h),a
039a 3235c5    ld      (0c535h),a
039d dd7e01    ld      a,(ix+01h)
03a0 ddae02    xor     (ix+02h)
03a3 ddae05    xor     (ix+05h)
03a6 dd7705    ld      (ix+05h),a
03ac c9        ret     

			a=r&6
			if a==0 then goto 38a
03b8 cb45      bit     0,l
03ba dd2137c5  ld      ix,0c537h
03be 2804      jr      z,03c4h
03c0 dd2139c5  ld      ix,0c539h
03c4 dd6e00    ld      l,(ix+00h)
03c7 dd6601    ld      h,(ix+01h)
03ca 7c        ld      a,h
03cb b5        or      l
03cc 2006      jr      nz,03d4h
03ce ed5f      ld      a,r
03d0 6f        ld      l,a
03d1 eeff      xor     0ffh
03d3 67        ld      h,a
03d4 cb4d      bit     1,l
03d6 1600      ld      d,00h
03d8 2802      jr      z,03dch
03da 1601      ld      d,01h
03dc cb7c      bit     7,h
03de 3e00      ld      a,00h
03e0 2802      jr      z,03e4h
03e2 3e01      ld      a,01h
03e4 aa        xor     d
03e5 cb1f      rr      a
03e7 cb1c      rr      h
03e9 cb1d      rr      l
03eb dd7500    ld      (ix+00h),l
03ee dd7401    ld      (ix+01h),h
03f1 2235c5    ld      (0c535h),hl
03f4 c9        ret     

03f6 2a35c5    ld      hl,(0c535h)
03f9 cb3c      srl     h
03fb cb1d      rr      l
03fd 1e00      ld      e,00h
03ff 51        ld      d,c
0400 0608      ld      b,08h
0402 04        inc     b
0403 cb22      sla     d
0405 30fb      jr      nc,0402h
0407 cb1a      rr      d
0409 ed52      sbc     hl,de
040b 3001      jr      nc,040eh
040d 19        add     hl,de
040e cb3a      srl     d
0410 cb1b      rr      e
0412 10f5      djnz    0409h
0414 7d        ld      a,l
0415 3236c0    ld      rnd,a
0418 c9        ret     






052c dd5e00    edc=x
0535 dd360000  x=0
0541 fd6e00    ld      l,(iy+00h)
0544 0601      ld      b,01h
0546 cd5605    call    0556h
0549 fd6e01    ld      l,(iy+01h)
054c cd5605    call    0556h
054f fd6e02    ld      l,(iy+02h)
0552 cd5605    call    0556h
0555 c9        ret     

0556 2602      ld      h,02h
0558 d5        push    de
0559 c5        push    bc
055a c1        pop     bc
055b d1        pop     de
			shl	edc,b
0568 d5        push    de
0569 0605      ld      b,05h
056b c5        push    bc
056c 0604      ld      b,04h
056e 180c      jr      057ch
0570 7b        edc=edc*2
057c cb1d      rr      l
057e 3018      jr      nc,0598h
0580 dd7e00    x=x+edc
0598 10d6      djnz    0570h
059a 25        dec     h
059b 20bd      jr      nz,055ah
059d c1        pop     bc
059e d1        pop     de
059f c9        ret     

05a0 cf        rst     08h
05a1 2600      ld      h,00h
05a3 dd7e02    ld      a,(ix+02h)
05a6 e60f      and     0fh
05a8 6f        ld      l,a
05a9 cdac05    call    05ach
05ac dd2b      dec     ix
05ae dd7e02    ld      a,(ix+02h)
05b1 0f        rrca    
05b2 0f        rrca    
05b3 0f        rrca    
05b4 0f        rrca    
05b5 cdbb05    call    05bbh
05b8 dd7e02    ld      a,(ix+02h)
05bb 29        add     hl,hl
05bc 44        ld      b,h
05bd 4d        ld      c,l
05be 29        add     hl,hl
05bf 29        add     hl,hl
05c0 09        add     hl,bc
05c1 e60f      and     0fh
05c3 0600      ld      b,00h
05c5 4f        ld      c,a
05c6 09        add     hl,bc
05c7 c9        ret     

05c8 010000    ld      bc,0000h
05cb 00        nop     
05cc 210000    ld      hl,0000h
05cf 0603      ld      b,03h
05d1 fd2150c0  ld      iy,0c050h
05d5 fd7e00    ld      a,(iy+00h)
05d8 e6c0      and     0c0h
05da 201e      jr      nz,05fah
05dc 110800    ld      de,0008h
05df fd19      add     iy,de
05e1 10f2      djnz    05d5h
05e3 7c        ld      a,h
05e4 b5        or      l
05e5 c8        ret     z

05e6 01000e    ld      bc,0e00h
05e9 1140c0    ld      de,0c040h
05ec 29        add     hl,hl
05ed 3006      jr      nc,05f5h
05ef 79        ld      a,c
05f0 d338      out     (38h),a
05f2 1a        ld      a,(de)
05f3 d339      out     (39h),a
05f5 0c        inc     c
05f6 13        inc     de
05f7 10f3      djnz    05ech
05f9 c9        ret     

05fa fe40      cp      40h
05fc 2024      jr      nz,0622h
05fe 3e3f      ld      a,3fh
0600 fda600    and     (iy+00h)
0603 fd7700    ld      (iy+00h),a
0606 c5        push    bc
0607 3e08      ld      a,08h
0609 cb3f      srl     a
060b 10fc      djnz    0609h
060d 4f        ld      c,a
060e 3a47c0    ld      a,(0c047h)
0611 b1        or      c
0612 3247c0    ld      (0c047h),a
0615 c1        pop     bc
0616 cbc4      set     0,h
0618 3e0b      ld      a,0bh
061a 90        sub     b
061b d338      out     (38h),a
061d af        xor     a
061e d339      out     (39h),a
0620 18ba      jr      05dch
0622 fe80      cp      80h
0624 2069      jr      nz,068fh
0626 3ec0      ld      a,0c0h
0628 fdb600    or      (iy+00h)
062b fd7700    ld      (iy+00h),a
062e f5        push    af
062f c5        push    bc
0630 3ef7      ld      a,0f7h
0632 37        scf     
0633 cb1f      rr      a
0635 10fc      djnz    0633h
0637 4f        ld      c,a
0638 3a47c0    ld      a,(0c047h)
063b a1        and     c
063c 3247c0    ld      (0c047h),a
063f cbc4      set     0,h
0641 fd7e01    ld      a,(iy+01h)
0644 e63f      and     3fh
0646 fd7706    ld      (iy+06h),a
0649 c1        pop     bc
064a f1        pop     af
064b e60f      and     0fh
064d 2807      jr      z,0656h
064f 324dc0    ld      (0c04dh),a
0652 3e1c      ld      a,1ch
0654 b5        or      l
0655 6f        ld      l,a
0656 fd7e05    ld      a,(iy+05h)
0659 fd7707    ld      (iy+07h),a
065c fdcb017e  bit     7,(iy+01h)
0660 2812      jr      z,0674h
0662 e5        push    hl
0663 fd6e02    ld      l,(iy+02h)
0666 fd6603    ld      h,(iy+03h)
0669 5e        ld      e,(hl)
066a 23        inc     hl
066b 56        ld      d,(hl)
066c 23        inc     hl
066d 7e        ld      a,(hl)
066e fd7704    ld      (iy+04h),a
0671 e1        pop     hl
0672 1806      jr      067ah
0674 fd5e02    ld      e,(iy+02h)
0677 fd5603    ld      d,(iy+03h)
067a cd9b07    call    079bh
067d cd8607    call    0786h
0680 58        ld      e,b
0681 3e20      ld      a,20h
0683 1d        dec     e
0684 2804      jr      z,068ah
0686 cb27      sla     a
0688 18f9      jr      0683h
068a b5        or      l
068b 6f        ld      l,a
068c c3dc05    jp      05dch
068f fd7e00    ld      a,(iy+00h)
0692 e630      and     30h
0694 ca1d07    jp      z,071dh
0697 4f        ld      c,a
0698 fd3507    dec     (iy+07h)
069b 2050      jr      nz,06edh
069d fdcb0176  bit     6,(iy+01h)
06a1 280f      jr      z,06b2h
06a3 3e30      ld      a,30h
06a5 a9        xor     c
06a6 4f        ld      c,a
06a7 fd7e00    ld      a,(iy+00h)
06aa e6cf      and     0cfh
06ac b1        or      c
06ad fd7700    ld      (iy+00h),a
06b0 181f      jr      06d1h
06b2 fdcb017e  bit     7,(iy+01h)
06b6 280d      jr      z,06c5h
06b8 e5        push    hl
06b9 fd6e02    ld      l,(iy+02h)
06bc fd6603    ld      h,(iy+03h)
06bf 5e        ld      e,(hl)
06c0 23        inc     hl
06c1 56        ld      d,(hl)
06c2 e1        pop     hl
06c3 1806      jr      06cbh
06c5 fd5e02    ld      e,(iy+02h)
06c8 fd5603    ld      d,(iy+03h)
06cb cd9b07    call    079bh
06ce cd8607    call    0786h
06d1 fd7e01    ld      a,(iy+01h)
06d4 e63f      and     3fh
06d6 fd7706    ld      (iy+06h),a
06d9 fd7e05    ld      a,(iy+05h)
06dc fd7707    ld      (iy+07h),a
06df fd7e00    ld      a,(iy+00h)
06e2 e60f      and     0fh
06e4 2837      jr      z,071dh
06e6 324dc0    ld      (0c04dh),a
06e9 cbd5      set     2,l
06eb 1830      jr      071dh
06ed fd3506    dec     (iy+06h)
06f0 202b      jr      nz,071dh
06f2 fd7e01    ld      a,(iy+01h)
06f5 e63f      and     3fh
06f7 fd7706    ld      (iy+06h),a
06fa cd9b07    call    079bh
06fd dd5e00    ld      e,(ix+00h)
0700 dd5601    ld      d,(ix+01h)
0703 fdcb0066  bit     4,(iy+00h)
0707 3a4ec0    ld      a,(0c04eh)
070a 2807      jr      z,0713h
070c 83        add     a,e
070d 5f        ld      e,a
070e 300a      jr      nc,071ah
0710 14        inc     d
0711 1807      jr      071ah
0713 ed44      neg     
0715 83        add     a,e
0716 5f        ld      e,a
0717 3801      jr      c,071ah
0719 15        dec     d
071a cd8607    call    0786h
071d fd3504    dec     (iy+04h)
0720 c2dc05    jp      nz,05dch
0723 fdcb017e  bit     7,(iy+01h)
0727 cafe05    jp      z,05feh
072a e5        push    hl
072b fd6e02    ld      l,(iy+02h)
072e fd6603    ld      h,(iy+03h)
0731 23        inc     hl
0732 23        inc     hl
0733 23        inc     hl
0734 fd7502    ld      (iy+02h),l
0737 fd7403    ld      (iy+03h),h
073a 5e        ld      e,(hl)
073b 23        inc     hl
073c 56        ld      d,(hl)
073d 7b        ld      a,e
073e b2        or      d
073f 23        inc     hl
0740 7e        ld      a,(hl)
0741 e1        pop     hl
0742 cafe05    jp      z,05feh
0745 3c        inc     a
0746 fd7704    ld      (iy+04h),a
0749 fd7e01    ld      a,(iy+01h)
074c e63f      and     3fh
074e fd7706    ld      (iy+06h),a
0751 fd7e05    ld      a,(iy+05h)
0754 fd7707    ld      (iy+07h),a
0757 c5        push    bc
0758 3e08      ld      a,08h
075a cb3f      srl     a
075c 10fc      djnz    075ah
075e 4f        ld      c,a
075f cbc4      set     0,h
0761 7b        ld      a,e
0762 a2        and     d
0763 feff      cp      0ffh
0765 79        ld      a,c
0766 2808      jr      z,0770h
0768 2f        cpl     
0769 4f        ld      c,a
076a 3a47c0    ld      a,(0c047h)
076d a1        and     c
076e 1804      jr      0774h
0770 3a47c0    ld      a,(0c047h)
0773 b1        or      c
0774 3247c0    ld      (0c047h),a
0777 c1        pop     bc
0778 fd7e00    ld      a,(iy+00h)
077b e60f      and     0fh
077d 2802      jr      z,0781h
077f cbd5      set     2,l
0781 cd9b07    call    079bh
0784 1894      jr      071ah
0786 dd7300    ld      (ix+00h),e
0789 dd7201    ld      (ix+01h),d
078c 58        ld      e,b
078d 3e0c      ld      a,0ch
078f 1d        dec     e
0790 2806      jr      z,0798h
0792 cb27      sla     a
0794 cb27      sla     a
0796 18f7      jr      078fh
0798 b4        or      h
0799 67        ld      h,a
079a c9        ret     

079b c5        push    bc
079c dd2140c0  ld      ix,0c040h
07a0 3e03      ld      a,03h
07a2 90        sub     b
07a3 87        add     a,a
07a4 4f        ld      c,a
07a5 0600      ld      b,00h
07a7 dd09      add     ix,bc
07a9 c1        pop     bc
07aa c9        ret     


07c0 cf        rst     08h
07c1 fd2150c0  ld      iy,0c050h
07c5 181e      jr      07e5h
07c7 cf        rst     08h
07c8 fd2158c0  ld      iy,0c058h
07cc 1817      jr      07e5h
07cf fd2160c0  ld      iy,0c060h
07d3 1810      jr      07e5h
07d5 cf        rst     08h
07d6 cdee07    call    07eeh
07d9 180a      jr      07e5h
07db cf        rst     08h
07dc cd0408    call    0804h
07df 1804      jr      07e5h
07e1 cf        rst     08h
07e2 cdf907    call    07f9h
07e5 fd7e00    ld      a,(iy+00h)
07e8 e6c0      and     0c0h
07ea 20f9      jr      nz,07e5h
07ec c9        ret     

07ed cf        rst     08h
07ee 79        ld      a,c
07ef 3248c0    ld      (0c048h),a
07f2 fd2150c0  ld      iy,0c050h
07f6 1814      jr      080ch
07f8 cf        rst     08h
07f9 79        ld      a,c
07fa 324ac0    ld      (0c04ah),a
07fd fd2160c0  ld      iy,0c060h
0801 1809      jr      080ch
0803 cf        rst     08h
0804 79        ld      a,c
0805 3249c0    ld      (0c049h),a
0808 fd2158c0  ld      iy,0c058h
080c fd7302    ld      (iy+02h),e
080f fd7203    ld      (iy+03h),d
0812 4e        ld      c,(hl)
0813 23        inc     hl
0814 7e        ld      a,(hl)
0815 fd7701    ld      (iy+01h),a
0818 cb7f      bit     7,a
081a 2820      jr      z,083ch
081c 79        ld      a,c
081d e63f      and     3fh
081f 280c      jr      z,082dh
0821 23        inc     hl
0822 5e        ld      e,(hl)
0823 23        inc     hl
0824 56        ld      d,(hl)
0825 e60f      and     0fh
0827 2808      jr      z,0831h
0829 ed534bc0  ld      (0c04bh),de
082d fd7100    ld      (iy+00h),c
0830 c9        ret     

0831 7b        ld      a,e
0832 324ec0    ld      (0c04eh),a
0835 fd7205    ld      (iy+05h),d
0838 fd7100    ld      (iy+00h),c
083b c9        ret     

083c 23        inc     hl
083d 7e        ld      a,(hl)
083e fd7704    ld      (iy+04h),a
0841 23        inc     hl
0842 7e        ld      a,(hl)
0843 fd7705    ld      (iy+05h),a
0846 23        inc     hl
0847 7e        ld      a,(hl)
0848 324ec0    ld      (0c04eh),a
084b 79        ld      a,c
084c e60f      and     0fh
084e 28dd      jr      z,082dh
0850 18cf      jr      0821h
0852 80        add     a,b
0853 80        add     a,b
0854 81        add     a,c
0855 80        add     a,b
0856 c8        ret     z

0857 00        nop     
0858 81        add     a,c
0859 80        add     a,b
085a f40188    call    p,8801h
085d 80        add     a,b
085e 14        inc     d
085f 00        nop     
0860 88        adc     a,b
0861 80        add     a,b
0862 46        ld      b,(hl)
0863 00        nop     
0864 cf        rst     08h
0865 2100c4    ld      hl,0c400h
0868 013008    ld      bc,0830h
086b eda3      outi    
086d 03        inc     bc
086e 20fb      jr      nz,086bh
0870 010808    ld      bc,0808h
0873 eda3      outi    
0875 03        inc     bc
0876 20fb      jr      nz,0873h
0878 011008    ld      bc,0810h
087b eda2      ini     
087d 03        inc     bc
087e 20fb      jr      nz,087bh
0880 c9        ret     

089d cf        rst     08h
089e 0603      ld      b,03h
08a0 fd7e02    ld      a,(iy+02h)
08a3 cb3f      srl     a
08a5 cb3f      srl     a
08a7 cb3f      srl     a
08a9 cb3f      srl     a
08ab cdbb08    call    08bbh
08ae fd7e02    ld      a,(iy+02h)
08b1 e60f      and     0fh
08b3 cdbb08    call    08bbh
08b6 fd2b      dec     iy
08b8 10e6      djnz    08a0h
08ba c9        ret     

08bb b7        or      a
08bc 2802      jr      z,08c0h
08be 16ff      ld      d,0ffh
08c0 c630      add     a,30h
08c2 cb22      sla     d
08c4 3801      jr      c,08c7h
08c6 af        xor     a
08c7 dd7700    ld      (ix+00h),a
08ca dd7301    ld      (ix+01h),e
08cd dd23      inc     ix
08cf dd23      inc     ix
08d1 c9        ret     

08e8 cf        rst     08h
08e9 c5        push    bc
08ea 79        ld      a,c
			a=c*4+95h
08ef 0eba      ld      c,0bah
08f1 cb40      bit     0,b
08f3 2802      jr      z,08f7h
08f5 0ebe      ld      c,0beh
08f7 c5        push    bc
08f8 cde809    call    09e8h
08fb c1        pop     bc
08fc 78        ld      a,b
08fd 87        add     a,a
08fe 87        add     a,a
08ff c67d      add     a,7dh
0901 cde809    call    09e8h
0904 e5        push    hl
0905 fde1      pop     iy
0907 d1        pop     de
0908 7b        ld      a,e
0909 fe0c      cp      0ch
090b 2804      jr      z,0911h
090d fe09      cp      09h
090f 307f      jr      nc,0990h
0911 d5        push    de
0912 0604      ld      b,04h
0914 fd36007b  ld      (iy+00h),7bh
0918 fd7101    ld      (iy+01h),c
091b fd36027c  ld      (iy+02h),7ch
091f fd7103    ld      (iy+03h),c
0922 118000    ld      de,0080h
0925 fd19      add     iy,de
0927 10eb      djnz    0914h
0929 fd36007a  ld      (iy+00h),7ah
092d fd7101    ld      (iy+01h),c
0930 fd360279  ld      (iy+02h),79h
0934 fd7103    ld      (iy+03h),c
0937 1104fc    ld      de,0fc04h
093a fd19      add     iy,de
093c e1        pop     hl
093d 24        inc     h
093e 44        ld      b,h
093f 7d        ld      a,l
0940 fe0c      cp      0ch
0942 200e      jr      nz,0952h
0944 dd211a0b  ld      ix,0b1ah
0948 112400    ld      de,0024h
094b dd19      add     ix,de
094d 10fc      djnz    094bh
094f af        xor     a
0950 1818      jr      096ah
0952 3c        inc     a
0953 21dcff    ld      hl,0ffdch
0956 112400    ld      de,0024h
0959 19        add     hl,de
095a 3d        dec     a
095b 20fc      jr      nz,0959h
095d eb        ex      de,hl
095e dd21fa09  ld      ix,09fah
0962 dd19      add     ix,de
0964 3ee3      ld      a,0e3h
0966 c61d      add     a,1dh
0968 10fc      djnz    0966h
096a 6f        ld      l,a
096b 117800    ld      de,0078h
096e 0604      ld      b,04h
0970 2609      ld      h,09h
0972 c5        push    bc
0973 dd7e00    ld      a,(ix+00h)
0976 dd23      inc     ix
0978 fe74      cp      74h
097a 3001      jr      nc,097dh
097c 85        add     a,l
097d fd7700    ld      (iy+00h),a
0980 fd7101    ld      (iy+01h),c
0983 fd23      inc     iy
0985 fd23      inc     iy
0987 10ea      djnz    0973h
0989 c1        pop     bc
098a fd19      add     iy,de
098c 25        dec     h
098d 20e3      jr      nz,0972h
098f c9        ret     

0990 d608      sub     08h
0992 fe05      cp      05h
0994 3809      jr      c,099fh
0996 3d        dec     a
0997 47        ld      b,a
0998 3e03      ld      a,03h
099a 15        dec     d
099b 15        dec     d
099c 15        dec     d
099d 1803      jr      09a2h
099f 47        ld      b,a
09a0 3d        dec     a
09a1 14        inc     d
09a2 dd21cd0b  ld      ix,0bcdh
09a6 dd23      inc     ix
09a8 10fc      djnz    09a6h
09aa cb27      sla     a
09ac cb27      sla     a
09ae 82        add     a,d
09af 47        ld      b,a
09b0 1104fe    ld      de,0fe04h
09b3 19        add     hl,de
09b4 fd21a50b  ld      iy,0ba5h
09b8 112e00    ld      de,002eh
09bb fd19      add     iy,de
09bd 10fc      djnz    09bbh
09bf dd7e00    ld      a,(ix+00h)
09c2 010404    ld      bc,0404h
09c5 117800    ld      de,0078h
09c8 cdd509    call    09d5h
09cb 11fcff    ld      de,0fffch
09ce 19        add     hl,de
09cf 010506    ld      bc,0605h
09d2 117400    ld      de,0074h
09d5 c5        push    bc
09d6 77        ld      (hl),a
09d7 23        inc     hl
09d8 fd4e00    ld      c,(iy+00h)
09db 71        ld      (hl),c
09dc 23        inc     hl
09dd 3c        inc     a
09de fd23      inc     iy
09e0 10f4      djnz    09d6h
09e2 19        add     hl,de
09e3 c1        pop     bc
09e4 0d        dec     c
09e5 20ee      jr      nz,09d5h
09e7 c9        ret     

09e8 0602      ld      b,02h
09ea 77        ld      (hl),a
09eb 3c        inc     a
09ec 23        inc     hl
09ed 71        ld      (hl),c
09ee 23        inc     hl
09ef 77        ld      (hl),a
09f0 3c        inc     a
09f1 23        inc     hl
09f2 71        ld      (hl),c
09f3 117d00    ld      de,007dh
09f6 19        add     hl,de
09f7 10f1      djnz    09eah
09f9 c9        ret     

09fa 75        ld      (hl),l
09fb 13        inc     de
09fc 75        ld      (hl),l
09fd 76        halt    
09fe 7c        ld      a,h
09ff 05        dec     b
0a00 08        ex      af,af'
0a01 77        ld      (hl),a
0a02 7c        ld      a,h
0a03 14        inc     d
0a04 15        dec     d
0a05 77        ld      (hl),a
0a06 7c        ld      a,h
0a07 7c        ld      a,h
0a08 7c        ld      a,h
0a09 77        ld      (hl),a
0a0a 7c        ld      a,h
0a0b 7c        ld      a,h
0a0c 7c        ld      a,h
0a0d 77        ld      (hl),a
0a0e 7c        ld      a,h
0a0f 7c        ld      a,h
0a10 7c        ld      a,h
0a11 77        ld      (hl),a
0a12 7c        ld      a,h
0a13 167c      ld      d,7ch
0a15 77        ld      (hl),a
0a16 7c        ld      a,h
0a17 05        dec     b
0a18 08        ex      af,af'
0a19 77        ld      (hl),a
0a1a 79        ld      a,c
0a1b 17        rla     
0a1c 1878      jr      0a96h
0a1e 75        ld      (hl),l
0a1f 13        inc     de
0a20 75        ld      (hl),l
0a21 76        halt    
0a22 7c        ld      a,h
0a23 05        dec     b
0a24 08        ex      af,af'
0a25 77        ld      (hl),a
0a26 7c        ld      a,h
0a27 14        inc     d
0a28 15        dec     d
0a29 77        ld      (hl),a
0a2a 7c        ld      a,h
0a2b 167c      ld      d,7ch
0a2d 77        ld      (hl),a
0a2e 7c        ld      a,h
0a2f 05        dec     b
0a30 08        ex      af,af'
0a31 77        ld      (hl),a
0a32 7c        ld      a,h
0a33 14        inc     d
0a34 15        dec     d
0a35 77        ld      (hl),a
0a36 7c        ld      a,h
0a37 167c      ld      d,7ch
0a39 77        ld      (hl),a
0a3a 7c        ld      a,h
0a3b 05        dec     b
0a3c 08        ex      af,af'
0a3d 77        ld      (hl),a
0a3e 79        ld      a,c
0a3f 17        rla     
0a40 1878      jr      0abah
0a42 00        nop     
0a43 75        ld      (hl),l
0a44 75        ld      (hl),l
0a45 0a        ld      a,(bc)
0a46 010e07    ld      bc,070eh
0a49 0b        dec     bc
0a4a 19        add     hl,de
0a4b 7c        ld      a,h
0a4c 7c        ld      a,h
0a4d 1a        ld      a,(de)
0a4e 7c        ld      a,h
0a4f 7c        ld      a,h
0a50 7c        ld      a,h
0a51 77        ld      (hl),a
0a52 7c        ld      a,h
0a53 7c        ld      a,h
0a54 7c        ld      a,h
0a55 77        ld      (hl),a
0a56 7c        ld      a,h
0a57 7c        ld      a,h
0a58 7c        ld      a,h
0a59 77        ld      (hl),a
0a5a 1b        dec     de
0a5b 7c        ld      a,h
0a5c 7c        ld      a,h
0a5d 1c        inc     e
0a5e 010e07    ld      bc,070eh
0a61 0b        dec     bc
0a62 03        inc     bc
0a63 79        ld      a,c
0a64 79        ld      a,c
0a65 0d        dec     c
0a66 00        nop     
0a67 75        ld      (hl),l
0a68 75        ld      (hl),l
0a69 0a        ld      a,(bc)
0a6a 010e07    ld      bc,070eh
0a6d 0b        dec     bc
0a6e 19        add     hl,de
0a6f 7c        ld      a,h
0a70 7c        ld      a,h
0a71 1a        ld      a,(de)
0a72 7c        ld      a,h
0a73 167c      ld      d,7ch
0a75 77        ld      (hl),a
0a76 7c        ld      a,h
0a77 05        dec     b
0a78 08        ex      af,af'
0a79 77        ld      (hl),a
0a7a 7c        ld      a,h
0a7b 14        inc     d
0a7c 15        dec     d
0a7d 77        ld      (hl),a
0a7e 1b        dec     de
0a7f 7c        ld      a,h
0a80 7c        ld      a,h
0a81 1c        inc     e
0a82 010e07    ld      bc,070eh
0a85 0b        dec     bc
0a86 03        inc     bc
0a87 79        ld      a,c
0a88 79        ld      a,c
0a89 0d        dec     c
0a8a 00        nop     
0a8b 75        ld      (hl),l
0a8c 75        ld      (hl),l
0a8d 0a        ld      a,(bc)
0a8e 010e07    ld      bc,070eh
0a91 0b        dec     bc
0a92 19        add     hl,de
0a93 7c        ld      a,h
0a94 7c        ld      a,h
0a95 1a        ld      a,(de)
0a96 1b        dec     de
0a97 7c        ld      a,h
0a98 7c        ld      a,h
0a99 1c        inc     e
0a9a 010e07    ld      bc,070eh
0a9d 0b        dec     bc
0a9e 19        add     hl,de
0a9f 7c        ld      a,h
0aa0 7c        ld      a,h
0aa1 1a        ld      a,(de)
0aa2 1b        dec     de
0aa3 7c        ld      a,h
0aa4 7c        ld      a,h
0aa5 1c        inc     e
0aa6 010e07    ld      bc,070eh
0aa9 0b        dec     bc
0aaa 03        inc     bc
0aab 79        ld      a,c
0aac 79        ld      a,c
0aad 0d        dec     c
0aae 00        nop     
0aaf 75        ld      (hl),l
0ab0 75        ld      (hl),l
0ab1 0a        ld      a,(bc)
0ab2 010e07    ld      bc,070eh
0ab5 0b        dec     bc
0ab6 19        add     hl,de
0ab7 0f        rrca    
0ab8 101a      djnz    0ad4h
0aba 1b        dec     de
0abb 11121c    ld      de,1c12h
0abe 010e07    ld      bc,070eh
0ac1 0b        dec     bc
0ac2 19        add     hl,de
0ac3 7c        ld      a,h
0ac4 7c        ld      a,h
0ac5 1a        ld      a,(de)
0ac6 1b        dec     de
0ac7 7c        ld      a,h
0ac8 7c        ld      a,h
0ac9 1c        inc     e
0aca 010e07    ld      bc,070eh
0acd 0b        dec     bc
0ace 03        inc     bc
0acf 79        ld      a,c
0ad0 79        ld      a,c
0ad1 0d        dec     c
0ad2 00        nop     
0ad3 75        ld      (hl),l
0ad4 75        ld      (hl),l
0ad5 0a        ld      a,(bc)
0ad6 010e07    ld      bc,070eh
0ad9 0b        dec     bc
0ada 19        add     hl,de
0adb 0f        rrca    
0adc 101a      djnz    0af8h
0ade 1b        dec     de
0adf 11121c    ld      de,1c12h
0ae2 010e07    ld      bc,070eh
0ae5 0b        dec     bc
0ae6 19        add     hl,de
0ae7 0f        rrca    
0ae8 101a      djnz    0b04h
0aea 1b        dec     de
0aeb 11121c    ld      de,1c12h
0aee 010e07    ld      bc,070eh
0af1 0b        dec     bc
0af2 03        inc     bc
0af3 79        ld      a,c
0af4 79        ld      a,c
0af5 0d        dec     c
0af6 00        nop     
0af7 75        ld      (hl),l
0af8 75        ld      (hl),l
0af9 0a        ld      a,(bc)
0afa 010e07    ld      bc,070eh
0afd 0b        dec     bc
0afe 02        ld      (bc),a
0aff 7c        ld      a,h
0b00 7c        ld      a,h
0b01 0c        inc     c
0b02 010407    ld      bc,0704h
0b05 0b        dec     bc
0b06 02        ld      (bc),a
0b07 05        dec     b
0b08 08        ex      af,af'
0b09 0c        inc     c
0b0a 010609    ld      bc,0906h
0b0d 0b        dec     bc
0b0e 02        ld      (bc),a
0b0f 7c        ld      a,h
0b10 7c        ld      a,h
0b11 0c        inc     c
0b12 010e07    ld      bc,070eh
0b15 0b        dec     bc
0b16 03        inc     bc
0b17 79        ld      a,c
0b18 79        ld      a,c
0b19 0d        dec     c
0b1a 00        nop     
0b1b 75        ld      (hl),l
0b1c 75        ld      (hl),l
0b1d 0a        ld      a,(bc)
0b1e 010407    ld      bc,0704h
0b21 0b        dec     bc
0b22 02        ld      (bc),a
0b23 05        dec     b
0b24 08        ex      af,af'
0b25 0c        inc     c
0b26 010609    ld      bc,0906h
0b29 0b        dec     bc
0b2a 02        ld      (bc),a
0b2b 7c        ld      a,h
0b2c 7c        ld      a,h
0b2d 0c        inc     c
0b2e 010407    ld      bc,0704h
0b31 0b        dec     bc
0b32 02        ld      (bc),a
0b33 05        dec     b
0b34 08        ex      af,af'
0b35 0c        inc     c
0b36 010609    ld      bc,0906h
0b39 0b        dec     bc
0b3a 03        inc     bc
0b3b 79        ld      a,c
0b3c 79        ld      a,c
0b3d 0d        dec     c
0b3e 75        ld      (hl),l
0b3f 75        ld      (hl),l
0b40 75        ld      (hl),l
0b41 76        halt    
0b42 7c        ld      a,h
0b43 7c        ld      a,h
0b44 7c        ld      a,h
0b45 77        ld      (hl),a
0b46 7c        ld      a,h
0b47 7c        ld      a,h
0b48 7c        ld      a,h
0b49 77        ld      (hl),a
0b4a d1        pop     de
0b4b d2d3d4    jp      nc,0d4d3h
0b4e d5        push    de
0b4f d6d6      sub     0d6h
0b51 d7        rst     10h
0b52 7c        ld      a,h
0b53 d8        ret     c

0b54 d9        exx     
0b55 77        ld      (hl),a
0b56 7c        ld      a,h
0b57 7c        ld      a,h
0b58 7c        ld      a,h
0b59 77        ld      (hl),a
0b5a 7c        ld      a,h
0b5b 7c        ld      a,h
0b5c 7c        ld      a,h
0b5d 77        ld      (hl),a
0b5e 79        ld      a,c
0b5f 79        ld      a,c
0b60 79        ld      a,c
0b61 78        ld      a,b
0b62 75        ld      (hl),l
0b63 75        ld      (hl),l
0b64 75        ld      (hl),l
0b65 76        halt    
0b66 7c        ld      a,h
0b67 7c        ld      a,h
0b68 7c        ld      a,h
0b69 77        ld      (hl),a
0b6a 7c        ld      a,h
0b6b e6e7      and     0e7h
0b6d 77        ld      (hl),a
0b6e e8        ret     pe

0b6f e9        jp      (hl)
0b70 eaebec    jp      pe,0ecebh
0b73 d6d6      sub     0d6h
0b75 edee      db      0edh, 0eeh       ; Undocumented 8 T-State NOP
0b77 ef        rst     28h
0b78 f0        ret     p

0b79 f1        pop     af
0b7a 7c        ld      a,h
0b7b f2f377    jp      p,77f3h
0b7e 7c        ld      a,h
0b7f 7c        ld      a,h
0b80 7c        ld      a,h
0b81 77        ld      (hl),a
0b82 79        ld      a,c
0b83 79        ld      a,c
0b84 79        ld      a,c
0b85 78        ld      a,b
0b86 75        ld      (hl),l
0b87 75        ld      (hl),l
0b88 75        ld      (hl),l
0b89 76        halt    
0b8a 7c        ld      a,h
0b8b 7c        ld      a,h
0b8c 7c        ld      a,h
0b8d 77        ld      (hl),a
0b8e 7c        ld      a,h
0b8f f47c77    call    p,777ch
0b92 f4f5f6    call    p,0f6f5h
0b95 77        ld      (hl),a
0b96 f7        rst     30h
0b97 d6d6      sub     0d6h
0b99 f8        ret     m

0b9a 7c        ld      a,h
0b9b f9        ld      sp,hl
0b9c fa777c    jp      m,7c77h
0b9f 7c        ld      a,h
0ba0 7c        ld      a,h
0ba1 77        ld      (hl),a
0ba2 7c        ld      a,h
0ba3 7c        ld      a,h
0ba4 7c        ld      a,h
0ba5 77        ld      (hl),a
0ba6 79        ld      a,c
0ba7 79        ld      a,c
0ba8 79        ld      a,c
0ba9 78        ld      a,b
0baa 75        ld      (hl),l
0bab 75        ld      (hl),l
0bac 75        ld      (hl),l
0bad 76        halt    
0bae 7c        ld      a,h
0baf 7c        ld      a,h
0bb0 7c        ld      a,h
0bb1 77        ld      (hl),a
0bb2 7c        ld      a,h
0bb3 dadb77    jp      c,77dbh
0bb6 dcddde    call    c,0deddh
0bb9 df        rst     18h
0bba e0        ret     po

0bbb e1        pop     hl
0bbc e2e37c    jp      po,7ce3h
0bbf e4e577    call    po,77e5h
0bc2 7c        ld      a,h
0bc3 7c        ld      a,h
0bc4 7c        ld      a,h
0bc5 77        ld      (hl),a
0bc6 7c        ld      a,h
0bc7 7c        ld      a,h
0bc8 7c        ld      a,h
0bc9 77        ld      (hl),a
0bca 79        ld      a,c
0bcb 79        ld      a,c
0bcc 79        ld      a,c
0bcd 78        ld      a,b
0bce 99        sbc     a,c
0bcf 6b        ld      l,e
0bd0 73        ld      (hl),e
0bd1 2e00      ld      l,00h
0bd3 2b        dec     hl
0bd4 2b        dec     hl
0bd5 2b        dec     hl
0bd6 2b        dec     hl
0bd7 2b        dec     hl
0bd8 57        ld      d,a
0bd9 57        ld      d,a
0bda 2b        dec     hl
0bdb f7        rst     30h
0bdc f7        rst     30h
0bdd f7        rst     30h
0bde eb        ex      de,hl
0bdf f3        di      
0be0 f3        di      
0be1 f3        di      
0be2 eb        ex      de,hl
0be3 ff        rst     38h
0be4 ff        rst     38h
0be5 f7        rst     30h
0be6 ef        rst     28h
0be7 ef        rst     28h
0be8 af        xor     a
0be9 23        inc     hl
0bea 27        daa     
0beb af        xor     a
0bec 83        add     a,e
0bed 83        add     a,e
0bee af        xor     a
0bef 23        inc     hl
0bf0 03        inc     bc
0bf1 1b        dec     de
0bf2 1f        rra     
0bf3 1f        rra     
0bf4 1b        dec     de
0bf5 03        inc     bc
0bf6 03        inc     bc
0bf7 1b        dec     de
0bf8 1f        rra     
0bf9 1f        rra     
0bfa 1b        dec     de
0bfb 03        inc     bc
0bfc 03        inc     bc
0bfd 03        inc     bc
0bfe 17        rla     
0bff 17        rla     
0c00 03        inc     bc
0c01 ff        rst     38h
0c02 ff        rst     38h
0c03 ff        rst     38h
0c04 ff        rst     38h
0c05 ff        rst     38h
0c06 fb        ei      
0c07 fb        ei      
0c08 ff        rst     38h
0c09 f7        rst     30h
0c0a f7        rst     30h
0c0b f7        rst     30h
0c0c eb        ex      de,hl
0c0d f3        di      
0c0e f3        di      
0c0f f3        di      
0c10 eb        ex      de,hl
0c11 ff        rst     38h
0c12 ff        rst     38h
0c13 f7        rst     30h
0c14 ef        rst     28h
0c15 ef        rst     28h
0c16 e7        rst     20h
0c17 4f        ld      c,a
0c18 53        ld      d,e
0c19 e7        rst     20h
0c1a ef        rst     28h
0c1b ef        rst     28h
0c1c e7        rst     20h
0c1d 4f        ld      c,a
0c1e 2f        cpl     
0c1f 47        ld      b,a
0c20 4b        ld      c,e
0c21 4b        ld      c,e
0c22 47        ld      b,a
0c23 2f        cpl     
0c24 2f        cpl     
0c25 47        ld      b,a
0c26 4b        ld      c,e
0c27 4b        ld      c,e
0c28 47        ld      b,a
0c29 2f        cpl     
0c2a 2f        cpl     
0c2b 2f        cpl     
0c2c 43        ld      b,e
0c2d 43        ld      b,e
0c2e 2f        cpl     
0c2f 2b        dec     hl
0c30 2b        dec     hl
0c31 2b        dec     hl
0c32 2b        dec     hl
0c33 2b        dec     hl
0c34 57        ld      d,a
0c35 57        ld      d,a
0c36 2b        dec     hl
0c37 f7        rst     30h
0c38 f7        rst     30h
0c39 f7        rst     30h
0c3a eb        ex      de,hl
0c3b f3        di      
0c3c f3        di      
0c3d f3        di      
0c3e eb        ex      de,hl
0c3f ff        rst     38h
0c40 ff        rst     38h
0c41 f7        rst     30h
0c42 ef        rst     28h
0c43 ef        rst     28h
0c44 af        xor     a
0c45 7b        ld      a,e
0c46 7f        ld      a,a
0c47 af        xor     a
0c48 83        add     a,e
0c49 83        add     a,e
0c4a af        xor     a
0c4b 7b        ld      a,e
0c4c 5b        ld      e,e
0c4d 73        ld      (hl),e
0c4e 77        ld      (hl),a
0c4f 77        ld      (hl),a
0c50 73        ld      (hl),e
0c51 5b        ld      e,e
0c52 5b        ld      e,e
0c53 73        ld      (hl),e
0c54 77        ld      (hl),a
0c55 77        ld      (hl),a
0c56 73        ld      (hl),e
0c57 5b        ld      e,e
0c58 5b        ld      e,e
0c59 5b        ld      e,e
0c5a 6f        ld      l,a
0c5b 6f        ld      l,a
0c5c 5b        ld      e,e
0c5d ff        rst     38h
0c5e ff        rst     38h
0c5f ff        rst     38h
0c60 ff        rst     38h
0c61 ff        rst     38h
0c62 fb        ei      
0c63 fb        ei      
0c64 ff        rst     38h
0c65 f7        rst     30h
0c66 f7        rst     30h
0c67 f7        rst     30h
0c68 eb        ex      de,hl
0c69 f3        di      
0c6a f3        di      
0c6b f3        di      
0c6c eb        ex      de,hl
0c6d ff        rst     38h
0c6e ff        rst     38h
0c6f f7        rst     30h
0c70 ef        rst     28h
0c71 ef        rst     28h
0c72 e7        rst     20h
0c73 a7        and     a
0c74 ab        xor     e
0c75 e7        rst     20h
0c76 ef        rst     28h
0c77 ef        rst     28h
0c78 e7        rst     20h
0c79 a7        and     a
0c7a 87        add     a,a
0c7b 9f        sbc     a,a
0c7c a3        and     e
0c7d a3        and     e
0c7e 9f        sbc     a,a
0c7f 87        add     a,a
0c80 87        add     a,a
0c81 9f        sbc     a,a
0c82 a3        and     e
0c83 a3        and     e
0c84 9f        sbc     a,a
0c85 87        add     a,a
0c86 87        add     a,a
0c87 87        add     a,a
0c88 9b        sbc     a,e
0c89 9b        sbc     a,e
0c8a 87        add     a,a
0c8b e3        ex      (sp),hl
0c8c df        rst     18h
0c8d df        rst     18h
0c8e e3        ex      (sp),hl
0c8f dbd3      in      a,(0d3h)
0c91 d3e3      out     (0e3h),a
0c93 dbc7      in      a,(0c7h)
0c95 c7        rst     00h
0c96 e3        ex      (sp),hl
0c97 cf        rst     08h
0c98 ef        rst     28h
0c99 83        add     a,e
0c9a e3        ex      (sp),hl
0c9b e3        ex      (sp),hl
0c9c e3        ex      (sp),hl
0c9d cbef      set     5,a
0c9f cbe3      set     4,e
0ca1 e3        ex      (sp),hl
0ca2 e3        ex      (sp),hl
0ca3 cbcb      set     1,e
0ca5 cbd7      set     2,a
0ca7 e3        ex      (sp),hl
0ca8 e3        ex      (sp),hl
0ca9 dbdb      in      a,(0dbh)
0cab dbd7      in      a,(0d7h)
0cad 0b        dec     bc
0cae 0f        rrca    
0caf 13        inc     de
0cb0 13        inc     de
0cb1 13        inc     de
0cb2 0b        dec     bc
0cb3 03        inc     bc
0cb4 07        rlca    
0cb5 07        rlca    
0cb6 03        inc     bc
0cb7 03        inc     bc
0cb8 03        inc     bc
0cb9 e3        ex      (sp),hl
0cba df        rst     18h
0cbb df        rst     18h
0cbc e3        ex      (sp),hl
0cbd dbd3      in      a,(0d3h)
0cbf d3e3      out     (0e3h),a
0cc1 dbc7      in      a,(0c7h)
0cc3 c7        rst     00h
0cc4 e3        ex      (sp),hl
0cc5 cf        rst     08h
0cc6 ef        rst     28h
0cc7 83        add     a,e
0cc8 e3        ex      (sp),hl
0cc9 e3        ex      (sp),hl
0cca e3        ex      (sp),hl
0ccb cbef      set     5,a
0ccd cbe3      set     4,e
0ccf e3        ex      (sp),hl
0cd0 e3        ex      (sp),hl
0cd1 cbcb      set     1,e
0cd3 cbd7      set     2,a
0cd5 e3        ex      (sp),hl
0cd6 e3        ex      (sp),hl
0cd7 dbdb      in      a,(0dbh)
0cd9 dbd7      in      a,(0d7h)
0cdb 37        scf     
0cdc 3b        dec     sp
0cdd 3f        ccf     
0cde 3f        ccf     
0cdf 3f        ccf     
0ce0 37        scf     
0ce1 2f        cpl     
0ce2 33        inc     sp
0ce3 33        inc     sp
0ce4 2f        cpl     
0ce5 2f        cpl     
0ce6 2f        cpl     
0ce7 e3        ex      (sp),hl
0ce8 df        rst     18h
0ce9 df        rst     18h
0cea e3        ex      (sp),hl
0ceb dbd3      in      a,(0d3h)
0ced d3e3      out     (0e3h),a
0cef dbc7      in      a,(0c7h)
0cf1 c7        rst     00h
0cf2 e3        ex      (sp),hl
0cf3 cf        rst     08h
0cf4 ef        rst     28h
0cf5 83        add     a,e
0cf6 e3        ex      (sp),hl
0cf7 e3        ex      (sp),hl
0cf8 e3        ex      (sp),hl
0cf9 cbef      set     5,a
0cfb cbe3      set     4,e
0cfd e3        ex      (sp),hl
0cfe e3        ex      (sp),hl
0cff cbcb      set     1,e
0d01 cbd7      set     2,a
0d03 e3        ex      (sp),hl
0d04 e3        ex      (sp),hl
0d05 dbdb      in      a,(0dbh)
0d07 dbd7      in      a,(0d7h)
0d09 63        ld      h,e
0d0a 67        ld      h,a
0d0b 6b        ld      l,e
0d0c 6b        ld      l,e
0d0d 6b        ld      l,e
0d0e 63        ld      h,e
0d0f 5b        ld      e,e
0d10 5f        ld      e,a
0d11 5f        ld      e,a
0d12 5b        ld      e,e
0d13 5b        ld      e,e
0d14 5b        ld      e,e
0d15 e3        ex      (sp),hl
0d16 df        rst     18h
0d17 df        rst     18h
0d18 e3        ex      (sp),hl
0d19 dbd3      in      a,(0d3h)
0d1b d3e3      out     (0e3h),a
0d1d dbc7      in      a,(0c7h)
0d1f c7        rst     00h
0d20 e3        ex      (sp),hl
0d21 cf        rst     08h
0d22 ef        rst     28h
0d23 83        add     a,e
0d24 e3        ex      (sp),hl
0d25 e3        ex      (sp),hl
0d26 e3        ex      (sp),hl
0d27 cbef      set     5,a
0d29 cbe3      set     4,e
0d2b e3        ex      (sp),hl
0d2c e3        ex      (sp),hl
0d2d cbcb      set     1,e
0d2f cbd7      set     2,a
0d31 e3        ex      (sp),hl
0d32 e3        ex      (sp),hl
0d33 dbdb      in      a,(0dbh)
0d35 dbd7      in      a,(0d7h)
0d37 8f        adc     a,a
0d38 93        sub     e
0d39 97        sub     a
0d3a 97        sub     a
0d3b 97        sub     a
0d3c 8f        adc     a,a
0d3d 87        add     a,a
0d3e 8b        adc     a,e
0d3f 8b        adc     a,e
0d40 87        add     a,a
0d41 87        add     a,a
0d42 87        add     a,a
0d43 fcfcfc    call    m,0fcfch
0d46 fcfcfc    call    m,0fcfch
0d49 fcfcf8    call    m,0f8fch
0d4c f8        ret     m

0d4d f8        ret     m

0d4e f4f0f0    call    p,0f0f0h
0d51 f0        ret     p

0d52 f4f4f4    call    p,0f4f4h
0d55 f8        ret     m

0d56 ecece8    call    pe,0e8ech
0d59 e4e0e0    call    po,0e0e0h
0d5c e0        ret     po

0d5d ecdcc8    call    pe,0c8dch
0d60 d8        ret     c

0d61 d0        ret     nc

0d62 d0        ret     nc

0d63 d4d8c8    call    nc,0c8d8h
0d66 c4d4d4    call    nz,0d4d4h
0d69 d4d8c8    call    nc,0c8d8h
0d6c 54        ld      d,h
0d6d ccccd8    call    z,0d8cch
0d70 d8        ret     c

0d71 fcfcfc    call    m,0fcfch
0d74 fcfcfc    call    m,0fcfch
0d77 fcfcf8    call    m,0f8fch
0d7a f8        ret     m

0d7b f8        ret     m

0d7c f4f0f0    call    p,0f0f0h
0d7f f0        ret     p

0d80 f4f4f4    call    p,0f4f4h
0d83 f8        ret     m

0d84 ecece8    call    pe,0e8ech
0d87 c0        ret     nz

0d88 bc        cp      h
0d89 bc        cp      h
0d8a bc        cp      h
0d8b ecb8a4    call    pe,0a4b8h
0d8e b4        or      h
0d8f ac        xor     h
0d90 ac        xor     h
0d91 b0        or      b
0d92 b4        or      h
0d93 a4        and     h
0d94 a0        and     b
0d95 b0        or      b
0d96 b0        or      b
0d97 b0        or      b
0d98 b4        or      h
0d99 a4        and     h
0d9a 4c        ld      c,h
0d9b a8        xor     b
0d9c a8        xor     b
0d9d b4        or      h
0d9e b4        or      h
0d9f fcfcfc    call    m,0fcfch
0da2 fcfcfc    call    m,0fcfch
0da5 fcfcf8    call    m,0f8fch
0da8 f8        ret     m

0da9 f8        ret     m

0daa f4f0f0    call    p,0f0f0h
0dad f0        ret     p

0dae f4f4f4    call    p,0f4f4h
0db1 f8        ret     m

0db2 ecece8    call    pe,0e8ech
0db5 9c        sbc     a,h
0db6 98        sbc     a,b
0db7 98        sbc     a,b
0db8 98        sbc     a,b
0db9 ec9480    call    pe,8094h
0dbc 90        sub     b
0dbd 88        adc     a,b
0dbe 88        adc     a,b
0dbf 8c        adc     a,h
0dc0 90        sub     b
0dc1 80        add     a,b
0dc2 7c        ld      a,h
0dc3 8c        adc     a,h
0dc4 8c        adc     a,h
0dc5 8c        adc     a,h
0dc6 90        sub     b
0dc7 80        add     a,b
0dc8 44        ld      b,h
0dc9 84        add     a,h
0dca 84        add     a,h
0dcb 90        sub     b
0dcc 90        sub     b
0dcd fcfcfc    call    m,0fcfch
0dd0 fcfcfc    call    m,0fcfch
0dd3 fcfcf8    call    m,0f8fch
0dd6 f8        ret     m

0dd7 f8        ret     m

0dd8 f4f0f0    call    p,0f0f0h
0ddb f0        ret     p

0ddc f4f4f4    call    p,0f4f4h
0ddf f8        ret     m

0de0 ecece8    call    pe,0e8ech
0de3 78        ld      a,b
0de4 74        ld      (hl),h
0de5 74        ld      (hl),h
0de6 74        ld      (hl),h
0de7 ec705c    call    pe,5c70h
0dea 6c        ld      l,h
0deb 64        ld      h,h
0dec 64        ld      h,h
0ded 68        ld      l,b
0dee 6c        ld      l,h
0def 5c        ld      e,h
0df0 58        ld      e,b
0df1 68        ld      l,b
0df2 68        ld      l,b
0df3 68        ld      l,b
0df4 6c        ld      l,h
0df5 5c        ld      e,h
0df6 3c        inc     a
0df7 60        ld      h,b
0df8 60        ld      h,b
0df9 6c        ld      l,h
0dfa 6c        ld      l,h
0dfb 51        ld      d,c
0dfc 51        ld      d,c
0dfd 51        ld      d,c
0dfe 51        ld      d,c
0dff 49        ld      c,c
0e00 49        ld      c,c
0e01 49        ld      c,c
0e02 49        ld      c,c
0e03 51        ld      d,c
0e04 41        ld      b,c
0e05 41        ld      b,c
0e06 51        ld      d,c
0e07 29        add     hl,hl
0e08 29        add     hl,hl
0e09 29        add     hl,hl
0e0a 29        add     hl,hl
0e0b 2d        dec     l
0e0c 2d        dec     l
0e0d 29        add     hl,hl
0e0e 29        add     hl,hl
0e0f 29        add     hl,hl
0e10 29        add     hl,hl
0e11 2d        dec     l
0e12 2d        dec     l
0e13 29        add     hl,hl
0e14 29        add     hl,hl
0e15 29        add     hl,hl
0e16 29        add     hl,hl
0e17 313131    ld      sp,3131h
0e1a 313131    ld      sp,3131h
0e1d 313131    ld      sp,3131h
0e20 313131    ld      sp,3131h
0e23 313131    ld      sp,3131h
0e26 313131    ld      sp,3131h
0e29 51        ld      d,c
0e2a 51        ld      d,c
0e2b 51        ld      d,c
0e2c 51        ld      d,c
0e2d 49        ld      c,c
0e2e 49        ld      c,c
0e2f 49        ld      c,c
0e30 49        ld      c,c
0e31 51        ld      d,c
0e32 41        ld      b,c
0e33 41        ld      b,c
0e34 51        ld      d,c
0e35 39        add     hl,sp
0e36 39        add     hl,sp
0e37 39        add     hl,sp
0e38 39        add     hl,sp
0e39 2d        dec     l
0e3a 2d        dec     l
0e3b 39        add     hl,sp
0e3c 39        add     hl,sp
0e3d 39        add     hl,sp
0e3e 39        add     hl,sp
0e3f 2d        dec     l
0e40 2d        dec     l
0e41 39        add     hl,sp
0e42 39        add     hl,sp
0e43 39        add     hl,sp
0e44 39        add     hl,sp
0e45 35        dec     (hl)
0e46 35        dec     (hl)
0e47 35        dec     (hl)
0e48 35        dec     (hl)
0e49 35        dec     (hl)
0e4a 35        dec     (hl)
0e4b 35        dec     (hl)
0e4c 35        dec     (hl)
0e4d 35        dec     (hl)
0e4e 35        dec     (hl)
0e4f 35        dec     (hl)
0e50 35        dec     (hl)
0e51 35        dec     (hl)
0e52 35        dec     (hl)
0e53 35        dec     (hl)
0e54 35        dec     (hl)
0e55 35        dec     (hl)
0e56 35        dec     (hl)
0e57 cf        rst     08h
0e58 0ec3      ld      c,0c3h
0e5a 3e35      ld      a,35h
0e5c 117400    ld      de,0074h
0e5f 0609      ld      b,09h
0e61 c5        push    bc
0e62 0606      ld      b,06h
0e64 77        ld      (hl),a
0e65 3c        inc     a
0e66 23        inc     hl
0e67 71        ld      (hl),c
0e68 23        inc     hl
0e69 10f9      djnz    0e64h
0e6b 19        add     hl,de
0e6c c1        pop     bc
0e6d 10f2      djnz    0e61h
0e6f c9        ret     

0e70 cf        rst     08h
0e7a cdd308		dreptunghi	ef80,64,32,300h
			dreptunghi	efa8,40,30,4
0e89 c9        ret     

0e8a 3a18c4    ld      a,(0c418h)
0e8d f5        push    af
0e8e 3a68c0    ld      a,(0c068h)
0e91 3c        inc     a
0e92 3268c0    ld      (0c068h),a
0e95 e603      and     03h
0e97 dd21a80e  ld      ix,0ea8h
0e9b 87        add     a,a
0e9c 5f        ld      e,a
0e9d 1600      ld      d,00h
0e9f dd19      add     ix,de
0ea1 dd6e00    ld      l,(ix+00h)
0ea4 dd6601    ld      h,(ix+01h)
0ea7 e9        jp      (hl)
0ea8 b0        or      b
0ea9 0ef4      ld      c,0f4h
0eab 0e37      ld      c,37h
0ead 0f        rrca    
0eae 97        sub     a
0eaf 0f        rrca    
0eb0 f1        pop     af
0eb1 cb47      bit     0,a
0eb3 cac40f    jp      z,0fc4h
0eb6 2115c4    ld      hl,0c415h
0eb9 cb56      bit     2,(hl)
0ebb ca9422    jp      z,2294h
0ebe 2112c4    ld      hl,0c412h
0ec1 cb56      bit     2,(hl)
0ec3 218ac5    ld      hl,0c58ah
0ec6 2024      jr      nz,0eech
0ec8 cb46      bit     0,(hl)
0eca c2c40f    jp      nz,0fc4h
0ecd cbc6      set     0,(hl)
0ecf dd2167c4  ld      ix,0c467h
0ed3 cda904    x=1
0ed6 21fac4    ld      hl,0c4fah
0ed9 11d9c4    ld      de,0c4d9h
0edc af        xor     a
0edd ed52      sbc     hl,de
0edf e5        push    hl
0ee0 c1        pop     bc
0ee1 11fac4    ld      de,0c4fah
0ee4 21d9c4    ld      hl,0c4d9h
0ee7 edb0      ldir    
0ee9 c38813    jp      1388h
0eec cb46      bit     0,(hl)
0eee cac40f    jp      z,0fc4h
0ef1 c38813    jp      1388h
0ef4 f1        pop     af
0ef5 cb4f      bit     1,a
0ef7 cac40f    jp      z,0fc4h
0efa 3a68c0    ld      a,(0c068h)
0efd e604      and     04h
0eff 4f        ld      c,a
0f00 fd21a122  ld      iy,22a1h
0f04 fd46ff    ld      b,(iy-01h)
0f07 05        dec     b
0f08 fac40f    jp      m,0fc4h
0f0b c5        push    bc
0f0c fde5      push    iy
0f0e fd6e00    ld      l,(iy+00h)
0f11 fd6601    ld      h,(iy+01h)
0f14 af        xor     a
0f15 b1        or      c
0f16 2014      jr      nz,0f2ch
0f18 fd23      inc     iy
0f1a fd23      inc     iy
0f1c e5        push    hl
0f1d cd0812    call    1208h
0f20 cdcd04    cmp	x,y
0f23 e1        pop     hl
0f24 3806      jr      c,0f2ch
0f26 cd3a04    x=x-y
0f29 ef        rst     28h
0f2a 1801      jr      0f2dh
0f2c f7        rst     30h
0f2d fde1      pop     iy
0f2f 110600    ld      de,0006h
0f32 fd19      add     iy,de
0f34 c1        pop     bc
0f35 18d0      jr      0f07h
0f37 f1        pop     af
0f38 cb57      bit     2,a
0f3a cac40f    jp      z,0fc4h
0f3d cd9113    call    1391h
0f40 3a68c0    ld      a,(0c068h)
0f43 e61c      and     1ch
0f45 0eff      ld      c,0ffh
0f47 2801      jr      z,0f4ah
0f49 0c        inc     c
0f4a e60c      and     0ch
0f4c c2c40f    jp      nz,0fc4h
0f4f dd21ba22  ld      ix,22bah
0f53 dd7eff    ld      a,(ix-01h)
0f56 b7        or      a
0f57 cac40f    jp      z,0fc4h
0f5a 47        ld      b,a
0f5b fd216fc0  ld      iy,0c06fh
0f5f 78        ld      a,b
0f60 fe09      cp      09h
0f62 3802      jr      c,0f66h
0f64 0608      ld      b,08h
0f66 c5        push    bc
0f67 79        ld      a,c
0f68 fdb600    or      (iy+00h)
0f6b fda601    and     (iy+01h)
0f6e 4f        ld      c,a
0f6f cd820f    call    0f82h
0f72 fd23      inc     iy
0f74 fd23      inc     iy
0f76 c1        pop     bc
0f77 78        ld      a,b
0f78 d608      sub     08h
0f7a cac40f    jp      z,0fc4h
0f7d dac40f    jp      c,0fc4h
0f80 18dd      jr      0f5fh
0f82 dd6e00    ld      l,(ix+00h)
0f85 dd6601    ld      h,(ix+01h)
0f88 dd23      inc     ix
0f8a dd23      inc     ix
0f8c cb39      srl     c
0f8e 3803      jr      c,0f93h
0f90 f7        rst     30h
0f91 1801      jr      0f94h
0f93 ef        rst     28h
0f94 10ec      djnz    0f82h
0f96 c9        ret     

0f97 f1        pop     af
0f98 cb5f      bit     3,a
0f9a cac40f    jp      z,0fc4h
0f9d 3a68c0    ld      a,(0c068h)
0fa0 cb3f      srl     a
0fa2 cb3f      srl     a
0fa4 281e      jr      z,0fc4h
0fa6 3d        dec     a
0fa7 fd21cb22  ld      iy,22cbh
0fab fdbeff    cp      (iy-01h)
0fae 3014      jr      nc,0fc4h
0fb0 87        add     a,a
0fb1 87        add     a,a
0fb2 5f        ld      e,a
0fb3 1600      ld      d,00h
0fb5 fd19      add     iy,de
0fb7 fde5      push    iy
0fb9 cd0812    call    1208h
0fbc cdcd04    cmp	x,y
0fbf fde1      pop     iy
0fc1 d45a04    call    nc,x=0
0fc4 3a18c4    ld      a,(0c418h)
0fc7 cb67      bit     4,a
0fc9 caba10    jp      z,10bah
0fcc 3a68c0    ld      a,(0c068h)
0fcf e607      and     07h
0fd1 cc3212    call    z,1232h
0fd4 3a80c0    ld      a,(0c080h)
0fd7 3d        dec     a
0fd8 fa2c10    jp      m,102ch
0fdb 3280c0    ld      (0c080h),a
0fde 2007      jr      nz,0fe7h
0fe0 3d        dec     a
0fe1 327fc0    ld      (0c07fh),a
0fe4 c3ba10    jp      10bah
0fe7 e607      and     07h
0fe9 c2ba10    jp      nz,10bah
0fec 0e1f      ld      c,1fh
0fee 215c08    ld      hl,085ch
0ff1 111010    ld      de,1010h
0ff4 cdee07    call    07eeh
0ff7 0e1f      ld      c,1fh
0ff9 216008    ld      hl,0860h
0ffc 111b10    ld      de,101bh
0fff cd0408    call    0804h
1002 0e0f      ld      c,0fh
1004 215208    ld      hl,0852h
1007 111b10    ld      de,101bh
100a cdf907    call    07f9h
100d c3ba10    jp      10bah
1010 64        ld      h,h
1011 00        nop     
1012 017800    ld      bc,0078h
1015 015a00    ld      bc,005ah
1018 010000    ld      bc,0000h
101b 64        ld      h,h
101c 00        nop     
101d 01c800    ld      bc,00c8h
1020 01b400    ld      bc,00b4h
1023 012c01    ld      bc,012ch
1026 015a00    ld      bc,005ah
1029 010000    ld      bc,0000h
102c 3a7cc0    ld      a,(0c07ch)
102f b7        or      a
1030 caba10    jp      z,10bah
1033 3a7fc0    ld      a,(0c07fh)
1036 3c        inc     a
1037 c2ba10    jp      nz,10bah
103a 3a81c0    ld      a,(0c081h)
103d fe52      cp      52h
103f 2813      jr      z,1054h
1041 2112c4    ld      hl,0c412h
1044 cb56      bit     2,(hl)
1046 2806      jr      z,104eh
1048 dd21e222  ld      ix,22e2h
104c 180a      jr      1058h
104e dd211f23  ld      ix,231fh
1052 1804      jr      1058h
1054 dd213c23  ld      ix,233ch
1058 dd46fc    ld      b,(ix-04h)
105b 2182c0    ld      hl,0c082h
105e e5        push    hl
105f dd6efe    ld      l,(ix-02h)
1062 dd66ff    ld      h,(ix-01h)
1065 e7        rst     20h
1066 e1        pop     hl
1067 7e        ld      a,(hl)
1068 2013      jr      nz,107dh
106a 3c        inc     a
106b 77        ld      (hl),a
106c fe0a      cp      0ah
106e 2835      jr      z,10a5h
1070 dd5efd    ld      e,(ix-03h)
1073 1600      ld      d,00h
1075 dd19      add     ix,de
1077 23        inc     hl
1078 10e4      djnz    105eh
107a c3ba10    jp      10bah
107d b7        or      a
107e 28f0      jr      z,1070h
1080 3600      ld      (hl),00h
1082 c5        push    bc
1083 e5        push    hl
1084 dde5      push    ix
1086 dde5      push    ix
1088 fde1      pop     iy
108a dd46fd    ld      b,(ix-03h)
108d cb38      srl     b
108f cb38      srl     b
1091 cda312    call    12a3h
1094 0e10      ld      c,10h
1096 215808    ld      hl,0858h
1099 111010    ld      de,1010h
109c cdee07    call    07eeh
109f dde1      pop     ix
10a1 e1        pop     hl
10a2 c1        pop     bc
10a3 18cb      jr      1070h
10a5 210000    ld      hl,0000h
10a8 2282c0    ld      (0c082h),hl
10ab 2284c0    ld      (0c084h),hl
10ae 3e7e      ld      a,7eh
10b0 3280c0    ld      (0c080h),a
10b3 7d        ld      a,l
10b4 327fc0    ld      (0c07fh),a
10b7 c3ba10    jp      10bah
10ba 3a18c4    ld      a,(0c418h)
10bd cb6f      bit     5,a
10bf cab511    jp      z,11b5h
10c2 fd216623  ld      iy,2366h
10c6 dd218cc0  ld      ix,0c08ch
10ca fd46ff    ld      b,(iy-01h)
10cd 05        dec     b
10ce fab511    jp      m,11b5h
10d1 c5        push    bc
10d2 fde5      push    iy
10d4 fd6e00    ld      l,(iy+00h)
10d7 fd6601    ld      h,(iy+01h)
10da e5        push    hl
10db fd6e02    ld      l,(iy+02h)
10de fd6603    ld      h,(iy+03h)
10e1 e7        rst     20h
10e2 f5        push    af
10e3 280a      jr      z,10efh
10e5 ddcb017e  bit     7,(ix+01h)
10e9 ddcb01fe  set     7,(ix+01h)
10ed 180b      jr      10fah
10ef dd7e01    ld      a,(ix+01h)
10f2 ddcb01be  res     7,(ix+01h)
10f6 e680      and     80h
10f8 ee80      xor     80h
10fa f5        push    af
10fb dd7e00    ld      a,(ix+00h)
10fe fe45      cp      45h
1100 ca2f11    jp      z,112fh
1103 fe65      cp      65h
1105 ca6e11    jp      z,116eh
1108 dd360041  ld      (ix+00h),41h
110c ddcb01a6  res     4,(ix+01h)
1110 cdbe12    call    12beh
1113 2006      jr      nz,111bh
1115 f1        pop     af
1116 ca9a22    jp      z,229ah
1119 1801      jr      111ch
111b f1        pop     af
111c f1        pop     af
111d e1        pop     hl
111e f7        rst     30h
111f fde1      pop     iy
1121 c1        pop     bc
1122 110400    ld      de,0004h
1125 fd19      add     iy,de
1127 110600    ld      de,0006h
112a dd19      add     ix,de
112c c3cd10    jp      10cdh
112f dd360065  ld      (ix+00h),65h
1133 cdcf12    call    12cfh
1136 3028      jr      nc,1160h
1138 dde5      push    ix
113a e5        push    hl
113b dde1      pop     ix
113d cde304    cmp	x,0
1140 dde1      pop     ix
1142 3e00      ld      a,00h
1144 2801      jr      z,1147h
1146 3c        inc     a
1147 4f        ld      c,a
1148 dd7e01    ld      a,(ix+01h)
114b e680      and     80h
114d b1        or      c
114e dd7701    ld      (ix+01h),a
1151 dd360041  ld      (ix+00h),41h
1155 dd36021e  ld      (ix+02h),1eh
1159 dd360300  ld      (ix+03h),00h
115d c31b11    jp      111bh
1160 dd360290  ld      (ix+02h),90h
1164 dd360301  ld      (ix+03h),01h
1168 f1        pop     af
1169 f1        pop     af
116a e1        pop     hl
116b ef        rst     28h
116c 18b1      jr      111fh
116e f1        pop     af
116f 2810      jr      z,1181h
1171 cdbe12    call    12beh
1174 20f3      jr      nz,1169h
1176 f1        pop     af
1177 f5        push    af
1178 f5        push    af
1179 3e04      ld      a,04h
117b 28ca      jr      z,1147h
117d 3e02      ld      a,02h
117f 18c6      jr      1147h
1181 f1        pop     af
1182 280a      jr      z,118eh
1184 dd360290  ld      (ix+02h),90h
1188 dd360301  ld      (ix+03h),01h
118c 18dc      jr      116ah
118e dd36021e  ld      (ix+02h),1eh
1192 dd360300  ld      (ix+03h),00h
1196 dd6e04    ld      l,(ix+04h)
1199 dd6605    ld      h,(ix+05h)
119c dde5      push    ix
119e 46        ld      b,(hl)
119f 23        inc     hl
11a0 e5        push    hl
11a1 fde1      pop     iy
11a3 cda312    call    12a3h
11a6 cd6d22    call    226dh
11a9 dde1      pop     ix
11ab cdcf12    call    12cfh
11ae 30ba      jr      nc,116ah
11b0 f5        push    af
11b1 f5        push    af
11b2 c33811    jp      1138h
11b5 3a18c4    ld      a,(0c418h)
11b8 cb77      bit     6,a
11ba cae911    jp      z,11e9h
11bd dd2104c0  ld      ix,0c004h
11c1 dd3500    dec     (ix+00h)
11c4 280a      jr      z,11d0h
11c6 dd23      inc     ix
11c8 dd23      inc     ix
11ca dd23      inc     ix
11cc dd23      inc     ix
11ce 18f1      jr      11c1h
11d0 dd7e01    ld      a,(ix+01h)
11d3 dd7700    ld      (ix+00h),a
11d6 21e311    ld      hl,11e3h
11d9 dde5      push    ix
11db e5        push    hl
11dc dd6e02    ld      l,(ix+02h)
11df dd6603    ld      h,(ix+03h)
11e2 e9        jp      (hl)
11e3 dde1      pop     ix
11e5 18df      jr      11c6h
11e7 f1        pop     af
11e8 f1        pop     af
11e9 3a18c4    ld      a,(0c418h)
11ec cb7f      bit     7,a
11ee c8        ret     z

11ef 2a02c0    ld      hl,(0c002h)
11f2 7c        ld      a,h
11f3 b5        or      l
11f4 2804      jr      z,11fah
11f6 2b        dec     hl
11f7 2202c0    ld      (0c002h),hl
11fa cd6508    call    0865h
11fd 3a92c0    ld      a,(0c092h)
1200 2193c0    ld      hl,0c093h
1203 b6        or      (hl)
1204 cacc05    jp      z,05cch
1207 c9        ret     

1208			ld     ix,0c069h
1227			x=abs(iy[23])
122a fd2169c0	ld      iy,0c069h
122f dde1      ix=iy[01]
1231 c9        ret     
			

1232 fd2124c5  ld      iy,0c524h
1236 3a7ec0    ld      a,(0c07eh)
1239 b7        or      a
123a 2809      jr      z,1245h
123c dd211ec5  ld      ix,0c51eh
1240 cd1a04    x=x+y
1243 1806      jr      124bh
1245 dd2121c5  ld      ix,0c521h
1249 18f5      jr      1240h
124b dd2124c5  ld      ix,0c524h
124f cd5a04    x=0
1252 dd2121c5  ld      ix,0c521h
125a cdcd04    cmp	x,10000h
125d 3003      jr      nc,1262h
125f af        xor     a
1260 1802      jr      1264h
1262 3eff      ld      a,0ffh
1264 327ec0    ld      (0c07eh),a
1267 dd217cc0  ld      ix,0c07ch
126b dde5      push    ix
126d 3adc22    ld      a,(22dch)
1270 ddae02    xor     (ix+02h)
1273 dd21de22  ld      ix,22deh
1277 cd9912    call    1299h
127a dd2121c5  ld      ix,0c521h
127e fd216d23  ld      iy,236dh
1282 cdcd04    cmp	x,y
1285 3e00      ld      a,00h
1287 3801      jr      c,128ah
1289 3d        dec     a
128a dde1      pop     ix
128c ddb601    or      (ix+01h)
128f dda600    and     (ix+00h)
1292 dda603    and     (ix+03h)
1295 dd21cc22  ld      ix,22cch
1299 4f        ld      c,a
129a dd7eff    ld      a,(ix-01h)
129d b7        or      a
129e 47        ld      b,a
129f c2820f    jp      nz,0f82h
12a2 c9        ret     

12a3 c5        push    bc
12a4 fde5      push    iy
12a6 cd0812    call    1208h
12a9 2805      jr      z,12b0h
12ab cd3a04    x=x-y
12ae 1803      jr      12b3h
12b0 cd1a04    x=x+y
12b3 fde1      pop     iy
12b5 c1        pop     bc
12b6 110400    ld      de,0004h
12b9 fd19      add     iy,de
12bb 10e6      djnz    12a3h
12bd c9        ret     

12be dd6e02    ld      l,(ix+02h)
12c1 dd6603    ld      h,(ix+03h)
12c4 7d        ld      a,l
12c5 b4        or      h
12c6 c8        ret     z

12c7 2b        dec     hl
12c8 dd7502    ld      (ix+02h),l
12cb dd7403    ld      (ix+03h),h
12ce c9        ret     

12cf dde5      push    ix
12d1 dde5      push    ix
12d3 dd216cc0  ld      ix,0c06ch
12d7 cd5a04    x=0
12da 3a6523    ld      a,(2365h)
12dd 47        ld      b,a
12de dd218cc0  ld      ix,0c08ch
12e2 05        dec     b
12e3 faf512    jp      m,12f5h
12e6 dd7e00    ld      a,(ix+00h)
12e9 fe65      cp      65h
12eb cc1313    call    z,1313h
12ee 110600    ld      de,0006h
12f1 dd19      add     ix,de
12f3 18ed      jr      12e2h
12f5 dde1      pop     ix
12f7 dd6e04    ld      l,(ix+04h)
12fa dd6605    ld      h,(ix+05h)
12fd e5        push    hl
12fe fde1      pop     iy
1300 fd6e01    ld      l,(iy+01h)
1303 fd6602    ld      h,(iy+02h)
1306 e5        push    hl
1307 dde1      pop     ix
1309 fd216cc0  ld      iy,0c06ch
130d cdcd04    cmp	x,y
1310 dde1      pop     ix
1312 c9        ret     

1313 c5        push    bc
1314 dde5      push    ix
1316 dd6e04    ld      l,(ix+04h)
1319 dd6605    ld      h,(ix+05h)
131c 23        inc     hl
131d e5        push    hl
131e fde1      pop     iy
1320 cd0812    call    1208h
1323 fd2169c0  ld      iy,0c069h
1327 dd216cc0  ld      ix,0c06ch
132b cd1a04    x=x+y
132e dde1      pop     ix
1330 c1        pop     bc
1331 c9        ret     

1332 3e98      ld      a,98h
1334 3200c0    ld      (0c000h),a
1337 cd3314    call    1433h
133a 210101    ld      hl,0101h
133d 2204c0    ld      (0c004h),hl
1340 21e711    ld      hl,11e7h
1343 2206c0    ld      (0c006h),hl
1346 cd6508    call    0865h
1349 2112c4    ld      hl,0c412h
134c cb56      bit     2,(hl)
134e 2819      jr      z,1369h
1350 218ac5    ld      hl,0c58ah
1353 cb46      bit     0,(hl)
1355 2812      jr      z,1369h
1357 cb86      res     0,(hl)
1359 21fac4    ld      hl,0c4fah
135c 11d9c4    ld      de,0c4d9h
135f af        xor     a
1360 ed52      sbc     hl,de
1362 e5        push    hl
1363 c1        pop     bc
1364 21fac4    ld      hl,0c4fah
1367 edb0      ldir    
1369 3a6523    ld      a,(2365h)
136c 47        ld      b,a
136d 118cc0    ld      de,0c08ch
1370 c5        push    bc
1371 218213    ld      hl,1382h
1374 010600    ld      bc,0006h
1377 edb0      ldir    
1379 c1        pop     bc
137a 10f4      djnz    1370h
137c 3eff      ld      a,0ffh
137e 327fc0    ld      (0c07fh),a
1381 c9        ret     

1382 41        ld      b,c
1383 80        add     a,b
1384 00        nop     
1385 00        nop     
1386 00        nop     
1387 00        nop     
1388 3e08      ld      a,08h
138a d337      out     (37h),a
138c 3201c0    ld      (0c001h),a
138f 18fe      jr      138fh
1391 dd2172c0  ld      ix,0c072h
1395 dd46ff    ld      b,(ix-01h)
1398 05        dec     b
1399 f8        ret     m

139a dd3402    inc     (ix+02h)
139d dd7e02    ld      a,(ix+02h)
13a0 ddbe03    cp      (ix+03h)
13a3 380b      jr      c,13b0h
13a5 dd360200  ld      (ix+02h),00h
13a9 dd6e00    ld      l,(ix+00h)
13ac dd6601    ld      h,(ix+01h)
13af df        rst     18h
13b0 110400    ld      de,0004h
13b3 dd19      add     ix,de
13b5 18e1      jr      1398h
13b7 dd2172c0  ld      ix,0c072h
13bb eb        ex      de,hl
13bc dd46ff    ld      b,(ix-01h)
13bf 05        dec     b
13c0 f8        ret     m

13c1 dd6e00    ld      l,(ix+00h)
13c4 dd6601    ld      h,(ix+01h)
13c7 af        xor     a
13c8 ed52      sbc     hl,de
13ca c8        ret     z

13cb dd23      inc     ix
13cd dd23      inc     ix
13cf dd23      inc     ix
13d1 dd23      inc     ix
13d3 18ea      jr      13bfh
13d5 cf        rst     08h
13d6 e5        push    hl
13d7 cd0a14    call    140ah
13da e1        pop     hl
13db ef        rst     28h
13dc c9        ret     

13dd cf        rst     08h
13de e5        push    hl
13df cd0a14    call    140ah
13e2 e1        pop     hl
13e3 f7        rst     30h
13e4 c9        ret     

13e5 cf        rst     08h
13e6 cdb713    call    13b7h
13e9 2818      jr      z,1403h
13eb 2171c0    ld      hl,0c071h
13ee dd2172c0  ld      ix,0c072h
13f2 7e        ld      a,(hl)
13f3 d5        push    de
13f4 87        add     a,a
13f5 87        add     a,a
13f6 5f        ld      e,a
13f7 1600      ld      d,00h
13f9 dd19      add     ix,de
13fb d1        pop     de
13fc dd7300    ld      (ix+00h),e
13ff dd7201    ld      (ix+01h),d
1402 34        inc     (hl)
1403 dd7102    ld      (ix+02h),c
1406 dd7103    ld      (ix+03h),c
1409 c9        ret     

140a cdb713    call    13b7h
140d c0        ret     nz

140e f3        di      
140f 3a71c0    ld      a,(0c071h)
1412 f5        push    af
1413 87        add     a,a
1414 2172c0    ld      hl,0c072h
1417 87        add     a,a
1418 5f        ld      e,a
1419 1600      ld      d,00h
141b 19        add     hl,de
141c dde5      push    ix
141e dde5      push    ix
1420 d1        pop     de
1421 ed52      sbc     hl,de
1423 44        ld      b,h
1424 4d        ld      c,l
1425 e1        pop     hl
1426 23        inc     hl
1427 23        inc     hl
1428 23        inc     hl
1429 23        inc     hl
142a edb0      ldir    
142c f1        pop     af
142d 3d        dec     a
142e 3271c0    ld      (0c071h),a
1431 fb        ei      
1432 c9        ret     

1433 af        xor     a
1434 3271c0    ld      (0c071h),a
1437 c9        ret     

1438			initports
1473 2100c4		fillmem	0c400h,24,0
			fillmem	0c000h,768,0
			fillmem	0e000h,1000h,0aah
			beep
			verificare port 17h
			verificare port 17h
			verificare i<14
14e9 3e80      ld      a,80h
14eb 3218c4    ld      (0c418h),a
14f1 0600      ld      b,00h
1504 cd3213    call    1332h
1507 af        xor     a
1508 3201c0    ld      (0c001h),a
150b 211ac4    ld      hl,0c41ah
150e cb86      res     0,(hl)
1510 3e1a      ld      a,1ah
1512 d321      out     (21h),a
1514 3eff      ld      a,0ffh
1516 3247c0    ld      (0c047h),a
1519 cdac07		[c050]=40h
151c cdb30		[c058]=40h
151f cdba07		[c060]=40h
1522 3a5364    ld      a,(6453h)
1525 321bc4    ld      (0c41bh),a
1531 cdd308		dreptunghi	ef80,64,32,300h
1537 cd9f00		sleep	2
153a 3a1dc5    ld      a,(0c51dh)
153d e680      and     80h
153f 280b      jr      z,154ch
1541 112ac5    ld      de,0c52ah
1544 218624    ld      hl,2486h
1547 010800    ld      bc,0008h
154a edb0      ldir    
1566 dd217cc0  ld      ix,0c07ch
156a dd3600ff  ld      (ix+00h),0ffh
156e dd3601ff  ld      (ix+01h),0ffh
1572 3eff      ld      a,0ffh
1574 3218c4    ld      (0c418h),a
1577 0614      ld      b,14h
1579 0e0f      ld      c,0fh
157b 215208    ld      hl,0852h
157e 111880    ld      de,8018h
1581 cde207    call    07e2h
1584 10f3      djnz    1579h
1586 cdaf23    call    23afh
1589 211ac4    ld      hl,0c41ah
158c cbc6      set     0,(hl)
158e 211ac4    ld      hl,0c41ah
1591 cbde      set     3,(hl)
1593 af        xor     a
1594 32bec0    ld      (0c0beh),a				;nu este cupa
1597 dd21f4c4  ld      ix,0c4f4h
159b cd5a04    x=0
159e 2119c4    ld      hl,0c419h
15a1 cb9e      res     3,(hl)
15a3 2119c4    ld      hl,0c419h
15a6 cbae      res     5,(hl)
15b1 cdd308		dreptunghi	ef80,64,32,128h
15bd cdd308		dreptunghi	efa8,40,30,0
15c0 cde956    call    56e9h
15c3 210000    ld      hl,0000h
15c6 226fc0    ld      (0c06fh),hl
15c9 211ac4    ld      hl,0c41ah
15cc cb9e      res     3,(hl)
15ce dd21dfc4  ld      ix,0c4dfh
15d2 cde304    cmp	x,0
15d5 c46740    call    nz,4067h
15d8 cdaf23    call    23afh
15db 3eff      ld      a,0ffh
15dd 327cc0    ld      (0c07ch),a
15e0 dd21f1c4  ld      ix,0c4f1h
15e4 cde304    cmp	x,0
15e7 c20017    jp      nz,1700h
15ea 2100c4    ld      hl,0c400h
15ed cb96      res     2,(hl)
15ef 210000    ld      hl,0000h
15f2 226fc0    ld      (0c06fh),hl
15f5 3eff      ld      a,0ffh
15f7 327cc0    ld      (0c07ch),a
15fa 21e803    	counter=1000
1600 cdfd5a    call    5afdh
1603 cdaf23    call    23afh
1606 2113c4    ld      hl,0c413h
1609 cb56      bit     2,(hl)
160b caf425    jp      z,25f4h
160e 2111c4    ld      hl,0c411h
1611 cb56      bit     2,(hl)
1613 caf425    jp      z,25f4h
1616 2117c4    ld      hl,0c417h
1619 cb66      bit     4,(hl)
161b cae429    jp      z,29e4h
161e dd21f1c4  ld      ix,0c4f1h
1622 cde304    cmp	x,0
1625 c2a216    jp      nz,16a2h
1628 cd9700		testwait
162b 20d6      jr      nz,1603h
162d cdba5b    call    5bbah
1633 cd3601		sterg	586dh
1636 cdfd5a    call    5afdh
1639 2100c4    ld      hl,0c400h
163c cb96      res     2,(hl)
163e 210000    ld      hl,0000h
1641 226fc0    ld      (0c06fh),hl
1644 3eff      ld      a,0ffh
1646 327cc0    ld      (0c07ch),a
1649 2119c4    ld      hl,0c419h
164c cb9e      res     3,(hl)
164e 2119c4    ld      hl,0c419h
1651 cbae      res     5,(hl)
1653 dd21f4c4  ld      ix,0c4f4h
1657 cd5a04    x=0
165a 210000    ld      hl,0000h
165d 22bcc0    ld      (0c0bch),hl
1660 226fc0    ld      (0c06fh),hl

1663 db17		waitinterrupt
1669 ed57		i=i|128
166f cd5154    	print('american poker')
1672 cddb48		out	37h,[c407]
1675 3e01      ld      a,01h
1677 ed47      ld      i,a
1679 dd21f1c4  ld      ix,0c4f1h
167d cde304    cmp	x,0
1680 201d      jr      nz,169fh
1682 2113c4    ld      hl,0c413h
1685 cb56      bit     2,(hl)
1687 caf425    jp      z,25f4h
168a 2111c4    ld      hl,0c411h
168d cb56      bit     2,(hl)
168f caf425    jp      z,25f4h
1692 2117c4    ld      hl,0c417h
1695 cb66      bit     4,(hl)
1697 cae429    jp      z,29e4h
169a cdaf23    call    23afh
169d 18c4      jr      1663h
169f cde956    call    56e9h
16a2 cdba5b    call    5bbah
16a5 c3d815    jp      15d8h
16a8 64        ld      h,h
16a9 c688      add     a,88h
16ab e7        rst     20h
16ac 8f        adc     a,a
16ad e0        ret     po

16ae 8d        adc     a,l
16af d4a0c9    call    nc,0c9a0h
16b2 7a        ld      a,d
16b3 b3        or      e
16b4 75        ld      (hl),l
16b5 ce5b      adc     a,5bh
16b7 cf        rst     08h
16b8 213422    ld      hl,2234h
16bb 1823      jr      16e0h
16bd 34        inc     (hl)
16be 24        inc     h
16bf 2c        inc     l
16c0 010100    ld      bc,0001h
16c3 010101    ld      bc,0101h
16c6 00        nop     
16c7 010000    ld      bc,0000h
16ca 010001    ld      bc,0100h
16cd 010100    ld      bc,0001h
16d0 010200    ld      bc,0002h
16d3 010201    ld      bc,0102h
16d6 00        nop     
16d7 02        ld      (bc),a
16d8 00        nop     
16d9 00        nop     
16da 010001    ld      bc,0100h
16dd 02        ld      (bc),a
16de 02        ld      (bc),a
16df 00        nop     
16e0 010300    ld      bc,0003h
16e3 010202    ld      bc,0202h
16e6 010200    ld      bc,0002h
16e9 00        nop     
16ea 010101    ld      bc,0101h
16ed 03        inc     bc
16ee 02        ld      (bc),a
16ef 00        nop     
16f0 010300    ld      bc,0003h
16f3 010203    ld      bc,0302h
16f6 02        ld      (bc),a
16f7 02        ld      (bc),a
16f8 00        nop     
16f9 00        nop     
16fa 010101    ld      bc,0101h
16fd 03        inc     bc
16fe 03        inc     bc
16ff 00        nop     

1700
170e dd21f7c4  ld      ix,0c4f7h
1712 cdcd04    cmp	x,1000
1715 3821      jr      c,1738h
171b cd5a04    x=0
171e 0e10      ld      c,10h
			a=(16d0+rnd)
1738 dd21f4c4  ld      ix,0c4f4h
173c cd5a04    x=0
173f dd21dcc4  ld      ix,0c4dch
1746 cdeb04    x=500
1749 21c1c5    ld      hl,0c5c1h
174c 22d9c5    ld      (0c5d9h),hl
			a=(a&3)*2
			de=(16b8+a)
175f ed53dbc5  ld      (0c5dbh),de
1763 2117c4    ld      hl,0c417h
1766 cb4e      bit     1,(hl)
1768 c28417    jp      nz,1784h
176b 2111c4    ld      hl,0c411h
176e cb5e      bit     3,(hl)
1770 c28417    jp      nz,1784h
1773 2104c4    ld      hl,0c404h
1776 cba6      res     4,(hl)
1778 2106c4    ld      hl,0c406h
177b cb9e      res     3,(hl)
177d 2100c4    ld      hl,0c400h
1780 cb96      res     2,(hl)
1782 18df      jr      1763h
1784 3af3c4    ld      a,(0c4f3h)
1787 fe50      cp      50h
1789 3818      jr      c,17a3h
178b 2106c4    ld      hl,0c406h
178e cb9e      res     3,(hl)
1790 210000    ld      hl,0000h
1793 227cc0    ld      (0c07ch),hl
1796 2117c4    ld      hl,0c417h
1799 cb66      bit     4,(hl)
179b c28417    jp      nz,1784h
179e cde51c    call    1ce5h
17a1 18e1      jr      1784h
17a3 cdaf23    call    23afh
17a6 cde51c    call    1ce5h
17a9 dd21f1c4  ld      ix,0c4f1h
17ad fd21d9c4  ld      iy,0c4d9h
17b1 cdcd04    cmp	x,y
17b4 da6317    jp      c,1763h
17b7 2114c4    ld      hl,0c414h
17ba cb66      bit     4,(hl)
17bc c26317    jp      nz,1763h
17bf 210000    ld      hl,0000h
17c2 226fc0    ld      (0c06fh),hl
17c5 2100c4    ld      hl,0c400h
17c8 cb96      res     2,(hl)
17ca fd21d9c4  ld      iy,0c4d9h
17ce dd21dcc4  ld      ix,0c4dch
17d2 cdb904    x=y
17d5 fd21d9c4  ld      iy,0c4d9h
17d9 dd21f1c4  ld      ix,0c4f1h
17dd cd3a04    x=x-y				;credit=credit-bet
17e0 2112c4    ld      hl,0c412h
17e3 cb56      bit     2,(hl)
17e5 2811      jr      z,17f8h
17e7 cdbd1f    call    1fbdh
17ea dd21f7c4  ld      ix,0c4f7h
17ee cda904    x=1
17f1 dd2188c4  ld      ix,0c488h
17f5 cda904    x=1
17f8 af        xor     a
17f9 328bc5    ld      (0c58bh),a
1805 cdd308		dreptunghi	e8a8,36,1,0
1808 cd0a44    call    440ah
180b 2119c4    ld      hl,0c419h
180e cba6      res     4,(hl)
1810 cde246    call    46e2h
1813 3abec0    ld      a,(0c0beh)		;cupa
1816 fe03      cp      03h
1818 d4265b    call    nc,5b26h
181e 0e14      ld      c,14h
1820 cd0901		inser	586dh
1823 210500    sleep	5
1829 cd263d    call    3d26h
182c cd5d3f    call    3f5dh
182f 2114c4    ld      hl,0c414h
1832 cb5e      bit     3,(hl)
1834 51        ld      d,c
1835 2802      jr      z,1839h
1837 1600      ld      d,00h
1839 cd901d    call    1d90h
183c 2119c4    ld      hl,0c419h
183f cbd6      set     2,(hl)
1841 211ac4    ld      hl,0c41ah
1844 cbae      res     5,(hl)
1846 211ac4    ld      hl,0c41ah
1849 cba6      res     4,(hl)
184b af        xor     a
184c 32dac0    ld      (0c0dah),a
184f 21001f    ld      hl,1f00h
1852 226fc0    ld      (0c06fh),hl
1855 21b80b		counter=2994
185b 1e01      ld      e,01h
185d cd034a    call    4a03h
1860 cdaf23    call    23afh
1863 3abec0    ld      a,(0c0beh)
1866 fe03      cp      03h
1868 dab618    jp      c,18b6h
186b 3ad8c0    ld      a,(0c0d8h)
186e b7        or      a
186f c2c518    jp      nz,18c5h
1872 dd21dcc4  ld      ix,0c4dch
1876 fd21d9c4  ld      iy,0c4d9h
187a cdcd04    cmp	x,y
187d dac518    jp      c,18c5h
1880 210000    ld      hl,0000h
1883 226fc0    ld      (0c06fh),hl
1886 cd5d3f    call    3f5dh
1889 cd155b    call    5b15h			;afisare 'wins'+cupa
188c 211ac4    ld      hl,0c41ah
188f cbde      set     3,(hl)
1891 211ac4    ld      hl,0c41ah
1894 cb66      bit     4,(hl)
1896 c29c18    jp      nz,189ch
1899 cd5c1c    call    1c5ch
189c 211ac4    ld      hl,0c41ah
189f cbe6      set     4,(hl)
18a1 cd061c    call    1c06h
18a4 211ac4    ld      hl,0c41ah
18a7 cbf6      set     6,(hl)
18a9 21361b    ld      hl,1b36h
18ac e5        push    hl
18ad 21001f    ld      hl,1f00h
18b0 226fc0    ld      (0c06fh),hl
18b3 cd3735    call    3537h
18b6 dd21f1c4  ld      ix,0c4f1h
18ba cde304    cmp	x,0
18bd 2006      jr      nz,18c5h
18bf cd9700		testwait
18c2 ca3016    jp      z,1630h
18c5 cde51c    call    1ce5h
18c8 dd21dcc4  ld      ix,0c4dch
18cc fd21d9c4  ld      iy,0c4d9h
18d0 cdcd04    cmp	x,y
18d3 303f      jr      nc,1914h
18d5 dd21f1c4  ld      ix,0c4f1h
18d9 fd21d9c4  ld      iy,0c4d9h
18dd cdcd04    cmp	x,y
18e0 2100a0    ld      hl,0a000h
18e3 3803      jr      c,18e8h
18e5 2180a0    ld      hl,0a080h
18e8 226fc0    ld      (0c06fh),hl
18f4 cdd308		dreptunghi	eda8,36,1,0
18f7 af        xor     a
18f8 32d8c0    ld      (0c0d8h),a
18fe cd3601		sterg	586dh
190a cdd308		dreptunghi	e8a8,36,1,0
190d 211ac4    ld      hl,0c41ah
1910 cbee      set     5,(hl)
1912 1852      jr      1966h
1914 211ac4    ld      hl,0c41ah
1917 cb6e      bit     5,(hl)
1919 2813      jr      z,192eh
191e 0e14      ld      c,14h
1920 cd0901		inser	586dh
1923 21001f    ld      hl,1f00h
1926 226fc0    ld      (0c06fh),hl
1929 211ac4    ld      hl,0c41ah
192c cbae      res     5,(hl)
192e 211ac4    ld      hl,0c41ah
1931 cb9e      res     3,(hl)
1933 cd6b1d    call    1d6bh

1936 2118c4    ld      hl,0c418h
1939 cbfe      set     7,(hl)
193b 21dac0		hold=(hold^c)&c
1943 282		if hold=0 then goto 1966
1945 2119c4    ld      hl,0c419h
1948 cb56      bit     2,(hl)
194a 2817      jr      z,1963h
194c c5        push    bc
194d af        xor     a
194e 32d8c0    ld      (0c0d8h),a
1951 2119c4    ld      hl,0c419h
1954 cb96      res     2,(hl)
195f cdd308		dreptunghi	eda8,36,1,0
1962 c1        pop     bc
1963 cd2340		change_hold	bc
1966 2114c4    ld      hl,0c414h
1969 cb66      bit     4,(hl)
196b 282a      jr      z,1997h
196d c35b18    jp      185bh
1979 cdd308		dreptunghi	eda8,36,1,0
197f cd3601		sterg	586dh
198b cdd308		dreptunghi	e8a8,36,1,0
198e 210000    ld      hl,0000h
1991 226fc0    ld      (0c06fh),hl
1994 c3f71a    jp      1af7h
1997 3ad8c0    ld      a,(0c0d8h)
199a e61f      and     1fh
199c fe1f      cp      1fh
199e ca5b18    jp      z,185bh
19a1 dd21f1c4  ld      ix,0c4f1h
19a5 fd21d9c4  ld      iy,0c4d9h
19a9 cdcd04    cmp	x,y
19ac da5b18    jp      c,185bh
19af 211ac4    ld      hl,0c41ah
19b2 cbb6      res     6,(hl)
19b7 cd3601		sterg	586dh
19ba 210000    ld      hl,0000h
19bd 226fc0    ld      (0c06fh),hl
19c9 cdd308		dreptunghi	e8a8,36,1,0
19d5 cdd308		dreptunghi	eda8,36,1,0
19d8 3ad8c0    ld      a,(0c0d8h)
19db e61f      and     1fh
19dd cad815    jp      z,15d8h
19e0 fd21d9c4  ld      iy,0c4d9h
19e4 dd21f1c4  ld      ix,0c4f1h
19e8 cd3a04    x=x-y					;credit=credit-bet
19eb 2112c4    ld      hl,0c412h
19ee cb56      bit     2,(hl)
19f0 2811      jr      z,1a03h
19f2 cdbd1f    call    1fbdh
19f5 dd21f7c4  ld      ix,0c4f7h
19f9 cda904    x=1
19fc dd2188c4  ld      ix,0c488h
1a00 cda904    x=1
1a03 2119c4    ld      hl,0c419h
1a06 cbe6      set     4,(hl)
1a08 3ad8c0    ld      a,(0c0d8h)
1a0b 32c0c6    ld      (0c6c0h),a
1a0e cd0a44    call    440ah
1a11 cde246    call    46e2h
1a14 c3f71a    jp      1af7h
1a17 98        sbc     a,b
1a18 41        ld      b,c
1a19 12        ld      (de),a
1a1a 110908    ld      de,0809h
1a1d 00        nop     
1a1e dd21e2c4  ld      ix,0c4e2h
1a22 3adac4    ld      a,(0c4dah)
1a25 b7        or      a
1a26 2804      jr      z,1a2ch
1a28 dd21e5c4  ld      ix,0c4e5h
1a2c fd21d9c4  ld      iy,0c4d9h
1a30 cd1a04    x=x+y
1a33 0602      ld      b,02h
1a35 c5        push    bc
1a36 0e0f      ld      c,0fh
1a38 21dc5a    ld      hl,5adch
1a3b 11c800    ld      de,00c8h
1a3e cded07    call    07edh
1a41 e5        push    hl
1a42 210600    sleep	6
1a48 e1        pop     hl
1a49 cdf907    call    07f9h
1a4c 210600    sleep	6
1a52 c1        pop     bc
1a53 10e0      djnz    1a35h
1a55 210000    ld      hl,0000h
1a58 226fc0    ld      (0c06fh),hl
1a65 dd2194c0  ld      ix,0c094h
1a69 cdeb04    x=rnd40+100
1a6c dd2197c0  ld      ix,0c097h
1a73 cdeb04    x=1
1a76 fd21e2c4  ld      iy,0c4e2h
1a7a 216400    ld      hl,0064h
1a7d 3adac4    ld      a,(0c4dah)
1a80 b7        or      a
1a81 2811      jr      z,1a94h
1a8d fd21e5c4  ld      iy,0c4e5h
1a9b dd2194c0  ld      ix,0c094h
			hl=1000
1a9f cd2c05    x=x*10
1aa9 cdcd04    cmp	x,y
1aac d2d815    jnc	15d8h
1ab5 cbde      set     3,(0c41ah)
1ab8 dd21e5c0  ld      ix,0c0e5h
1abc cdeb04    x=1000
1ac5 cd3a04    y=y-1000
1acc dd2194c0  ld      ix,0c094h
1ad0 cdb904    x=1000
1ad3 cd685a    call    5a68h
1ad9 cd9f00    sleep	13
1adc dd21dfc4  ld      ix,0c4dfh
1ae0 fd2194c0  ld      iy,0c094h
1ae4 cdfc5b    call    5bfch
1ae7 cdb05b    call    5bb0h				;stergere proc. pt. 'jacks or b'
1aea cd0a44    call    440ah
1aed 2114c4    ld      hl,0c414h
1af0 cb66      bit     4,(hl)
1af2 28f9      jr      z,1aedh
1af4 c3331b    jp      1b33h
1af7 210000    ld      hl,0000h
1afa 226fc0    ld      (0c06fh),hl
1afd 2100c4    ld      hl,0c400h
1b00 cb96      res     2,(hl)
1b02 dd21dfc4  ld      ix,0c4dfh
1b06 cd5a04    x=0
1b09 cd0642    call    4206h
1b0c cda258    call    58a2h
1b0f 3abec0    ld      a,(0c0beh)		;cupa
1b12 b7        or      a
1b13 cad815    jp      z,15d8h
1b16 fe02      cp      02h
1b18 ca1e1a    jp      z,1a1eh
1b1b 211ac4    ld      hl,0c41ah
1b1e cbde      set     3,(hl)
1b20 cd5d3f    call    3f5dh
1b23 3a8bc5    ld      a,(0c58bh)
1b26 b1        or      c
1b27 328bc5    ld      (0c58bh),a
1b2a cd155b    call    5b15h			;afisare 'wins'+cupa
1b2d cd5c1c    call    1c5ch
1b30 cd061c    call    1c06h



1b33 cd3835    call    3538h
1b36 2112c4    ld      hl,0c412h
1b39 cb56      bit     2,(hl)
1b3b 2870      jr      z,1badh
1b3d 2164c4    ld      hl,0c464h
1b40 dd2185c4  ld      ix,0c485h
1b44 3abec0    ld      a,(0c0beh)		;cupa
1b47 fe02      cp      02h
1b49 381a      jr      c,1b65h
1b4b e5        push    hl
1b4c 3abec0    ld      a,(0c0beh)
1b4f 5f        ld      e,a
1b50 87        add     a,a
1b51 83        add     a,e
1b52 5f        ld      e,a
1b53 1600      ld      d,00h
1b55 dd19      add     ix,de
1b57 fd21e5c0  ld      iy,0c0e5h		;
1b5b cd1a04    x=x+y
1b5e dde1      pop     ix
1b60 dd19      add     ix,de
1b62 cda904    x=1
1b65 fd21e5c0  ld      iy,0c0e5h
1b69 dd21c4c4  ld      ix,0c4c4h
1b6d cd1a04    x=x+y				;castig acumulat
1b70 cddb1f    call    1fdbh
1b73 2119c4    ld      hl,0c419h
1b76 cb66      bit     4,(hl)
1b78 2818      jr      z,1b92h
1b7a fd21e5c0  ld      iy,0c0e5h
1b7e dd21d0c4  ld      ix,0c4d0h
1b82 cd1a04    x=x+y
1b85 fd21dfc4  ld      iy,0c4dfh
1b89 dd21d6c4  ld      ix,0c4d6h
1b8d cd1a04    x=x+y
1b90 181b      jr      1badh
1b92 fd21e5c0  ld      iy,0c0e5h
1b96 dd21cdc4  ld      ix,0c4cdh
1b9a cd1a04    x=x+y
1b9d fd21dfc4  ld      iy,0c4dfh
1ba1 dd21d3c4  ld      ix,0c4d3h
1ba5 cd1a04    x=x+y
1ba8 211ac4    ld      hl,0c41ah
1bab cb9e      res     3,(hl)
1bad 211400    sleep	20
1bb3 cd6740    call    4067h
1bb6 213c00		counter=60
1bbc cdaf23    call    23afh
1bbf 2114c4    ld      hl,0c414h
1bc2 cb66      bit     4,(hl)
1bc4 28f6      jr      z,1bbch
1bc6 cdaf23    call    23afh
1bc9 cd9700		testwait
1bcc 2807      jr      z,1bd5h
1bce 2114c4    ld      hl,0c414h
1bd1 cb66      bit     4,(hl)
1bd3 20f1      jr      nz,1bc6h
1bd8 cd3601		sterg	59ach
1bdb cdda5b    call    5bdah
1be7 cdd308		dreptunghi	eda8,36,1,0
1bf3 cdd308		dreptunghi	e8a8,36,1,0
1bf6 3a8bc5    ld      a,(0c58bh)
1bf9 4f        ld      c,a
1bfa 21aae8    ld      hl,0e8aah
1bfd 11b763    ld      de,63b7h
1c00 cd515b    call    5b51h
1c03 c3d815    jp      15d8h
1c06 3abec0    ld      a,tipcupa
1c09 87        add     a,a
1c0a 5f        ld      e,a
1c0b 1600      ld      d,00h
1c0d fd216b45  ld      iy,456bh
1c11 fd19      add     iy,de
			hl=scor_cupa(tipcupa)
1c19 dd2194c0  ld      ix,0c094h
1c1d cdeb04    x=hl
1c20 fd21d9c4  ld      iy,0c4d9h
1c24 dd2194c0  ld      ix,0c094h
1c28 cd2c05    x=x*y			;x=bet*scor_cupa
1c2b fd2194c0  ld      iy,0c094h
1c2f dd21e5c0  ld      ix,0c0e5h
1c33 cdb904    x=y
1c36 fd2194c0  ld      iy,0c094h
1c3a dd21dfc4  ld      ix,0c4dfh
1c3e cd1a04    x=x+y
1c41 0e10      ld      c,10h
1c43 21bc38    ld      hl,38bch
1c46 111001    ld      de,0110h
1c49 cdf907    call    07f9h
1c4c 210a00    sleep	10
1c52 cdba07		[c060]=40h
1c55 210100    sleep	1
1c5b c9        ret     

1c5c 3abec0    ld      a,(0c0beh)
1c5f 47        ld      b,a
1c60 05        dec     b
1c61 c5        push    bc
1c62 0e10      ld      c,10h
1c64 21171a    ld      hl,1a17h
1c67 116000    ld      de,0060h
1c6a cded07    call    07edh
1c6d cdf907    call    07f9h
1c70 210800    sleep	8
1c76 c1        pop     bc
1c77 10e8      djnz    1c61h
1c79 cdcf07		waitkey12345
1c7c cdb307		[c058]=40h,hl=c058
1c7f 210200    sleep	2
1c85 3abec0    ld      a,(0c0beh)			;daca cupa>8
1c88 d608      sub     08h
1c8a d8        ret     c

1c8b 5f        ld      e,a
1c8c 87        add     a,a
1c8d 83        add     a,e
1c8e dd210080  ld      ix,8000h			;pointer melodie pt cupa
1c92 87        add     a,a				;8000+(cupa-8)*6
1c93 5f        ld      e,a
1c94 1600      ld      d,00h
1c96 dd19      add     ix,de
1c98 0e01      ld      c,01h
1c9d cd0801		inser	59fbh
			inser	5a0dh
			inser	5a1fh
1cac 0e09      ld      c,09h
1cae 215208    ld      hl,0852h
1cb1 dd5e00    ld      e,(ix+00h)
1cb4 dd5601    ld      d,(ix+01h)
1cb7 cd0308    call    0803h
1cba dd5e02    ld      e,(ix+02h)
1cbd dd5603    ld      d,(ix+03h)
1cc0 cded07    call    07edh
1cc3 dd5e04    ld      e,(ix+04h)
1cc6 dd5605    ld      d,(ix+05h)
1cc9 cde207    call    07e2h
1ccf cd3601		sterg	59fbh
1cd5 cd3601		sterg	5a0dh
1cdb cd3601		sterg	5a1fh
1cde 210a00    sleep	10
1ce4 c9        ret     

1ce5 2117c4    ld      hl,0c417h
1ce8 cb66      bit     4,(hl)
1cea ca631d    jp      z,1d63h
1ced 2115c4    ld      hl,0c415h
1cf0 cb5e      bit     3,(hl)
1cf2 280c      jr      z,1d00h
1cf4 2116c4    ld      hl,0c416h
1cf7 cb5e      bit     3,(hl)
1cf9 2037      jr      nz,1d32h
1cfb 2a8323    ld      hl,(2383h)
1cfe 180f      jr      1d0fh
1d00 2116c4    ld      hl,0c416h
1d03 cb5e      bit     3,(hl)
1d05 2805      jr      z,1d0ch
1d07 2a9823    ld      hl,(2398h)
1d0a 1803      jr      1d0fh
1d16 dd21f1c4  ld      ix,0c4f1h
1d1e cdcd04    cmp	x,50			;credit<50
1d21 380f      jr      c,1d32h
1d23 2100c4    ld      hl,0c400h
1d26 cbd6      set     2,(hl)
1d28 2112c4    ld      hl,0c412h
1d2b cb66      bit     4,(hl)
1d2d ca671d    jp      z,1d67h
1d30 1805      jr      1d37h
1d32 2100c4    ld      hl,0c400h
1d35 cb96      res     2,(hl)
1d37 dd21f1c4  ld      ix,0c4f1h
1d3b fd21d9c4  ld      iy,0c4d9h
1d3f cdcd04    cmp	x,y
1d42 1100a0    ld      de,0a000h
1d45 3803      jr      c,1d4ah
1d47 1180a0    ld      de,0a080h
1d4a 2a6fc0    ld      hl,(0c06fh)
1d4d 7d        ld      a,l
1d4e e61f      and     1fh
1d50 b3        or      e
1d51 6f        ld      l,a
1d52 7c        ld      a,h
1d53 e61f      and     1fh
1d55 b2        or      d
1d56 67        ld      h,a
1d57 226fc0    ld      (0c06fh),hl
1d5a 2116c4    ld      hl,0c416h
1d5d cb4e      bit     1,(hl)
1d5f cc0e46    call    z,460eh
1d62 c9        ret     

1d63 f1        pop     af
1d64 c3b941    jp      41b9h
1d67 f1        pop     af
1d68 c38e40    jp      408eh
1d6b 010005    ld      bc,0500h
1d6e dd21861d  ld      ix,1d86h
1d72 dd6e00    ld      l,(ix+00h)
1d75 dd6601    ld      h,(ix+01h)
1d78 dd23      inc     ix
1d7a dd23      inc     ix
1d7c e7        rst     20h
1d7d 37        scf     
1d7e 2801      jr      z,1d81h
1d80 3f        ccf     
1d81 cb11      rl      c
1d83 10ed      djnz    1d72h
1d85 c9        ret     

1d86 1602      ld      d,02h
1d88 110415    ld      de,1504h
1d8b 04        inc     b
1d8c 14        inc     d
1d8d 02        ld      (bc),a
1d8e 110121    ld      de,2101h
1d91 00        nop
1d93 226fc0    ld      (0c06fh),hl
1d96 0605      ld      b,05h
1d98 1e01      ld      e,01h
1d9a 7b        ld      a,e
1d9b a2        and     d		;d=hold
1d9c 4f        ld      c,a
1d9d c42240		change_hold	bc
1da0 cb23      sla     e
1da2 cdce07		waitkey12345
1da5 10f3      djnz    1d9ah
1da7 c9        ret     

1da8 c35300    jp      0053h
1dab 2118c4    ld      hl,0c418h
1dae cb6e      bit     5,(hl)
1db0 200a      jr      nz,1dbch
1db2 2100c4    ld      hl,0c400h
1db5 cba6      res     4,(hl)
1db7 2103c4    ld      hl,0c403h
1dba cb8e      res     1,(hl)
1dbc 21afc0    ld      hl,0c0afh
1dbf 112ac5    ld      de,0c52ah
1dc2 0608      ld      b,08h
1dc4 1a        ld      a,(de)
1dc5 be        cp      (hl)
1dc6 2006      jr      nz,1dceh
1dc8 23        inc     hl
1dc9 13        inc     de
1dca 10f8      djnz    1dc4h
1dcc 180b      jr      1dd9h
1dce 3ab7c0    ld      a,(0c0b7h)
1dd1 3c        inc     a
1dd2 fe32      cp      32h
1dd4 3027      jr      nc,1dfdh
1dd6 32b7c0    ld      (0c0b7h),a
1dd9 3a01c0    ld      a,(0c001h)
1ddc e6f8      and     0f8h
1dde 201d      jr      nz,1dfdh
1de0 2107c4    ld      hl,0c407h
1de3 cb5e      bit     3,(hl)
1de5 cbde      set     3,(hl)
1de7 2802      jr      z,1debh
1de9 cb9e      res     3,(hl)
1deb 2112c4    ld      hl,0c412h
1dee cb56      bit     2,(hl)
1df0 200b      jr      nz,1dfdh
1df8 0e00      ld      c,00h
1dfa cd8208    liniebmp	eb2a,63d3			;service mode
1dfd 3af9c0    ld      a,(0c0f9h)
1e00 fe41      cp      41h
1e02 204a      jr      nz,1e4eh
1e04 2100c4    ld      hl,0c400h
1e07 cb56      bit     2,(hl)
1e09 21fac0    ld      hl,0c0fah
1e0c 2804      jr      z,1e12h
1e0e cbc6      set     0,(hl)
1e10 1802      jr      1e14h
1e12 cb86      res     0,(hl)
1e14 2a6fc0    ld      hl,(0c06fh)
1e17 22fbc0    ld      (0c0fbh),hl
1e1a 3a68c0    ld      a,(0c068h)
1e1d 47        ld      b,a
1e1e 0e00      ld      c,00h
1e20 cb50      bit     2,b
1e22 2809      jr      z,1e2dh
1e24 cbf9      set     7,c
1e26 2101c4    ld      hl,0c401h
1e29 cbce      set     1,(hl)
1e2b 1805      jr      1e32h
1e2d 2101c4    ld      hl,0c401h
1e30 cb8e      res     1,(hl)
1e32 cb60      bit     4,b
1e34 2809      jr      z,1e3fh
1e36 cbf1      set     6,c
1e38 2104c4    ld      hl,0c404h
1e3b cbe6      set     4,(hl)
1e3d 1805      jr      1e44h
1e3f 2104c4    ld      hl,0c404h
1e42 cba6      res     4,(hl)
1e44 61        ld      h,c
1e45 6c        ld      l,h
1e46 226fc0    ld      (0c06fh),hl
1e49 2100c4    ld      hl,0c400h
1e4c cb96      res     2,(hl)
1e4e cd8a0e    call    0e8ah
1e51 211ac4    ld      hl,0c41ah
1e54 cb46      bit     0,(hl)
1e56 cab61f    jp      z,1fb6h
1e59 cda258    call    58a2h
1e5c 3af9c0    ld      a,(0c0f9h)
1e5f fe41      cp      41h
1e61 c2f01e    jp      nz,1ef0h
1e64 2afbc0    ld      hl,(0c0fbh)
1e67 226fc0    ld      (0c06fh),hl
1e6a 3afac0    ld      a,(0c0fah)
1e6d cb47      bit     0,a
1e6f 2805      jr      z,1e76h
1e71 2100c4    ld      hl,0c400h
1e74 cbd6      set     2,(hl)
1e76 3afac0    ld      a,(0c0fah)
1e79 87        add     a,a
1e7a e6a0      and     0a0h
1e7c 4f        ld      c,a
1e7d 2116c4    ld      hl,0c416h
1e80 cb4e      bit     1,(hl)
1e82 2002      jr      nz,1e86h
1e84 cbe1      set     4,c
1e86 2113c4    ld      hl,0c413h
1e89 cb66      bit     4,(hl)
1e8b 2002      jr      nz,1e8fh
1e8d cbf1      set     6,c
1e8f 3afac0    ld      a,(0c0fah)
1e92 e60f      and     0fh
1e94 b1        or      c
1e95 4f        ld      c,a
1e96 e6c0      and     0c0h
1e98 fec0      cp      0c0h
1e9a 2002      jr      nz,1e9eh
1e9c cbc9      set     1,c
1e9e 79        ld      a,c
1e9f e630      and     30h
1ea1 fe30      cp      30h
1ea3 2002      jr      nz,1ea7h
1ea5 cbd1      set     2,c
1ea7 79        ld      a,c
1ea8 32fac0    ld      (0c0fah),a
1eab dd21221f  ld      ix,1f22h
1eaf 0609      ld      b,09h
1eb1 cd1303    call    0313h
1eb4 3afac0    ld      a,(0c0fah)
1eb7 4f        ld      c,a
1eb8 e6f0      and     0f0h
1eba c2f01e    jp      nz,1ef0h
1ebd af        xor     a
1ebe 32fac0    ld      (0c0fah),a
1ec1 210000    ld      hl,0000h
1ec4 cb49      bit     1,c
1ec6 2803      jr      z,1ecbh
1ec8 216400    ld      hl,0064h
1ecb 11e803    ld      de,03e8h
1ece cb51      bit     2,c
1ed0 2801      jr      z,1ed3h
1ed2 19        add     hl,de
1ed3 7d        ld      a,l
1ed4 b4        or      h
1ed5 caf01e    jp      z,1ef0h
1ed8 3af3c4    ld      a,(0c4f3h)
1edb fe10      cp      10h
1edd d27c1f    jp      nc,1f7ch
1ee0 e5        push    hl
1ee1 0e0f      ld      c,0fh
1ee3 215208    ld      hl,0852h
1ee6 111880    ld      de,8018h
1ee9 cdf907    call    07f9h
1eec e1        pop     hl
1eed c37c1f    jp      1f7ch
1ef0 2117c4    ld      hl,0c417h
1ef3 cb4e      bit     1,(hl)
1ef5 ca011f    jp      z,1f01h
1ef8 210000    ld      hl,0000h
1efb 22f9c0    ld      (0c0f9h),hl
1efe c3341f    jp      1f34h
1f01 2111c4    ld      hl,0c411h
1f04 cb5e      bit     3,(hl)
1f06 c2f81e    jp      nz,1ef8h
1f09 2113c4    ld      hl,0c413h
1f0c cb5e      bit     3,(hl)
1f0e c2f81e    jp      nz,1ef8h
1f11 3af9c0    ld      a,(0c0f9h)
1f14 fe41      cp      41h
1f16 cab61f    jp      z,1fb6h
1f19 214100    ld      hl,0041h
1f1c 22f9c0    ld      (0c0f9h),hl
1f1f c3b61f    jp      1fb6h
1f22 110114    ld      de,1401h
1f25 02        ld      (bc),a
1f26 15        dec     d
1f27 04        inc     b
1f28 110416    ld      de,1604h
1f2b 02        ld      (bc),a
1f2c 14        inc     d
1f2d 04        inc     b
1f2e 13        inc     de
1f2f 04        inc     b
1f30 1601      ld      d,01h
1f32 12        ld      (de),a
1f33 04        inc     b
1f34 2117c4    ld      hl,0c417h
1f37 cb4e      bit     1,(hl)
1f39 21d7c0    ld      hl,0c0d7h
1f3c 7e        ld      a,(hl)
1f3d 2009      jr      nz,1f48h
1f3f fe0a      cp      0ah
1f41 d2b61f    jp      nc,1fb6h
1f44 34        inc     (hl)
1f45 c3b61f    jp      1fb6h
1f48 fe0a      cp      0ah
1f4a 3005      jr      nc,1f51h
1f4c 3600      ld      (hl),00h
1f4e c3b61f    jp      1fb6h
1f51 fe14      cp      14h
1f53 2803      jr      z,1f58h
1f55 34        inc     (hl)
1f56 185e      jr      1fb6h
1f58 3600      ld      (hl),00h
1f5a 0e0f      ld      c,0fh
1f5c 215208    ld      hl,0852h
1f5f 111880    ld      de,8018h
1f62 cdf907    call    07f9h
1f65 2111c4    ld      hl,0c411h
1f68 cb5e      bit     3,(hl)
1f6a 211400    ld      hl,0014h
1f6d 280d      jr      z,1f7ch
1f6f 2113c4    ld      hl,0c413h
1f72 cb5e      bit     3,(hl)
1f74 213200    ld      hl,0032h
1f77 2803      jr      z,1f7ch
1f79 216400    ld      hl,0064h
1f7c 3af3c4    ld      a,(0c4f3h)
1f7f fe10      cp      10h
1f81 d2b61f    jp      nc,1fb6h
1f84 dd21a0c0  ld      ix,0c0a0h
1f88 cdeb04    x=hl
1f8b fd21a0c0  ld      iy,0c0a0h
1f8f dd21f1c4  ld      ix,0c4f1h
1f93 cd1a04    x=x+y
1f96 2112c4    ld      hl,0c412h
1f99 cb56      bit     2,(hl)
1f9b 2819      jr      z,1fb6h
1f9d fd21a0c0  ld      iy,0c0a0h
1fa1 dd21bec4  ld      ix,0c4beh
1fa5 cd1a04    x=x+y
1fa8 dd21a9c4  ld      ix,0c4a9h
1fac cd1a04    x=x+y
1faf dd21b2c4  ld      ix,0c4b2h
1fb3 cd1a04    x=x+y
1fb6 cdd020    call    20d0h
1fb9 c34400    jp      0044h
1fbc cf        rst     08h
1fbd fd21d9c4  ld      iy,0c4d9h
1fc1 dd21cac4  ld      ix,0c4cah
1fc5 cd1a04    x=x+y
1fc8 fd21d9c4  ld      iy,0c4d9h
1fcc dd2197c0  ld      ix,0c097h
1fd0 cdb904    x=y
1fd3 3e03      ld      a,03h
1fd5 329ac0    ld      (0c09ah),a
1fd8 181c      jr      1ff6h
1fda cf        rst     08h
1fdb fd21dfc4  ld      iy,0c4dfh
1fdf dd21c7c4  ld      ix,0c4c7h
1fe3 cd1a04    x=x+y
1fe6 fd21dfc4  ld      iy,0c4dfh
1fea dd2197c0  ld      ix,0c097h
1fee cdb904    x=y
1ff1 3e06      ld      a,06h
1ff3 329ac0    ld      (0c09ah),a
1ff6 cd8120    call    2081h
1ff9 3e4e      ld      a,4eh
1ffb 328ec5    ld      (0c58eh),a
1ffe 210000    ld      hl,0000h
2001 0e00      ld      c,00h
2003 3a99c0    ld      a,(0c099h)
2006 cd4520    call    2045h
2009 3a98c0    ld      a,(0c098h)
200c cd4520    call    2045h
200f 3a97c0    ld      a,(0c097h)
2012 cd4520    call    2045h
2015 ed5b9ac0  ld      de,(0c09ah)
2019 1600      ld      d,00h
201b dd218cc5  ld      ix,0c58ch
201f dd19      add     ix,de
2021 cd2f20    call    202fh
2024 110600    ld      de,0006h
2027 dd19      add     ix,de
2029 cd2f20    call    202fh
202c c3ac20    jp      20ach
202f dd7e00    ld      a,(ix+00h)
2032 81        add     a,c
2033 dd7700    ld      (ix+00h),a
2036 dd7e01    ld      a,(ix+01h)
2039 8d        adc     a,l
203a dd7701    ld      (ix+01h),a
203d dd7e02    ld      a,(ix+02h)
2040 8c        adc     a,h
2041 dd7702    ld      (ix+02h),a
2044 c9        ret     

2045 f5        push    af
2046 cb3f      srl     a
2048 cb3f      srl     a
204a cb3f      srl     a
204c cb3f      srl     a
204e cd5220    call    2052h
2051 f1        pop     af
2052 e60f      and     0fh
2054 fe0a      cp      0ah
2056 d27d24    jp      nc,247dh
2059 f5        push    af
205a cb21      sla     c
205c cb15      rl      l
205e cb14      rl      h
2060 41        ld      b,c
2061 5d        ld      e,l
2062 62        ld      h,d
2063 cb21      sla     c
2065 cb15      rl      l
2067 cb14      rl      h
2069 cb21      sla     c
206b cb15      rl      l
206d cb14      rl      h
206f cd7720    call    2077h
2072 f1        pop     af
2073 47        ld      b,a
2074 110000    ld      de,0000h
2077 79        ld      a,c
2078 80        add     a,b
2079 4f        ld      c,a
207a 7d        ld      a,l
207b 8b        adc     a,e
207c 6f        ld      l,a
207d 7c        ld      a,h
207e 8a        adc     a,d
207f 67        ld      h,a
2080 c9        ret     

2081 3a8ec5    ld      a,(0c58eh)
2084 fe4e      cp      4eh
2086 c8        ret     z

2087 dd218fc5  ld      ix,0c58fh
208b 210000    ld      hl,0000h
208e 110000    ld      de,0000h
2091 060d      ld      b,0dh
2093 dd5e00    ld      e,(ix+00h)
2096 19        add     hl,de
2097 dd23      inc     ix
2099 10f8      djnz    2093h
209b 7d        ld      a,l
209c 2f        cpl     
209d 6f        ld      l,a
209e 7c        ld      a,h
209f 2f        cpl     
20a0 67        ld      h,a
20a1 ed5b8cc5  ld      de,(0c58ch)
20a5 af        xor     a
20a6 ed52      sbc     hl,de
20a8 c8        ret     z

20a9 c37d24    jp      247dh
20ac 210000    ld      hl,0000h
20af 110000    ld      de,0000h
20b2 dd218fc5  ld      ix,0c58fh
20b6 060d      ld      b,0dh
20b8 dd5e00    ld      e,(ix+00h)
20bb 19        add     hl,de
20bc dd23      inc     ix
20be 10f8      djnz    20b8h
20c0 7d        ld      a,l
20c1 2f        cpl     
20c2 6f        ld      l,a
20c3 7c        ld      a,h
20c4 2f        cpl     
20c5 67        ld      h,a
20c6 228cc5    ld      (0c58ch),hl
20c9 3e50      ld      a,50h
20cb 328ec5    ld      (0c58eh),a
20ce c9        ret     

20cf cf        rst     08h
20d0 3a68c0    ld      a,(0c068h)
20d3 fe64      cp      64h
20d5 ca4a21    jp      z,214ah
20d8 dd219f21  ld      ix,219fh
20dc ddbe00    cp      (ix+00h)
20df d0        ret     nc

20e0 87        add     a,a
20e1 5f        ld      e,a
20e2 1600      ld      d,00h
20e4 dd19      add     ix,de
20e6 dd6e01    ld      l,(ix+01h)
20e9 dd6602    ld      h,(ix+02h)
20ec e5        push    hl
20ed dde1      pop     ix
20ef dd6e00    ld      l,(ix+00h)
20f2 dd6601    ld      h,(ix+01h)
20f5 e5        push    hl
20f6 fde1      pop     iy
20f8 fd7e02    ld      a,(iy+02h)
20fb fdb601    or      (iy+01h)
20fe 2006      jr      nz,2106h
2100 fd7e00    ld      a,(iy+00h)
2103 fe10      cp      10h
2105 d8        ret     c

2106 3e00      ld      a,00h
2108 32a2c0    ld      (0c0a2h),a
210b fd7e02    ld      a,(iy+02h)
210e 32a1c0    ld      (0c0a1h),a
2111 fd7e01    ld      a,(iy+01h)
2114 32a0c0    ld      (0c0a0h),a
2117 fd360200  ld      (iy+02h),00h
211b fd360100  ld      (iy+01h),00h
211f dd4602    ld      b,(ix+02h)
2122 fd21a0c0  ld      iy,0c0a0h
2126 110400    ld      de,0004h
2129 dde5      push    ix
212b dd6e03    ld      l,(ix+03h)
212e dd6604    ld      h,(ix+04h)
2131 dd7e05    ld      a,(ix+05h)
2134 e5        push    hl
2135 dde1      pop     ix
2137 fe2b      cp      2bh
2139 2805      jr      z,2140h
213b cd3a04    x=x-y
213e 1803      jr      2143h
2140 cd1a04    x=x+y
2143 dde1      pop     ix
2145 dd19      add     ix,de
2147 10e0      djnz    2129h
2149 c9        ret     

214a 3a2522    ld      a,(2225h)
214d 47        ld      b,a
214e dd212622  ld      ix,2226h
2152 110400    ld      de,0004h
2155 dd6e00    ld      l,(ix+00h)
2158 dd6601    ld      h,(ix+01h)
215b e5        push    hl
215c fde1      pop     iy
215e fd7e02    ld      a,(iy+02h)
2161 fdb601    or      (iy+01h)
2164 2007      jr      nz,216dh
2166 fd7e00    ld      a,(iy+00h)
2169 fe10      cp      10h
216b 382d      jr      c,219ah
216d 3e00      ld      a,00h
216f 32a2c0    ld      (0c0a2h),a
2172 fd7e02    ld      a,(iy+02h)
2175 32a1c0    ld      (0c0a1h),a
2178 fd7e01    ld      a,(iy+01h)
217b 32a0c0    ld      (0c0a0h),a
217e fd360200  ld      (iy+02h),00h
2182 fd360100  ld      (iy+01h),00h
2186 dd6e02    ld      l,(ix+02h)
2189 dd6603    ld      h,(ix+03h)
218c dde5      push    ix
218e e5        push    hl
218f dde1      pop     ix
2191 fd21a0c0  ld      iy,0c0a0h
2195 cd1a04    x=x+y
2198 dde1      pop     ix
219a dd19      add     ix,de
219c 10b7      djnz    2155h
219e c9        ret     

219f 05        dec     b
21a0 aa        xor     d
21a1 21c521    ld      hl,21c5h
21a4 dc21f7    call    c,0f721h
21a7 210e22    ld      hl,220eh
21aa b5        or      l
21ab c40631    call    nz,3106h
21ae c42b00    call    nz,002bh
21b1 4c        ld      c,h
21b2 c42b00    call    nz,002bh
21b5 37        scf     
21b6 c42b00    call    nz,002bh
21b9 52        ld      d,d
21ba c42b00    call    nz,002bh
21bd 1b        dec     de
21be c5        push    bc
21bf 2d        dec     l
21c0 00        nop     
21c1 24        inc     h
21c2 c5        push    bc
21c3 2b        dec     hl
21c4 00        nop     
21c5 b8        cp      b
21c6 c40543    call    nz,4305h
21c9 c42b00    call    nz,002bh
21cc 5e        ld      e,(hl)
21cd c42b00    call    nz,002bh
21d0 49        ld      c,c
21d1 c42b00    call    nz,002bh
21d4 64        ld      h,h
21d5 c42b00    call    nz,002bh
21d8 24        inc     h
21d9 c5        push    bc
21da 2b        dec     hl
21db 00        nop     
21dc bb        cp      e
21dd c40634    call    nz,3406h
21e0 c42b00    call    nz,002bh
21e3 4f        ld      c,a
21e4 c42b00    call    nz,002bh
21e7 3d        dec     a
21e8 c42b00    call    nz,002bh
21eb 58        ld      e,b
21ec c42b00    call    nz,002bh
21ef 1b        dec     de
21f0 c5        push    bc
21f1 2b        dec     hl
21f2 00        nop     
21f3 21c52d    ld      hl,2dc5h
21f6 00        nop     
21f7 be        cp      (hl)
21f8 c4053a    call    nz,3a05h
21fb c42b00    call    nz,002bh
21fe 55        ld      d,l
21ff c42b00    call    nz,002bh
2202 31c42b    ld      sp,2bc4h
2205 00        nop     
2206 4c        ld      c,h
2207 c42b00    call    nz,002bh
220a 1b        dec     de
220b c5        push    bc
220c 2d        dec     l
220d 00        nop     
220e c1        pop     bc
220f c40534    call    nz,3405h
2212 c42b00    call    nz,002bh
2215 4f        ld      c,a
2216 c42b00    call    nz,002bh
2219 40        ld      b,b
221a c42b00    call    nz,002bh
221d 5b        ld      e,e
221e c42b00    call    nz,002bh
2221 1b        dec     de
2222 c5        push    bc
2223 2b        dec     hl
2224 00        nop     
2225 07        rlca    
2226 cac422    jp      z,22c4h
2229 c4c4c4    call    nz,0c4c4h
222c 1c        inc     e
222d c4c7c4    call    nz,0c4c7h
2230 1f        rra     
2231 c4cdc4    call    nz,0c4cdh
2234 25        dec     h
2235 c4d0c4    call    nz,0c4d0h
2238 28c4      jr      z,21feh
223a d3c4      out     (0c4h),a
223c 2b        dec     hl
223d c4d6c4    call    nz,0c4d6h
2240 2ec4      ld      l,0c4h
2242 3a58c0    ld      a,(0c058h)
2245 e6c0      and     0c0h
2247 200b      jr      nz,2254h
2249 0e09      ld      c,09h
224b 218f22    ld      hl,228fh
224e 114d01    ld      de,014dh
2251 cd0408    call    0804h
2254 3ab9c0    ld      a,(0c0b9h)
2257 3d        dec     a
2258 2804      jr      z,225eh
225a 32b9c0    ld      (0c0b9h),a
225d c9        ret     

225e 3e05      ld      a,05h
2260 32b9c0    ld      (0c0b9h),a
2263 3ab8c0    ld      a,(0c0b8h)
2266 3d        dec     a
2267 f8        ret     m

2268 32b8c0    ld      (0c0b8h),a
226b 1808      jr      2275h
226d 210e07    ld      hl,070eh
2270 22b8c0    ld      (0c0b8h),hl
2273 3e0e      ld      a,0eh
2275 4f        ld      c,a
2276 87        add     a,a
2277 5f        ld      e,a
2278 1600      ld      d,00h
227a 210f00    ld      hl,000fh
227d 19        add     hl,de
227e eb        ex      de,hl
227f 218a22    ld      hl,228ah
2282 cded07    call    07edh
2285 13        inc     de
2286 13        inc     de
2287 c3f907    jp      07f9h
228a b0        or      b
228b 012007    ld      bc,0720h
228e 14        inc     d
228f b0        or      b
2290 02        ld      (bc),a
2291 c0        ret     nz

2292 2014      jr      nz,22a8h
2294 31e0c3    ld      sp,0c3e0h
2297 c3f257    jp      57f2h
229a 31e0c3    ld      sp,0c3e0h
229d c3b157    jp      57b1h
22a0 04        inc     b
22a1 03        inc     bc
22a2 02        ld      (bc),a
22a3 a9        xor     c
22a4 c46400    call    nz,0064h
22a7 02        ld      (bc),a
22a8 02        ld      (bc),a
22a9 ac        xor     h
22aa c46400    call    nz,0064h
22ad 05        dec     b
22ae 02        ld      (bc),a
22af b2        or      d
22b0 c46400    call    nz,0064h
22b3 04        inc     b
22b4 03        inc     bc
22b5 af        xor     a
22b6 c46400    call    nz,0064h
22b9 08        ex      af,af'
22ba 0604      ld      b,04h
22bc 010302    ld      bc,0203h
22bf 03        inc     bc
22c0 010206    ld      bc,0602h
22c3 02        ld      (bc),a
22c4 0603      ld      b,03h
22c6 04        inc     b
22c7 04        inc     b
22c8 010100    ld      bc,0001h
22cb 08        ex      af,af'
22cc 04        inc     b
22cd 02        ld      (bc),a
22ce 02        ld      (bc),a
22cf 04        inc     b
22d0 0601      ld      b,01h
22d2 00        nop     
22d3 010200    ld      bc,0002h
22d6 07        rlca    
22d7 00        nop     
22d8 05        dec     b
22d9 00        nop     
22da 03        inc     bc
22db 00        nop     
22dc 00        nop     
22dd 00        nop     
22de 04        inc     b
22df 0f        rrca    
22e0 1604      ld      d,04h
22e2 f1        pop     af
22e3 c40100    call    nz,0001h
22e6 a9        xor     c
22e7 c40100    call    nz,0001h
22ea b5        or      l
22eb c40100    call    nz,0001h
22ee 0f        rrca    
22ef 1002      djnz    22f3h
22f1 f1        pop     af
22f2 c40a00    call    nz,000ah
22f5 a9        xor     c
22f6 c40a00    call    nz,000ah
22f9 b5        or      l
22fa c40a00    call    nz,000ah
22fd 0f        rrca    
22fe 1004      djnz    2304h
2300 f1        pop     af
2301 c41400    call    nz,0014h
2304 a9        xor     c
2305 c41400    call    nz,0014h
2308 b5        or      l
2309 c41400    call    nz,0014h
230c 0f        rrca    
230d 17        rla     
230e 02        ld      (bc),a
230f f1        pop     af
2310 c43200    call    nz,0032h
2313 a9        xor     c
2314 c43200    call    nz,0032h
2317 b5        or      l
2318 c43200    call    nz,0032h
231b 04        inc     b
231c 07        rlca    
231d 1604      ld      d,04h
231f f1        pop     af
2320 c40100    call    nz,0001h
2323 07        rlca    
2324 1002      djnz    2328h
2326 f1        pop     af
2327 c40a00    call    nz,000ah
232a 07        rlca    
232b 1004      djnz    2331h
232d f1        pop     af
232e c41400    call    nz,0014h
2331 0f        rrca    
2332 17        rla     
2333 02        ld      (bc),a
2334 f1        pop     af
2335 c43200    call    nz,0032h
2338 04        inc     b
2339 0b        dec     bc
233a 1604      ld      d,04h
233c b8        cp      b
233d c40100    call    nz,0001h
2340 a9        xor     c
2341 c0        ret     nz

2342 01000b    ld      bc,0b00h
2345 1002      djnz    2349h
2347 b8        cp      b
2348 c40a00    call    nz,000ah
234b a9        xor     c
234c c0        ret     nz

234d 0a        ld      a,(bc)
234e 00        nop     
234f 0b        dec     bc
2350 1004      djnz    2356h
2352 b8        cp      b
2353 c41400    call    nz,0014h
2356 a9        xor     c
2357 c0        ret     nz

2358 14        inc     d
2359 00        nop     
235a 0b        dec     bc
235b 17        rla     
235c 02        ld      (bc),a
235d b8        cp      b
235e c43200    call    nz,0032h
2361 a9        xor     c
2362 c0        ret     nz

2363 320001    ld      (0100h),a
2366 03        inc     bc
2367 011301    ld      bc,0113h
236a 00        nop     
236b 00        nop     
236c 010040    ld      bc,4000h
236f 00        nop     
2370 05        dec     b
2371 9a        sbc     a,d
2372 c0        ret     nz

2373 f6ff      or      0ffh
2375 f1        pop     af
2376 c4f6ff    call    nz,0fff6h
2379 f4c40a    call    p,0ac4h
237c 00        nop     
237d ac        xor     h
237e c40a00    call    nz,000ah
2381 bb        cp      e
2382 c40a00    call    nz,000ah
2385 05        dec     b
2386 9a        sbc     a,d
2387 c0        ret     nz

2388 ecfff1    call    pe,0f1ffh
238b c4ecff    call    nz,0ffech
238e f4c414    call    p,14c4h
2391 00        nop     
2392 ac        xor     h
2393 c41400    call    nz,0014h
2396 bb        cp      e
2397 c41400    call    nz,0014h
239a 05        dec     b
239b 9a        sbc     a,d
239c c0        ret     nz

239d ceff      adc     a,0ffh
239f f1        pop     af
23a0 c4ceff    call    nz,0ffceh
23a3 f4c432    call    p,32c4h
23a6 00        nop     
23a7 ac        xor     h
23a8 c43200    call    nz,0032h
23ab bb        cp      e
23ac c43200    call    nz,0032h
23af f5        push    af
23b0 c5        push    bc
23b1 d5        push    de
23b2 e5        push    hl
23b3 dde5      push    ix
23b5 fde5      push    iy
23b7 3a0424    ld      a,(2404h)
23ba 47        ld      b,a
23bb dd210524  ld      ix,2405h
23bf 110400    ld      de,0004h
23c2 c5        push    bc
23c3 dde5      push    ix
23c5 dd6e00    ld      l,(ix+00h)
23c8 dd6601    ld      h,(ix+01h)
23cb e5        push    hl
23cc e5        push    hl
23cd af        xor     a
23ce 3297c0    ld      (0c097h),a
23d1 dd6e02    ld      l,(ix+02h)
23d4 dd6603    ld      h,(ix+03h)
23d7 2298c0    ld      (0c098h),hl
23da dde1      pop     ix
23dc fd2197c0  ld      iy,0c097h
23e0 cdcd04    cmp	x,y
23e3 d27d24    jp      nc,247dh
23e6 e1        pop     hl
23e7 0603      ld      b,03h
23e9 7e        ld      a,(hl)
23ea e60f      and     0fh
23ec fe0a      cp      0ah
23ee d27d24    jp      nc,247dh
23f1 7e        ld      a,(hl)
23f2 fe9a      cp      9ah
23f4 d27d24    jp      nc,247dh
23f7 23        inc     hl
23f8 10ef      djnz    23e9h
23fa dde1      pop     ix
23fc c1        pop     bc
23fd dd19      add     ix,de
23ff 10c1      djnz    23c2h
2401 c32924    jp      2429h
2404 09        add     hl,bc
2405 a9        xor     c
2406 c40050    call    nz,5000h
2409 b2        or      d
240a c40050    call    nz,5000h
240d ac        xor     h
240e c49999    call    nz,9999h
2411 af        xor     a
2412 c49999    call    nz,9999h
2415 f1        pop     af
2416 c40070    call    nz,7000h
2419 df        rst     18h
241a c40020    call    nz,2000h
241d e2c403    jp      po,03c4h
2420 00        nop     
2421 e5        push    hl
2422 c43000    call    nz,0030h
2425 d9        exx     
2426 c40600    call    nz,0006h
2429 21c5c6    ld      hl,0c6c5h
242c 0605      ld      b,05h
242e cb7e      bit     7,(hl)
2430 2005      jr      nz,2437h
2432 3e0e      ld      a,0eh
2434 be        cp      (hl)
2435 3816      jr      c,244dh
2437 23        inc     hl
2438 cb7e      bit     7,(hl)
243a 2005      jr      nz,2441h
243c 3e05      ld      a,05h
243e be        cp      (hl)
243f 380c      jr      c,244dh
2441 23        inc     hl
2442 10ea      djnz    242eh
2444 fde1      pop     iy
2446 dde1      pop     ix
2448 e1        pop     hl
2449 d1        pop     de
244a c1        pop     bc
244b f1        pop     af
244c c9        ret     

244d af        xor     a
244e 328bc5    ld      (0c58bh),a
2451 21cfc6    ld      hl,0c6cfh
2454 22c3c6    ld      (0c6c3h),hl
2457 2119c4    ld      hl,0c419h
245a cba6      res     4,(hl)
245c dd21c5c6  ld      ix,0c6c5h
2460 3ef6      ld      a,0f6h
2462 dd7700    ld      (ix+00h),a
2465 dd23      inc     ix
2467 3c        inc     a
2468 20f8      jr      nz,2462h
246a c38813    jp      1388h
246d 64        ld      h,h
246e c688      add     a,88h
2470 e7        rst     20h
2471 8f        adc     a,a
2472 e0        ret     po

2473 8d        adc     a,l
2474 d4a0c9    call    nc,0c9a0h
2477 7a        ld      a,d
2478 b3        or      e
2479 75        ld      (hl),l
247a ce5b      adc     a,5bh
247c cf        rst     08h
247d 210000    ld      hl,0000h
2480 222ac5    ld      (0c52ah),hl
2483 c38813    jp      1388h
2486 3e80      ld      a,80h
2488 3218c4    ld      (0c418h),a
248b 211ac4    ld      hl,0c41ah
248e cb86      res     0,(hl)
2499 cdd308		dreptunghi	ef80,64,32,128h
24a5 cdd308		dreptunghi	ef28,36,30,0
24ae 0e10      ld      c,10h
24b0 cd8208		liniebmp	e340,34b7			;init mashine
24b3 2113c4    ld      hl,0c413h
24b6 cb56      bit     2,(hl)
24b8 2807      jr      z,24c1h
24ba 2111c4    ld      hl,0c411h
24bd cb56      bit     2,(hl)
24bf 20f2      jr      nz,24b3h
24c1 2112c4    ld      hl,0c412h
24c4 cb56      bit     2,(hl)
24c6 20eb      jr      nz,24b3h
24c8 c31f25    jp      251fh
24cb f3        di      
24cc ed57      ld      a,i
24ce cbff      set     7,a
24d0 ed47      ld      i,a
24d2 0e00      ld      c,00h
24d4 1e00      ld      e,00h
24d6 cd0c25    call    250ch
24d9 0e02      ld      c,02h
24db cd0c25    call    250ch
24de 0e00      ld      c,00h
24e0 cd0c25    call    250ch
24e3 060a      ld      b,0ah
24e5 0e02      ld      c,02h
24e7 1ed2      ld      e,0d2h
24e9 cd0c25    call    250ch
24ec 7b        ld      a,e
24ed fefa      cp      0fah
24ef da8813    jp      c,1388h
24f2 0e00      ld      c,00h
24f4 1eed      ld      e,0edh
24f6 cd0c25    call    250ch
24f9 7b        ld      a,e
24fa fefa      cp      0fah
24fc da8813    jp      c,1388h
24ff 10e4      djnz    24e5h
2501 af        xor     a
2502 32b7c0    ld      (0c0b7h),a
2505 3e01      ld      a,01h
2507 ed47      ld      i,a
2509 c31f25    jp      251fh
250c 76        halt    
250d 7a        ld      a,d
250e ee08      xor     08h
2510 d337      out     (37h),a
2512 57        ld      d,a
2513 1c        inc     e
2514 ca8813    jp      z,1388h
2517 db17      in      a,(17h)
2519 e602      and     02h
251b a9        xor     c
251c 20ee      jr      nz,250ch
251e c9        ret     

251f 21a9c4    ld      hl,0c4a9h
2522 3600      ld      (hl),00h
2524 23        inc     hl
2525 7c        ld      a,h
2526 fec8      cp      0c8h
2528 20f8      jr      nz,2522h
			copy(copyright,c0af)
			copy(copyright,c52a)
2540 210010    ld      hl,1000h
2543 221bc5    ld      (0c51bh),hl
2546 221cc5    ld      (0c51ch),hl
2549 dd2121c5  ld      ix,0c521h
2550 cdeb04    x=10000
2553 dd21d9c4  ld      ix,0c4d9h		;bet initial
255a cdeb04    x=5
255d dd2184c5  ld      ix,0c584h
2564 cdeb04    x=1
2567 dd2187c5  ld      ix,0c587h
256e cdeb04    x=500
2576 3e01      ld      a,01h
257b 2119c4    ld      hl,0c419h
257e cba6      res     4,(hl)
258a dd2194c0  ld      ix,0c094h
258e cdeb04    x=(rnd20+4)*5
25a6 fd2194c0  ld      iy,0c094h
25aa dd21e2c4  ld      ix,0c4e2h
25ae cdb904    x=y
25bb dd2194c0  ld      ix,0c094h
25bf cdeb04    x=(rnd5+4)*100
25d7 fd2194c0  ld      iy,0c094h
25db dd21e5c4  ld      ix,0c4e5h
25df cdb904    x=y
25e2 af        xor     a
25e3 32d8c0    ld      (0c0d8h),a
25e6 328bc5    ld      (0c58bh),a
25e9 32bec0    ld      (0c0beh),a
25ec cd0b53    call    530bh
25ef 3e4e      ld      a,4eh
25f1 328ec5    ld      (0c58eh),a
25f4 3e41      ld      a,41h
25f6 328cc0    ld      (0c08ch),a
25f9 210101    ld      hl,0101h
25fc 2204c0    ld      (0c004h),hl
25ff 21e711    ld      hl,11e7h
2602 2206c0    ld      (0c006h),hl
2605 3ef4      ld      a,0f4h
2607 3218c4    ld      (0c418h),a
260a 211ac4    ld      hl,0c41ah
260d cb86      res     0,(hl)
260f 3e00      ld      a,00h
2611 327cc0    ld      (0c07ch),a
2614 3e01      ld      a,01h
2616 32fdc0    ld      (0c0fdh),a
2622 cdd308		dreptunghi	ef80,64,32,128h
262e cdd308		dreptunghi	ef28,36,30,0
2639 cd8208		liniebmp	e1aa,34c4,16		;all rights reserved
2645 cd8e08		bitmap	e244,34e7,3,16		;chenar
2650 cd8208		liniebmp	e2c6,3502,24		;page
2653 3afdc0    ld      a,(0c0fdh)
2656 c630      add     a,30h
2658 32d0e2    ld      (0e2d0h),a
265b d631      sub     31h
265d 212c30    ld      hl,302ch
2660 87        add     a,a
2661 5f        ld      e,a
2662 1600      ld      d,00h
2664 19        add     hl,de
2665 5e        ld      e,(hl)
2666 23        inc     hl
2667 56        ld      d,(hl)
2668 d5        push    de
2669 dde1      pop     ix
266b cd212c    call    2c21h
266e 210010    ld      hl,1000h
2671 226fc0    ld      (0c06fh),hl
2674 2113c4    ld      hl,0c413h
2677 cb56      bit     2,(hl)
2679 2807      jr      z,2682h
267b 3afdc0    ld      a,(0c0fdh)
267e fe01      cp      01h
2680 280e      jr      z,2690h
2682 0601      ld      b,01h
2684 11d12a    ld      de,2ad1h		;clear page
2687 cd6a2a    call    2a6ah
268a 210011    ld      hl,1100h
268d 226fc0    ld      (0c06fh),hl
2690 0603      ld      b,03h
2692 11fb2a    ld      de,2afbh		;next page
2695 cd6a2a    call    2a6ah
2698 00        nop     
2699
			a=rnd100
269e 2111c4    ld      hl,0c411h
26a1 cb56      bit     2,(hl)
26a3 2808      jr      z,26adh
26a5 2113c4    ld      hl,0c413h
26a8 cb56      bit     2,(hl)
26aa c20b28    jp      nz,280bh
26ad 2111c4    ld      hl,0c411h
26b0 cb4e      bit     1,(hl)
26b2 2011      jr      nz,26c5h
26b4 2113c4    ld      hl,0c413h
26b7 cb56      bit     2,(hl)
26b9 2807      jr      z,26c2h
26bb 3afdc0    ld      a,(0c0fdh)
26be fe01      cp      01h
26c0 2803      jr      z,26c5h
26c2 cd1a2e    call    2e1ah
26c5 2116c4    ld      hl,0c416h
26c8 cb56      bit     2,(hl)
26ca 20cd      jr      nz,2699h
26cc 2116c4    ld      hl,0c416h
26cf cb56      bit     2,(hl)
26d1 28f9      jr      z,26cch
26d3 3afdc0    ld      a,(0c0fdh)
26d6 3c        inc     a
26d7 32fdc0    ld      (0c0fdh),a
26da 2113c4    ld      hl,0c413h
26dd cb56      bit     2,(hl)
26df 280d      jr      z,26eeh
26e1 fe03      cp      03h
26e3 da1926    jp      c,2619h
26e6 3e01      ld      a,01h
26e8 32fdc0    ld      (0c0fdh),a
26eb c31926    jp      2619h
26ee fe06      cp      06h
26f0 da1926    jp      c,2619h
26f3 3a9bc5    ld      a,(0c59bh)
26f6 b7        or      a
26f7 2014      jr      nz,270dh
26f9 cd8120    call    2081h
26fc 3e4e      ld      a,4eh
26fe 328ec5    ld      (0c58eh),a
2701 0eff      ld      c,0ffh
			a=rnd255+1
2707 329bc5    ld      (0c59bh),a
270a cdac20    call    20ach
2716 cdd308		dreptunghi	ef80,64,32,128h
2722 cdd308		dreptunghi	ef28,36,30,0
272d cd8208		liniebmp	e1aa,34c4,16		;all rights reserved
2739 cd8e08		bitmap	e244,34e7,3,16		;chenar
2744 cd8208		liniebmp	e2c6,3502,24		;page
2747 3e36      ld      a,36h
2749 32d0e2    ld      (0e2d0h),a
2755 cd8e08		bitmap	e434,3487,2,16		;minimum bet
2758 cd5d28    call    285dh
275b cd9628    call    2896h
275e 0602      ld      b,02h
2760 11252b    ld      de,2b25h		;select funct
2763 cd6b2a    call    2a6bh
2766 0603      ld      b,03h
2768 11fb2a    ld      de,2afbh		;next page
276b cd6b2a    call    2a6bh
276e cd242f    call    2f24h
2771 210015    ld      hl,1500h
2774 226fc0    ld      (0c06fh),hl
2777 0e20      ld      c,20h
2779 1848      jr      27c3h
277b 2113c4    ld      hl,0c413h
277e cb56      bit     2,(hl)
2780 c20b28    jp      nz,280bh
2783 2115c4    ld      hl,0c415h
2786 cb66      bit     4,(hl)
2788 282e      jr      z,27b8h
278a 2116c4    ld      hl,0c416h
278d cb56      bit     2,(hl)
278f 286b      jr      z,27fch
2791 2111c4    ld      hl,0c411h
2794 cb4e      bit     1,(hl)
2796 20e3      jr      nz,277bh
2798 f5        push    af
2799 21ae27    ld      hl,27aeh
279c e5        push    hl
279d dd217b34  ld      ix,347bh
27a1 87        add     a,a
27a2 5f        ld      e,a
27a3 1600      ld      d,00h
27a5 dd19      add     ix,de
27a7 dd6e00    ld      l,(ix+00h)
27aa dd6601    ld      h,(ix+01h)
27ad e9        jp      (hl)
27ae 2111c4    ld      hl,0c411h
27b1 cb4e      bit     1,(hl)
27b3 28f9      jr      z,27aeh
27b5 f1        pop     af
27b6 18c3      jr      277bh
27b8 0e10      ld      c,10h
27ba cdea27    call    27eah
27bd 0e03      ld      c,03h
27bf 3c        inc     a
27c0 b9        cp      c
27c1 3802      jr      c,27c5h
27c3 3e01      ld      a,01h
27c5 0e0c      ld      c,0ch
27c7 cdea27    call    27eah
27ca f5        push    af
27cb dd217f34  ld      ix,347fh		;minimum bet
27cf 87        add     a,a
27d0 5f        ld      e,a
27d1 1600      ld      d,00h
27d3 dd19      add     ix,de
27d5 dd5e00    ld      e,(ix+00h)
27d8 dd5601    ld      d,(ix+01h)
27db 0601      ld      b,01h
27dd cd6b2a    call    2a6bh
27e0 f1        pop     af
27e1 2115c4    ld      hl,0c415h
27e4 cb66      bit     4,(hl)
27e6 28f9      jr      z,27e1h
27e8 1891      jr      277bh
27ea 47        ld      b,a
27eb 118000    ld      de,0080h
27ee 21b1e3    ld      hl,0e3b1h
27f1 19        add     hl,de
27f2 10fd      djnz    27f1h
27f4 061b      ld      b,1bh
27f6 71        ld      (hl),c
27f7 23        inc     hl
27f8 23        inc     hl
27f9 10fb      djnz    27f6h
27fb c9        ret     

27fc 2116c4    ld      hl,0c416h
27ff cb56      bit     2,(hl)
2801 28f9      jr      z,27fch
2803 3e01      ld      a,01h
2805 32fdc0    ld      (0c0fdh),a
2808 c31926    jp      2619h
280b fd21a9c0  ld      iy,0c0a9h
280f dd2146c4  ld      ix,0c446h
2813 cd1a04    x=x+y
2816 dd2161c4  ld      ix,0c461h
281a cd1a04    x=x+y
281d dd2149c4  ld      ix,0c449h
2821 cd1a04    x=x+y
2824 dd2164c4  ld      ix,0c464h
2828 cd1a04    x=x+y
282b dd21acc0  ld      ix,0c0ach
282f cd5a04    x=0
2832 dd21a9c0  ld      ix,0c0a9h
2836 cd5a04    x=0
2839 c38813    jp      1388h
283c 210000    ld      hl,0000h
283f 2285c5    ld      (0c585h),hl
2842 3a84c5    ld      a,(0c584h)
2845 3c        inc     a
2846 fe06      cp      06h
2848 3810      jr      c,285ah
284a c604      add     a,04h
284c 27        daa     
284d fe11      cp      11h
284f 3809      jr      c,285ah
2851 c605      add     a,05h
2853 27        daa     
2854 fe51      cp      51h
2856 3802      jr      c,285ah
2858 3e01      ld      a,01h
285a 3284c5    ld      (0c584h),a
285d 3a84c5    ld      a,(0c584h)
2860 f5        push    af
2861 cb3f      srl     a
2863 cb3f      srl     a
2865 cb3f      srl     a
2867 cb3f      srl     a
2869 e60f      and     0fh
286b c630      add     a,30h
286d fe30      cp      30h
286f 2002      jr      nz,2873h
2871 3e2e      ld      a,2eh
2873 325ee4    ld      (0e45eh),a
2876 f1        pop     af
2877 e60f      and     0fh
2879 c630      add     a,30h
287b 3260e4    ld      (0e460h),a
287e c9        ret     

287f 3e00      ld      a,00h
2881 3287c5    ld      (0c587h),a
2884 3a88c5    ld      a,(0c588h)
2887 3c        inc     a
2888 fe06      cp      06h
288a 3807      jr      c,2893h
288c 3e50      ld      a,50h
288e 3287c5    ld      (0c587h),a
2891 3e00      ld      a,00h
2893 3288c5    ld      (0c588h),a
2896 3a88c5    ld      a,(0c588h)
2899 e60f      and     0fh
289b c630      add     a,30h
289d fe30      cp      30h
289f 2002      jr      nz,28a3h
28a1 3e2e      ld      a,2eh
28a3 32dce4    ld      (0e4dch),a
28a6 3a87c5    ld      a,(0c587h)
28a9 f5        push    af
28aa cb3f      srl     a
28ac cb3f      srl     a
28ae cb3f      srl     a
28b0 cb3f      srl     a
28b2 e60f      and     0fh
28b4 c630      add     a,30h
28b6 32dee4    ld      (0e4deh),a
28b9 f1        pop     af
28ba e60f      and     0fh
28bc c630      add     a,30h
28be 32e0e4    ld      (0e4e0h),a
28c1 c9        ret     

28c2 dd2121c5  ld      ix,0c521h
28c9 cdeb04    x=10000
28da dd21a9c0  ld      ix,0c0a9h
28de cd1a04    x=x+100
			if x>5000 then x=0
2902 fd21a9c0  ld      iy,0c0a9h
2906 dd2194c0  ld      ix,0c094h
290a cdb904    x=y
291b dd2194c0  ld      ix,0c094h
2922 21dae4    ld      hl,0e4dah
2925 c3982e    jp      2e98h
2928 2111c4    ld      hl,0c411h
292b cb4e      bit     1,(hl)
292d 28f9      jr      z,2928h
292f 0603      ld      b,03h
2931 11cd2b    ld      de,2bcdh	;stop hopper
2934 cd6a2a    call    2a6ah
2937 10fb      djnz    2934h
2939 dd2194c0  ld      ix,0c094h
2940 cdeb04    x=30000
2943 2100c4    ld      hl,0c400h
2946 cbe6      set     4,(hl)
2948 210500    sleep	5
294e 21db29    ld      hl,29dbh
2951 2290c0    ld      (0c090h),hl
2954 3e45      ld      a,45h
2956 328cc0    ld      (0c08ch),a
2959 cdb529    call    29b5h
295c 2111c4    ld      hl,0c411h
295f cb4e      bit     1,(hl)
2961 2846      jr      z,29a9h
2963 2115c4    ld      hl,0c415h
2966 cb66      bit     4,(hl)
2968 283f      jr      z,29a9h
296a 2116c4    ld      hl,0c416h
296d cb56      bit     2,(hl)
296f 2838      jr      z,29a9h
2971 3a8cc0    ld      a,(0c08ch)
2974 fe41      cp      41h
2976 20e1      jr      nz,2959h
2978 cdb529    call    29b5h
297b 2111c4    ld      hl,0c411h
297e cb4e      bit     1,(hl)
2980 28f6      jr      z,2978h
2982 2115c4    ld      hl,0c415h
2985 cb66      bit     4,(hl)
2987 28ef      jr      z,2978h
2989 2116c4    ld      hl,0c416h
298c cb56      bit     2,(hl)
298e 28e8      jr      z,2978h
2990 0601      ld      b,01h
2992 11a32b    ld      de,2ba3h		;start hopper
2995 cd6b2a    call    2a6bh
2998 0602      ld      b,02h
299a 11252b    ld      de,2b25h		;select funct
299d cd6b2a    call    2a6bh
29a0 0603      ld      b,03h
29a2 11fb2a    ld      de,2afbh		;next	page
29a5 cd6b2a    call    2a6bh
29a8 c9        ret     

29a9 dd2194c0  ld      ix,0c094h
29b0 cdeb04    x=1
29b3 18a4      jr      2959h
29b5 fd21acc0  ld      iy,0c0ach
29b9 dd2197c0  ld      ix,0c097h
29bd cdb904    x=y
29d5 215ae5    ld      hl,0e55ah
29d8 c3982e    jp      2e98h
29db 02        ld      (bc),a
29dc 94        sub     h
29dd c0        ret     nz

29de ff        rst     38h
29df ff        rst     38h
29e0 ac        xor     h
29e1 c0        ret     nz

29e2 01003e    ld      bc,3e00h
29e5 b4        or      h
29e6 3218c4    ld      (0c418h),a
29e9 211ac4    ld      hl,0c41ah
29ec cb86      res     0,(hl)
29ee 3a7dc0    ld      a,(0c07dh)
29f1 327cc0    ld      (0c07ch),a
29f4 3e52      ld      a,52h
29f6 3281c0    ld      (0c081h),a
29f9 cdd45b    call    5bd4h
29fc cdce5b    call    5bceh
29ff 210000    ld      hl,0000h
2a02 226fc0    ld      (0c06fh),hl
2a0e cdd308		dreptunghi	ef80,64,32,128h
2a1a cdd308		dreptunghi	ef28,36,30,0
2a23 0e10      ld      c,10h
2a25 cd8208		liniebmp	e1aa,34c4
2a28 2134e4    ld      hl,0e434h
2a2b 110935    ld      de,3509h
2a2e 0e14      ld      c,14h
2a30 cd8208		liniebmp	e434,3509
2a33 fd21a9c0  ld      iy,0c0a9h
2a37 dd2194c0  ld      ix,0c094h
2a3b cdb904    x=y
2a53 215ae4    ld      hl,0e45ah
2a56 cd982e    call    2e98h
2a59 2117c4    ld      hl,0c417h
2a5c cb66      bit     4,(hl)
2a5e 28d3      jr      z,2a33h
2a60 dd21a9c0  ld      ix,0c0a9h
2a64 cd5a04    x=0
2a67 c38813    jp      1388h
2a6a cf        rst     08h
2a6b d5		bitmap	eb94+(24*b),2a89,8,0	;chenar carte
			bitmap	hl-892,de,6,6ch
			ret


2c21 cf        rst     08h
2c22 dd4e00    ld      c,(ix+00h)
2c25 dd4601    ld      b,(ix+01h)
2c28 dd23      inc     ix
2c2a dd23      inc     ix
2c2c 21b4e3    ld      hl,0e3b4h
2c2f 79        ld      a,c
2c30 a7        and     a
2c31 112200    ld      de,0022h
2c34 cabf2c    jp      z,2cbfh
2c37 c5        push    bc
2c38 dde5      push    ix
2c3a dd5e00    ld      e,(ix+00h)
2c3d dd5601    ld      d,(ix+01h)
2c40 0e10      ld      c,10h
2c42 cd8108    liniebmp	e3b4,de
2c45 112000    ld      de,0020h
2c48 19        add     hl,de
2c49 dd5e02    ld      e,(ix+02h)
2c4c dd5603    ld      d,(ix+03h)
2c4f d5        push    de
2c50 dd5e04    ld      e,(ix+04h)
2c53 dd5605    ld      d,(ix+05h)
2c56 d5        push    de
2c57 fde1      pop     iy
2c59 dde1      pop     ix
2c5b cdcc04    cmp	x,y
2c5e 3e2b      ld      a,2bh
2c60 fde5      push    iy
2c62 dde5      push    ix
2c64 300a      jr      nc,2c70h
2c66 3e2d      ld      a,2dh
2c68 dde1      pop     ix
2c6a fde1      pop     iy
2c6c dde5      push    ix
2c6e fde5      push    iy
2c70 77        ld      (hl),a
2c71 23        inc     hl
2c72 23        inc     hl
2c73 eb        ex      de,hl
2c74 dd2194c0  ld      ix,0c094h
2c78 fde1      pop     iy
2c7a cdb804    x=y
2c7d fde1      pop     iy
2c7f cd3904    x=x-y
2c82 dde1      pop     ix
2c84 dde5      push    ix
			hl=ix[67]
2c8c dd2197c0  ld      ix,0c097h
2c90 cdea04		x=hl
2c93 dd2194c0  ld      ix,0c094h
2c97 fd2197c0  ld      iy,0c097h
2c9b cd6704    call    0467h
2c9e fd2194c0  ld      iy,0c094h
2ca2 d5        push    de
2ca3 dde1      pop     ix
2ca5 eb        ex      de,hl
2ca9 cd9d0		ascii	8,16
2cac 115e00    ld      de,005eh
2caf 19        add     hl,de
2cb0 110800    ld      de,0008h
2cb3 dde1      pop     ix
2cb5 dd19      add     ix,de
2cb7 c1        pop     bc
2cb8 0d        dec     c
2cb9 c2372c    jp      nz,2c37h
2cbc 112201    ld      de,0122h
2cbf 19        add     hl,de
2cc0 0e00      ld      c,00h
2cc2 dde5      push    ix
2cc4 e5        push    hl
2cc5 dd5e02    ld      e,(ix+02h)
2cc8 dd5603    ld      d,(ix+03h)
2ccb dd6e04    ld      l,(ix+04h)
2cce dd6605    ld      h,(ix+05h)
2cd1 d5        push    de
2cd2 fde1      pop     iy
2cd4 dd2194c0  ld      ix,0c094h
2cd8 cdb804    x=y
2cdb dd2197c0  ld      ix,0c097h
2cdf cdea04    call    04eah
2ce2 dd2194c0  ld      ix,0c094h
2ce6 fd2197c0  ld      iy,0c097h
2cea cd6704    call    0467h
2ced fd2194c0  ld      iy,0c094h
2cf1 dde1      pop     ix
2cf6 cd9d08		ascii	8,c
2cf9 dde5      push    ix
2cfb e1        pop     hl
2cfc 11deff    ld      de,0ffdeh
2cff 19        add     hl,de
2d00 dde1      pop     ix
2d08 cd8108    liniebmp	hl,(ix[01])
2d0b 3e00      ld      a,00h
2d0d b9        cp      c
2d0e 2002      jr      nz,2d12h
2d10 3e14      ld      a,14h
2d12 4f        ld      c,a
2d13 11a200    ld      de,00a2h
2d16 19        add     hl,de
2d17 110600    ld      de,0006h
2d1a dd19      add     ix,de
2d1c 10a4      djnz    2cc2h
2d1e 3afdc0    ld      a,(0c0fdh)
2d21 fe01      cp      01h
2d23 c0        ret     nz

2d24 060b      ld      b,0bh
2d26 11ace3    ld      de,0e3ach
2d29 21b4e3    ld      hl,0e3b4h
2d2c c5        push    bc
2d2d e5        push    hl
2d2e d5        push    de
2d2f 013400    ld      bc,0034h
2d32 edb0      ldir    
2d34 018000    ld      bc,0080h
2d37 e1        pop     hl
2d38 09        add     hl,bc
2d39 eb        ex      de,hl
2d3a e1        pop     hl
2d3b 09        add     hl,bc
2d3c c1        pop     bc
2d3d 10ed      djnz    2d2ch
2d48 cd8e08		bitmap	e4dc,3130,9,0		;xxx.x/100.0%
2d4b 0606      ld      b,06h
2d4d dd21022e  ld      ix,2e02h
2d51 dd6e02    ld      l,(ix+02h)
2d54 dd6603    ld      h,(ix+03h)
2d57 c5        push    bc
2d58 dde5      push    ix
2d5a e5        push    hl
2d5b fde1      pop     iy
2d5d dd2197c0  ld      ix,0c097h
			x=y
2d64 fd2122c4  ld      iy,0c422h
2d68 dd219ac0  ld      ix,0c09ah
			x=y
2d6f 0603      ld      b,03h
2d71 3a99c0    ld      a,(0c099h)
2d74 e6f0      and     0f0h
2d76 201b      jr      nz,2d93h
2d87 dd2197c0  ld      ix,0c097h
2d8b cd2c05    x=x*10
2d8f 10e0      djnz    2d71h
2d91 1819      jr      2dach
2d93 c5        push    bc
2da2 dd219ac0  ld      ix,0c09ah
2da6 cd6804    x=x/10
2da9 c1        pop     bc
2daa 10e7      djnz    2d93h
2dac dd219ac0  ld      ix,0c09ah
2db0 cde304    cmp	x,0
2db3 282f      jr      z,2de4h
2db5 fd219ac0  ld      iy,0c09ah
2db9 dd2197c0  ld      ix,0c097h
2dbd cd6804    x=x/y
2dc0 dde1      pop     ix
2dc2 dde5      push    ix
2dc4 dd6e00    ld      l,(ix+00h)
2dc7 dd6601    ld      h,(ix+01h)
2dca 3a98c0    ld      a,(0c098h)
2dcd cdf22d    call    2df2h
2dd0 3a98c0    ld      a,(0c098h)
2dd3 cdfa2d    call    2dfah
2dd6 3a97c0    ld      a,(0c097h)
2dd9 cdf22d    call    2df2h
2ddc 2c        inc     l
2ddd 2c        inc     l
2dde 3a97c0    ld      a,(0c097h)
2de1 cdfa2d    call    2dfah
2de4 dde1      pop     ix
2de6 c1        pop     bc
2de7 110400    ld      de,0004h
2dea dd19      add     ix,de
2dec 1001      djnz    2defh
2dee c9        ret     

2def c3512d    jp      2d51h
2df2 cb3f      srl     a
2df4 cb3f      srl     a
2df6 cb3f      srl     a
2df8 cb3f      srl     a
2dfa e60f      and     0fh
2dfc c630      add     a,30h
2dfe 77        ld      (hl),a
2dff 2c        inc     l
2e00 2c        inc     l
2e01 c9        ret     

2e02 e0        ret     po

2e03 e425c4    call    po,0c425h
2e06 60        ld      h,b
2e07 e5        push    hl
2e08 28c4      jr      z,2dceh
2e0a e0        ret     po

2e0b e5        push    hl
2e0c 1c        inc     e
2e0d c4e0e6    call    nz,0e6e0h
2e10 2b        dec     hl
2e11 c460e7    call    nz,0e760h
2e14 2ec4      ld      l,0c4h
2e16 e0        ret     po

2e17 e7        rst     20h
2e18 1f        rra     
2e19 c4cf3a    call    nz,3acfh
2e1c fdc0      ret     nz

2e1e fe01      cp      01h
2e20 2042      jr      nz,2e64h
2e22 dde5      push    ix
2e24 cd8120    call    2081h
2e27 3e4e      ld      a,4eh
2e29 328ec5    ld      (0c58eh),a
2e2c 210000    ld      hl,0000h
2e2f 2295c5    ld      (0c595h),hl
2e32 2297c5    ld      (0c597h),hl
2e35 2299c5    ld      (0c599h),hl
2e38 3a91c5    ld      a,(0c591h)
2e3b cb7f      bit     7,a
2e3d 2820      jr      z,2e5fh
2e3f dd218fc5  ld      ix,0c58fh
2e43 ddcb023e  srl     (ix+02h)
2e47 ddcb011e  rr      (ix+01h)
2e4b ddcb001e  rr      (ix+00h)
2e4f dd2192c5  ld      ix,0c592h
2e53 ddcb023e  srl     (ix+02h)
2e57 ddcb011e  rr      (ix+01h)
2e5b ddcb001e  rr      (ix+00h)
2e5f cdac20    call    20ach
2e62 dde1      pop     ix
2e64 dde5      push    ix
2e66 dde5      push    ix
2e68 fde1      pop     iy
2e6a fd4600    ld      b,(iy+00h)
2e6d fd4e01    ld      c,(iy+01h)
2e70 fd23      inc     iy
2e72 fd23      inc     iy
2e74 78        ld      a,b
2e75 a7        and     a
2e76 2807      jr      z,2e7fh
2e78 110800    ld      de,0008h
2e7b fd19      add     iy,de
2e7d 10fc      djnz    2e7bh
2e7f 41        ld      b,c
2e80 110600    ld      de,0006h
2e83 fd6e02    ld      l,(iy+02h)
2e86 fd6603    ld      h,(iy+03h)
2e89 e5        push    hl
2e8a dde1      pop     ix
2e8c cd5904    x=0
2e8f fd19      add     iy,de
2e91 10f0      djnz    2e83h
2e93 dde1      pop     ix
2e95 c3222c    jp      2c22h
2e98 1603      ld      d,03h
2e9a dd5e01    ld      e,(ix+01h)
2e9d cda32e    call    2ea3h
2ea0 dd5e00    ld      e,(ix+00h)
2ea3 7b        ld      a,e
2ea4 1f        rra     
2ea5 1f        rra     
2ea6 1f        rra     
2ea7 1f        rra     
2ea8 cdac2e    call    2each
2eab 7b        ld      a,e
2eac e60f      and     0fh
2eae 2806      jr      z,2eb6h
2eb0 c630      add     a,30h
2eb2 16ff      ld      d,0ffh
2eb4 180a      jr      2ec0h
2eb6 15        dec     d
2eb7 7a        ld      a,d
2eb8 e680      and     80h
2eba 3e30      ld      a,30h
2ebc 2002      jr      nz,2ec0h
2ebe 3e2e      ld      a,2eh
2ec0 77        ld      (hl),a
2ec1 23        inc     hl
2ec2 23        inc     hl
2ec3 c9        ret     

2ec4 dde5      push    ix
2ec6 dd219ac0  ld      ix,0c09ah
			x=y
2ecd fde1      pop     iy
2ecf dd2197c0  ld      ix,0c097h
2ed3 cdb904    x=y
2ed6 fd219ac0  ld      iy,0c09ah
2eda dd7e02    ld      a,(ix+02h)
2edd b7        or      a
2ede 2818      jr      z,2ef8h
2ee0 fd5e01    ld      e,(iy+01h)
2ee3 fd7300    ld      (iy+00h),e
2ee6 fd5602    ld      d,(iy+02h)
2ee9 fd7201    ld      (iy+01h),d
2eec fd360200  ld      (iy+02h),00h
2ef0 dd6602    ld      h,(ix+02h)
2ef3 dd6e01    ld      l,(ix+01h)
2ef6 1816      jr      2f0eh
2ef8 dd6601    ld      h,(ix+01h)
2efb dd7402    ld      (ix+02h),h
2efe dd6e00    ld      l,(ix+00h)
2f01 dd7501    ld      (ix+01h),l
2f04 dd360000  ld      (ix+00h),00h
2f08 fd5601    ld      d,(iy+01h)
2f0b fd5e00    ld      e,(iy+00h)
2f0e 7a        ld      a,d
2f0f b3        or      e
2f10 2805      jr      z,2f17h
2f12 7c        ld      a,h
2f13 b5        or      l
2f14 c26704    jp      nz,0467h
2f17 3eaa      ld      a,0aah
2f19 dd7700    ld      (ix+00h),a
2f1c dd7701    ld      (ix+01h),a
2f1f dd7702    ld      (ix+02h),a
2f22 c9        ret     

2f23 cf        rst     08h
2f24 cd8120    call    2081h
2f27 3a9bc5    ld      a,(0c59bh)
2f2a e603      and     03h
2f2c 4f        ld      c,a
2f2d 0600      ld      b,00h
2f2f c5        push    bc
2f30 c5        push    bc
2f31 2e00      ld      l,00h
2f33 78        ld      a,b
2f34 87        add     a,a
2f35 87        add     a,a
2f36 47        ld      b,a
2f37 78        ld      a,b
2f38 ee1b      xor     1bh
2f3a 67        ld      h,a
2f3b cb3f      srl     a
2f3d cb3f      srl     a
2f3f cb3f      srl     a
2f41 5f        ld      e,a
2f42 1600      ld      d,00h
2f44 dd218fc5  ld      ix,0c58fh
2f48 dd19      add     ix,de
2f4a 7c        ld      a,h
2f4b e607      and     07h
2f4d 5f        ld      e,a
2f4e fd212430  ld      iy,3024h
2f52 fd19      add     iy,de
2f54 dd7e00    ld      a,(ix+00h)
2f57 fda600    and     (iy+00h)
2f5a 2802      jr      z,2f5eh
2f5c cbe5      set     4,l
2f5e cb3d      srl     l
2f60 04        inc     b
2f61 78        ld      a,b
2f62 e603      and     03h
2f64 20d1      jr      nz,2f37h
2f66 c1        pop     bc
2f67 78        ld      a,b
2f68 e60f      and     0fh
2f6a ad        xor     l
2f6b 6f        ld      l,a
2f6c 79        ld      a,c
2f6d d605      sub     05h
2f6f 30fc      jr      nc,2f6dh
2f71 c605      add     a,05h
2f73 67        ld      h,a
2f74 79        ld      a,c
2f75 e607      and     07h
2f77 5f        ld      e,a
2f78 fd212430  ld      iy,3024h
2f7c fd19      add     iy,de
2f7e dd219bc5  ld      ix,0c59bh
2f82 7d        ld      a,l
2f83 87        add     a,a
2f84 57        ld      d,a
2f85 7c        ld      a,h
2f86 fe00      cp      00h
2f88 2006      jr      nz,2f90h
2f8a 7a        ld      a,d
2f8b 5f        ld      e,a
2f8c 3e01      ld      a,01h
2f8e 1836      jr      2fc6h
2f90 fe01      cp      01h
2f92 200d      jr      nz,2fa1h
2f94 7a        ld      a,d
2f95 e61c      and     1ch
2f97 57        ld      d,a
2f98 7d        ld      a,l
2f99 e601      and     01h
2f9b b2        or      d
2f9c 5f        ld      e,a
2f9d 3e02      ld      a,02h
2f9f 1825      jr      2fc6h
2fa1 fe02      cp      02h
2fa3 200d      jr      nz,2fb2h
2fa5 7a        ld      a,d
2fa6 e618      and     18h
2fa8 57        ld      d,a
2fa9 7d        ld      a,l
2faa e603      and     03h
2fac b2        or      d
2fad 5f        ld      e,a
2fae 3e04      ld      a,04h
2fb0 1814      jr      2fc6h
2fb2 fe03      cp      03h
2fb4 200d      jr      nz,2fc3h
2fb6 7a        ld      a,d
2fb7 e610      and     10h
2fb9 57        ld      d,a
2fba 7d        ld      a,l
2fbb e607      and     07h
2fbd b2        or      d
2fbe 5f        ld      e,a
2fbf 3e08      ld      a,08h
2fc1 1803      jr      2fc6h
2fc3 5d        ld      e,l
2fc4 3e10      ld      a,10h
2fc6 57        ld      d,a
2fc7 dd7e00    ld      a,(ix+00h)
2fca fda600    and     (iy+00h)
2fcd 2803      jr      z,2fd2h
2fcf 7a        ld      a,d
2fd0 b3        or      e
2fd1 5f        ld      e,a
2fd2 c1        pop     bc
2fd3 78        ld      a,b
2fd4 b7        or      a
2fd5 2805      jr      z,2fdch
2fd7 3a97c0    ld      a,(0c097h)
2fda ab        xor     e
2fdb 5f        ld      e,a
2fdc 7b        ld      a,e
2fdd 3297c0    ld      (0c097h),a
2fe0 fe0a      cp      0ah
2fe2 3004      jr      nc,2fe8h
2fe4 c630      add     a,30h
2fe6 1802      jr      2feah
2fe8 c637      add     a,37h
2fea 6f        ld      l,a
2feb 78        ld      a,b
2fec dd21b0e8  ld      ix,0e8b0h
2ff0 87        add     a,a
2ff1 5f        ld      e,a
2ff2 1600      ld      d,00h
2ff4 dd19      add     ix,de
2ff6 78        ld      a,b
2ff7 cb3f      srl     a
2ff9 cb3f      srl     a
2ffb cb3f      srl     a
2ffd 87        add     a,a
2ffe 5f        ld      e,a
2fff dd19      add     ix,de
3001 dd7500    ld      (ix+00h),l
3004 7d        ld      a,l
3005 2e14      ld      l,14h
3007 fe41      cp      41h
3009 3802      jr      c,300dh
300b 2e00      ld      l,00h
300d dd7501    ld      (ix+01h),l
3010 04        inc     b
3011 0c        inc     c
3012 78        ld      a,b
3013 fe18      cp      18h
3015 da2f2f    jp      c,2f2fh
301e 0e10      ld      c,10h
3020 cd8208		liniebmp	ea2e,6411
3023 c9        ret     

3024 010204    ld      bc,0402h
3027 08        ex      af,af'
3028 1020      djnz    304ah
302a 40        ld      b,b
302b 80        add     a,b
302c 3630      ld      (hl),30h
302e 83        add     a,e
302f 318332    ld      sp,3283h
3032 e7        rst     20h
3033 321b34    ld      (341bh),a
3036 00        nop     
3037 0b        dec     bc
3038 7a        ld      a,d
3039 309a      jr      nc,2fd5h
303b c0        ret     nz

303c 010097    ld      bc,9700h
303f 309a      jr      nc,2fdbh
3041 c0        ret     nz

3042 0100b2    ld      bc,0b200h
3045 3025      jr      nc,306ch
3047 c40100    call    nz,0001h
304a c43028    call    nz,2830h
304d c40100    call    nz,0001h
3050 d630      sub     30h
3052 1c        inc     e
3053 c40100    call    nz,0001h
3056 97        sub     a
3057 309a      jr      nc,2ff3h
3059 c0        ret     nz

305a 0100e8    ld      bc,0e800h
305d 302b      jr      nc,308ah
305f c40100    call    nz,0001h
3062 fa302e    jp      m,2e30h
3065 c40100    call    nz,0001h
3068 0c        inc     c
3069 311fc4    ld      sp,0c41fh
306c 010097    ld      bc,9700h
306f 309a      jr      nc,300bh
3071 c0        ret     nz

3072 01001e    ld      bc,1e00h
3075 3122c4    ld      sp,0c422h
3078 01002d    ld      bc,2d00h
307b 2d        dec     l
307c 2d        dec     l
307d 2d        dec     l
307e 2d        dec     l
307f 2041      jr      nz,30c2h
3081 204e      jr      nz,30d1h
3083 2041      jr      nz,30c6h
3085 204c      jr      nz,30d3h
3087 2059      jr      nz,30e2h
3089 2053      jr      nz,30deh
308b 2049      jr      nz,30d6h
308d 2053      jr      nz,30e2h
308f 202d      jr      nz,30beh
3091 2d        dec     l
3092 2d        dec     l
3093 2d        dec     l
3094 2d        dec     l
3095 2d        dec     l
3096 24        inc     h
3097 2020      jr      nz,30b9h
3099 2020      jr      nz,30bbh
309b 2020      jr      nz,30bdh
309d 2020      jr      nz,30bfh
309f 2020      jr      nz,30c1h
30a1 2020      jr      nz,30c3h
30a3 2020      jr      nz,30c5h
30a5 2020      jr      nz,30c7h
30a7 2020      jr      nz,30c9h
30a9 2020      jr      nz,30cbh
30ab 2020      jr      nz,30cdh
30ad 2020      jr      nz,30cfh
30af 2020      jr      nz,30d1h
30b1 24        inc     h
30b2 57        ld      d,a
30b3 49        ld      c,c
30b4 4e        ld      c,(hl)
30b5 2043      jr      nz,30fah
30b7 48        ld      c,b
30b8 41        ld      b,c
30b9 4e        ld      c,(hl)
30ba 43        ld      b,e
30bb 45        ld      b,l
30bc 2e2e      ld      l,2eh
30be 2e2e      ld      l,2eh
30c0 2e2e      ld      l,2eh
30c2 2e24      ld      l,24h
30c4 57        ld      d,a
30c5 49        ld      c,c
30c6 4e        ld      c,(hl)
30c7 2053      jr      nz,311ch
30c9 4b        ld      c,e
30ca 49        ld      c,c
30cb 4c        ld      c,h
30cc 4c        ld      c,h
30cd 2e2e      ld      l,2eh
30cf 2e2e      ld      l,2eh
30d1 2e2e      ld      l,2eh
30d3 2e2e      ld      l,2eh
30d5 24        inc     h
30d6 45        ld      b,l
30d7 4e        ld      c,(hl)
30d8 54        ld      d,h
30d9 52        ld      d,d
30da 59        ld      e,c
30db 2057      jr      nz,3134h
30dd 49        ld      c,c
30de 4e        ld      c,(hl)
30df 2e2e      ld      l,2eh
30e1 2e2e      ld      l,2eh
30e3 2e2e      ld      l,2eh
30e5 2e2e      ld      l,2eh
30e7 24        inc     h
30e8 45        ld      b,l
30e9 58        ld      e,b
30ea 49        ld      c,c
30eb 54        ld      d,h
30ec 2043      jr      nz,3131h
30ee 48        ld      c,b
30ef 41        ld      b,c
30f0 4e        ld      c,(hl)
30f1 43        ld      b,e
30f2 45        ld      b,l
30f3 2e2e      ld      l,2eh
30f5 2e2e      ld      l,2eh
30f7 2e2e      ld      l,2eh
30f9 24        inc     h
30fa 45        ld      b,l
30fb 58        ld      e,b
30fc 49        ld      c,c
30fd 54        ld      d,h
30fe 2053      jr      nz,3153h
3100 4b        ld      c,e
3101 49        ld      c,c
3102 4c        ld      c,h
3103 4c        ld      c,h
3104 2e2e      ld      l,2eh
3106 2e2e      ld      l,2eh
3108 2e2e      ld      l,2eh
310a 2e24      ld      l,24h
310c 45        ld      b,l
310d 58        ld      e,b
310e 49        ld      c,c
310f 54        ld      d,h
3110 2057      jr      nz,3169h
3112 49        ld      c,c
3113 4e        ld      c,(hl)
3114 2e2e      ld      l,2eh
3116 2e2e      ld      l,2eh
3118 2e2e      ld      l,2eh
311a 2e2e      ld      l,2eh
311c 2e24      ld      l,24h
311e 54        ld      d,h
311f 4f        ld      c,a
3120 54        ld      d,h
3121 41        ld      b,c
3122 4c        ld      c,h
3123 2042      jr      nz,3167h
3125 45        ld      b,l
3126 54        ld      d,h
3127 202e      jr      nz,3157h
3129 2e2e      ld      l,2eh
312b 2e2e      ld      l,2eh
312d 2e2e      ld      l,2eh
312f 24        inc     h
3130 3d        dec     a
3131 2058      jr      nz,318bh
3133 58        ld      e,b
3134 58        ld      e,b
3135 2e58      ld      l,58h
3137 25        dec     h
3138 24        inc     h
3139 3d        dec     a
313a 2058      jr      nz,3194h
313c 58        ld      e,b
313d 58        ld      e,b
313e 2e58      ld      l,58h
3140 25        dec     h
3141 24        inc     h
3142 3d        dec     a
3143 2058      jr      nz,319dh
3145 58        ld      e,b
3146 58        ld      e,b
3147 2e58      ld      l,58h
3149 25        dec     h
314a 24        inc     h
314b 2020      jr      nz,316dh
314d 2020      jr      nz,316fh
314f 2020      jr      nz,3171h
3151 2020      jr      nz,3173h
3153 2024      jr      nz,3179h
3155 3d        dec     a
3156 2058      jr      nz,31b0h
3158 58        ld      e,b
3159 58        ld      e,b
315a 2e58      ld      l,58h
315c 25        dec     h
315d 24        inc     h
315e 3d        dec     a
315f 2058      jr      nz,31b9h
3161 58        ld      e,b
3162 58        ld      e,b
3163 2e58      ld      l,58h
3165 25        dec     h
3166 24        inc     h
3167 3d        dec     a
3168 2058      jr      nz,31c2h
316a 58        ld      e,b
316b 58        ld      e,b
316c 2e58      ld      l,58h
316e 25        dec     h
316f 24        inc     h
3170 2020      jr      nz,3192h
3172 2020      jr      nz,3194h
3174 2020      jr      nz,3196h
3176 2020      jr      nz,3198h
3178 2024      jr      nz,319eh
317a 3d        dec     a
317b 2031      jr      nz,31aeh
317d 3030      jr      nc,31afh
317f 2e30      ld      l,30h
3181 25        dec     h
3182 24        inc     h
3183 010bcf    ld      bc,0cf0bh
3186 3131c4    ld      sp,0c431h
3189 34        inc     (hl)
318a c40100    call    nz,0001h
318d e1        pop     hl
318e 3131c4    ld      sp,0c431h
3191 0100f3    ld      bc,0f300h
3194 3134c4    ld      sp,0c434h
3197 010005    ld      bc,0500h
319a 3237c4    ld      (0c437h),a
319d 010017    ld      bc,1700h
31a0 323ac4    ld      (0c43ah),a
31a3 010029    ld      bc,2900h
31a6 323dc4    ld      (0c43dh),a
31a9 01003b    ld      bc,3b00h
31ac 3240c4    ld      (0c440h),a
31af 01004d    ld      bc,4d00h
31b2 3243c4    ld      (0c443h),a
31b5 01005f    ld      bc,5f00h
31b8 3246c4    ld      (0c446h),a
31bb 010071    ld      bc,7100h
31be 3249c4    ld      (0c449h),a
31c1 010097    ld      bc,9700h
31c4 309a      jr      nc,3160h
31c6 c0        ret     nz

31c7 010011    ld      bc,1100h
31ca 64        ld      h,h
31cb 9a        sbc     a,d
31cc c0        ret     nz

31cd 010054    ld      bc,5400h
31d0 4f        ld      c,a
31d1 54        ld      d,h
31d2 41        ld      b,c
31d3 4c        ld      c,h
31d4 2e2e      ld      l,2eh
31d6 2e2e      ld      l,2eh
31d8 2e2e      ld      l,2eh
31da 2e2e      ld      l,2eh
31dc 2e2e      ld      l,2eh
31de 2e2e      ld      l,2eh
31e0 24        inc     h
31e1 54        ld      d,h
31e2 4f        ld      c,a
31e3 54        ld      d,h
31e4 41        ld      b,c
31e5 4c        ld      c,h
31e6 2049      jr      nz,3231h
31e8 4e        ld      c,(hl)
31e9 2e2e      ld      l,2eh
31eb 2e2e      ld      l,2eh
31ed 2e2e      ld      l,2eh
31ef 2e2e      ld      l,2eh
31f1 2e24      ld      l,24h
31f3 54        ld      d,h
31f4 4f        ld      c,a
31f5 54        ld      d,h
31f6 41        ld      b,c
31f7 4c        ld      c,h
31f8 204f      jr      nz,3249h
31fa 55        ld      d,l
31fb 54        ld      d,h
31fc 2e2e      ld      l,2eh
31fe 2e2e      ld      l,2eh
3200 2e2e      ld      l,2eh
3202 2e2e      ld      l,2eh
3204 24        inc     h
3205 43        ld      b,e
3206 4f        ld      c,a
3207 49        ld      c,c
3208 4e        ld      c,(hl)
3209 53        ld      d,e
320a 2049      jr      nz,3255h
320c 4e        ld      c,(hl)
320d 2e2e      ld      l,2eh
320f 2e2e      ld      l,2eh
3211 2e2e      ld      l,2eh
3213 2e2e      ld      l,2eh
3215 2e24      ld      l,24h
3217 45        ld      b,l
3218 58        ld      e,b
3219 54        ld      d,h
321a 45        ld      b,l
321b 52        ld      d,d
321c 4e        ld      c,(hl)
321d 2049      jr      nz,3268h
321f 4e        ld      c,(hl)
3220 2e2e      ld      l,2eh
3222 2e2e      ld      l,2eh
3224 2e2e      ld      l,2eh
3226 2e2e      ld      l,2eh
3228 24        inc     h
3229 43        ld      b,e
322a 4f        ld      c,a
322b 49        ld      c,c
322c 4e        ld      c,(hl)
322d 53        ld      d,e
322e 204f      jr      nz,327fh
3230 55        ld      d,l
3231 54        ld      d,h
3232 2e2e      ld      l,2eh
3234 2e2e      ld      l,2eh
3236 2e2e      ld      l,2eh
3238 2e2e      ld      l,2eh
323a 24        inc     h
323b 45        ld      b,l
323c 58        ld      e,b
323d 54        ld      d,h
323e 45        ld      b,l
323f 52        ld      d,d
3240 4e        ld      c,(hl)
3241 204f      jr      nz,3292h
3243 55        ld      d,l
3244 54        ld      d,h
3245 2e2e      ld      l,2eh
3247 2e2e      ld      l,2eh
3249 2e2e      ld      l,2eh
324b 2e24      ld      l,24h
324d 43        ld      b,e
324e 4f        ld      c,a
324f 49        ld      c,c
3250 4e        ld      c,(hl)
3251 53        ld      d,e
3252 2052      jr      nz,32a6h
3254 45        ld      b,l
3255 46        ld      b,(hl)
3256 49        ld      c,c
3257 4c        ld      c,h
3258 4c        ld      c,h
3259 45        ld      b,l
325a 44        ld      b,h
325b 2e2e      ld      l,2eh
325d 2e24      ld      l,24h
325f 45        ld      b,l
3260 58        ld      e,b
3261 54        ld      d,h
3262 45        ld      b,l
3263 52        ld      d,d
3264 4e        ld      c,(hl)
3265 2052      jr      nz,32b9h
3267 45        ld      b,l
3268 46        ld      b,(hl)
3269 49        ld      c,c
326a 4c        ld      c,h
326b 4c        ld      c,h
326c 45        ld      b,l
326d 44        ld      b,h
326e 2e2e      ld      l,2eh
3270 24        inc     h
3271 54        ld      d,h
3272 4f        ld      c,a
3273 54        ld      d,h
3274 41        ld      b,c
3275 4c        ld      c,h
3276 2052      jr      nz,32cah
3278 45        ld      b,l
3279 46        ld      b,(hl)
327a 49        ld      c,c
327b 4c        ld      c,h
327c 4c        ld      c,h
327d 45        ld      b,l
327e 44        ld      b,h
327f 2e2e      ld      l,2eh
3281 2e24      ld      l,24h
3283 010ccf    ld      bc,0cf0ch
3286 314cc4    ld      sp,0c44ch
3289 4f        ld      c,a
328a c40100    call    nz,0001h
328d e1        pop     hl
328e 314cc4    ld      sp,0c44ch
3291 0100f3    ld      bc,0f300h
3294 314fc4    ld      sp,0c44fh
3297 010005    ld      bc,0500h
329a 3252c4    ld      (0c452h),a
329d 010017    ld      bc,1700h
32a0 3255c4    ld      (0c455h),a
32a3 010029    ld      bc,2900h
32a6 3258c4    ld      (0c458h),a
32a9 01003b    ld      bc,3b00h
32ac 325bc4    ld      (0c45bh),a
32af 010097    ld      bc,9700h
32b2 309a      jr      nc,324eh
32b4 c0        ret     nz

32b5 01004d    ld      bc,4d00h
32b8 325ec4    ld      (0c45eh),a
32bb 01005f    ld      bc,5f00h
32be 3261c4    ld      (0c461h),a
32c1 010071    ld      bc,7100h
32c4 3264c4    ld      (0c464h),a
32c7 010097    ld      bc,9700h
32ca 309a      jr      nc,3266h
32cc c0        ret     nz

32cd 0100d5    ld      bc,0d500h
32d0 3267c4    ld      (0c467h),a
32d3 010044    ld      bc,4400h
32d6 4f        ld      c,a
32d7 4f        ld      c,a
32d8 52        ld      d,d
32d9 204f      jr      nz,332ah
32db 50        ld      d,b
32dc 45        ld      b,l
32dd 4e        ld      c,(hl)
32de 49        ld      c,c
32df 4e        ld      c,(hl)
32e0 47        ld      b,a
32e1 53        ld      d,e
32e2 2e2e      ld      l,2eh
32e4 2e2e      ld      l,2eh
32e6 24        inc     h
32e7 00        nop     
32e8 0e3d      ld      c,3dh
32ea 33        inc     sp
32eb 9a        sbc     a,d
32ec c0        ret     nz

32ed 010097    ld      bc,9700h
32f0 309a      jr      nc,328ch
32f2 c0        ret     nz

32f3 010055    ld      bc,5500h
32f6 33        inc     sp
32f7 6a        ld      l,d
32f8 c40100    call    nz,0001h
32fb 67        ld      h,a
32fc 33        inc     sp
32fd 6d        ld      l,l
32fe c40100    call    nz,0001h
3301 79        ld      a,c
3302 33        inc     sp
3303 70        ld      (hl),b
3304 c40100    call    nz,0001h
3307 8b        adc     a,e
3308 33        inc     sp
3309 73        ld      (hl),e
330a c40100    call    nz,0001h
330d 9d        sbc     a,l
330e 33        inc     sp
330f 76        halt    
3310 c40100    call    nz,0001h
3313 af        xor     a
3314 33        inc     sp
3315 79        ld      a,c
3316 c40100    call    nz,0001h
3319 c1        pop     bc
331a 33        inc     sp
331b 7c        ld      a,h
331c c40100    call    nz,0001h
331f d333      out     (33h),a
3321 7f        ld      a,a
3322 c40100    call    nz,0001h
3325 e5        push    hl
3326 33        inc     sp
3327 82        add     a,d
3328 c40100    call    nz,0001h
332b f7        rst     30h
332c 33        inc     sp
332d 85        add     a,l
332e c40100    call    nz,0001h
3331 97        sub     a
3332 309a      jr      nc,32ceh
3334 c0        ret     nz

3335 010009    ld      bc,0900h
3338 34        inc     (hl)
3339 88        adc     a,b
333a c40100    call    nz,0001h
333d 2d        dec     l
333e 2d        dec     l
333f 2d        dec     l
3340 2d        dec     l
3341 2d        dec     l
3342 2d        dec     l
3343 2d        dec     l
3344 2048      jr      nz,338eh
3346 2049      jr      nz,3391h
3348 2054      jr      nz,339eh
334a 2053      jr      nz,339fh
334c 202d      jr      nz,337bh
334e 2d        dec     l
334f 2d        dec     l
3350 2d        dec     l
3351 2d        dec     l
3352 2d        dec     l
3353 2d        dec     l
3354 24        inc     h
3355 4a        ld      c,d
3356 41        ld      b,c
3357 43        ld      b,e
3358 4b        ld      c,e
3359 53        ld      d,e
335a 204f      jr      nz,33abh
335c 52        ld      d,d
335d 2042      jr      nz,33a1h
335f 45        ld      b,l
3360 54        ld      d,h
3361 54        ld      d,h
3362 45        ld      b,l
3363 52        ld      d,d
3364 2e2e      ld      l,2eh
3366 24        inc     h
3367 322050    ld      (5020h),a
336a 41        ld      b,c
336b 49        ld      c,c
336c 52        ld      d,d
336d 2e2e      ld      l,2eh
336f 2e2e      ld      l,2eh
3371 2e2e      ld      l,2eh
3373 2e2e      ld      l,2eh
3375 2e2e      ld      l,2eh
3377 2e24      ld      l,24h
3379 33        inc     sp
337a 204f      jr      nz,33cbh
337c 46        ld      b,(hl)
337d 2041      jr      nz,33c0h
337f 204b      jr      nz,33cch
3381 49        ld      c,c
3382 4e        ld      c,(hl)
3383 44        ld      b,h
3384 2e2e      ld      l,2eh
3386 2e2e      ld      l,2eh
3388 2e2e      ld      l,2eh
338a 24        inc     h
338b 53        ld      d,e
338c 54        ld      d,h
338d 52        ld      d,d
338e 41        ld      b,c
338f 49        ld      c,c
3390 47        ld      b,a
3391 48        ld      c,b
3392 54        ld      d,h
3393 2e2e      ld      l,2eh
3395 2e2e      ld      l,2eh
3397 2e2e      ld      l,2eh
3399 2e2e      ld      l,2eh
339b 2e24      ld      l,24h
339d 46        ld      b,(hl)
339e 4c        ld      c,h
339f 55        ld      d,l
33a0 53        ld      d,e
33a1 48        ld      c,b
33a2 2e2e      ld      l,2eh
33a4 2e2e      ld      l,2eh
33a6 2e2e      ld      l,2eh
33a8 2e2e      ld      l,2eh
33aa 2e2e      ld      l,2eh
33ac 2e2e      ld      l,2eh
33ae 24        inc     h
33af 46        ld      b,(hl)
33b0 55        ld      d,l
33b1 4c        ld      c,h
33b2 4c        ld      c,h
33b3 2048      jr      nz,33fdh
33b5 4f        ld      c,a
33b6 55        ld      d,l
33b7 53        ld      d,e
33b8 45        ld      b,l
33b9 2e2e      ld      l,2eh
33bb 2e2e      ld      l,2eh
33bd 2e2e      ld      l,2eh
33bf 2e24      ld      l,24h
33c1 34        inc     (hl)
33c2 204f      jr      nz,3413h
33c4 46        ld      b,(hl)
33c5 2041      jr      nz,3408h
33c7 204b      jr      nz,3414h
33c9 49        ld      c,c
33ca 4e        ld      c,(hl)
33cb 44        ld      b,h
33cc 2e2e      ld      l,2eh
33ce 2e2e      ld      l,2eh
33d0 2e2e      ld      l,2eh
33d2 24        inc     h
33d3 53        ld      d,e
33d4 54        ld      d,h
33d5 52        ld      d,d
33d6 2046      jr      nz,341eh
33d8 4c        ld      c,h
33d9 55        ld      d,l
33da 53        ld      d,e
33db 48        ld      c,b
33dc 2e2e      ld      l,2eh
33de 2e2e      ld      l,2eh
33e0 2e2e      ld      l,2eh
33e2 2e2e      ld      l,2eh
33e4 24        inc     h
33e5 52        ld      d,d
33e6 4f        ld      c,a
33e7 59        ld      e,c
33e8 41        ld      b,c
33e9 4c        ld      c,h
33ea 2046      jr      nz,3432h
33ec 4c        ld      c,h
33ed 55        ld      d,l
33ee 53        ld      d,e
33ef 48        ld      c,b
33f0 2e2e      ld      l,2eh
33f2 2e2e      ld      l,2eh
33f4 2e2e      ld      l,2eh
33f6 24        inc     h
33f7 35        dec     (hl)
33f8 204f      jr      nz,3449h
33fa 46        ld      b,(hl)
33fb 2041      jr      nz,343eh
33fd 204b      jr      nz,344ah
33ff 49        ld      c,c
3400 4e        ld      c,(hl)
3401 44        ld      b,h
3402 2e2e      ld      l,2eh
3404 2e2e      ld      l,2eh
3406 2e2e      ld      l,2eh
3408 24        inc     h
3409 47        ld      b,a
340a 41        ld      b,c
340b 4d        ld      c,l
340c 45        ld      b,l
340d 53        ld      d,e
340e 2e2e      ld      l,2eh
3410 2e2e      ld      l,2eh
3412 2e2e      ld      l,2eh
3414 2e2e      ld      l,2eh
3416 2e2e      ld      l,2eh
3418 2e2e      ld      l,2eh
341a 24        inc     h
341b 00        nop     
341c 0c        inc     c
341d 65        ld      h,l
341e 34        inc     (hl)
341f 9a        sbc     a,d
3420 c0        ret     nz

3421 64        ld      h,h
3422 00        nop     
3423 97        sub     a
3424 309a      jr      nc,33c0h
3426 c0        ret     nz

3427 64        ld      h,h
3428 00        nop     
3429 55        ld      d,l
342a 33        inc     sp
342b 8b        adc     a,e
342c c46400    call    nz,0064h
342f 67        ld      h,a
3430 33        inc     sp
3431 8e        adc     a,(hl)
3432 c46400    call    nz,0064h
3435 79        ld      a,c
3436 33        inc     sp
3437 91        sub     c
3438 c46400    call    nz,0064h
343b 8b        adc     a,e
343c 33        inc     sp
343d 94        sub     h
343e c46400    call    nz,0064h
3441 9d        sbc     a,l
3442 33        inc     sp
3443 97        sub     a
3444 c46400    call    nz,0064h
3447 af        xor     a
3448 33        inc     sp
3449 9a        sbc     a,d
344a c46400    call    nz,0064h
344d c1        pop     bc
344e 33        inc     sp
344f 9d        sbc     a,l
3450 c46400    call    nz,0064h
3453 d333      out     (33h),a
3455 a0        and     b
3456 c46400    call    nz,0064h
3459 e5        push    hl
345a 33        inc     sp
345b a3        and     e
345c c46400    call    nz,0064h
345f f7        rst     30h
3460 33        inc     sp
3461 a6        and     (hl)
3462 c46400    call    nz,0064h
3465 2d        dec     l
3466 2d        dec     l
3467 2d        dec     l
3468 2d        dec     l
3469 2d        dec     l
346a 2d        dec     l
346b 2d        dec     l
346c 2057      jr      nz,34c5h
346e 2049      jr      nz,34b9h
3470 204e      jr      nz,34c0h
3472 2053      jr      nz,34c7h
3474 202d      jr      nz,34a3h
3476 2d        dec     l
3477 2d        dec     l
3478 2d        dec     l
3479 2d        dec     l
347a 2d        dec     l
347b 2d        dec     l
347c 24        inc     h
347d 3c        inc     a
347e 287f      jr      z,34ffh
3480 284f      jr      z,34d1h
3482 2b        dec     hl
3483 79        ld      a,c
3484 2b        dec     hl
3485 a3        and     e
3486 2b        dec     hl
3487 4d        ld      c,l
3488 49        ld      c,c
3489 4e        ld      c,(hl)
348a 49        ld      c,c
348b 4d        ld      c,l
348c 55        ld      d,l
348d 4d        ld      c,l
348e 2042      jr      nz,34d2h
3490 45        ld      b,l
3491 54        ld      d,h
3492 2e2e      ld      l,2eh
3494 2e2e      ld      l,2eh
3496 2e2e      ld      l,2eh
3498 2e2e      ld      l,2eh
349a 2e2e      ld      l,2eh
349c 2e2e      ld      l,2eh
349e 24        inc     h
349f 4d        ld      c,l
34a0 41        ld      b,c
34a1 58        ld      e,b
34a2 49        ld      c,c
34a3 4d        ld      c,l
34a4 55        ld      d,l
34a5 4d        ld      c,l
34a6 2042      jr      nz,34eah
34a8 45        ld      b,l
34a9 54        ld      d,h
34aa 2e2e      ld      l,2eh
34ac 2e2e      ld      l,2eh
34ae 2e2e      ld      l,2eh
34b0 2e2e      ld      l,2eh
34b2 2e2e      ld      l,2eh
34b4 2e2e      ld      l,2eh
34b6 24        inc     h
34b7 49        ld      c,c
34b8 4e        ld      c,(hl)
34b9 49        ld      c,c
34ba 54        ld      d,h
34bb 204d      jr      nz,350ah
34bd 41        ld      b,c
34be 43        ld      b,e
34bf 48        ld      c,b
34c0 49        ld      c,c
34c1 4e        ld      c,(hl)
34c2 45        ld      b,l
34c3 24        inc     h
34c4 41        ld      b,c
34c5 4c        ld      c,h
34c6 4c        ld      c,h
34c7 2052      jr      nz,351bh
34c9 49        ld      c,c
34ca 47        ld      b,a
34cb 48        ld      c,b
34cc 54        ld      d,h
34cd 53        ld      d,e
34ce 2052      jr      nz,3522h
34d0 45        ld      b,l
34d1 53        ld      d,e
34d2 45        ld      b,l
34d3 52        ld      d,d
34d4 56        ld      d,(hl)
34d5 45        ld      b,l
34d6 44        ld      b,h
34d7 2042      jr      nz,351bh
34d9 59        ld      e,c
34da 204e      jr      nz,352ah
34dc 4f        ld      c,a
34dd 56        ld      d,(hl)
34de 4f        ld      c,a
34df 4d        ld      c,l
34e0 41        ld      b,c
34e1 54        ld      d,h
34e2 49        ld      c,c
34e3 43        ld      b,e
34e4 20d7      jr      nz,34bdh
34e6 24        inc     h
34e7 b8        cp      b
34e8 b3        or      e
34e9 b3        or      e
34ea b3        or      e
34eb b3        or      e
34ec b3        or      e
34ed b3        or      e
34ee b7        or      a
34ef 24        inc     h
34f0 b4        or      h
34f1 2020      jr      nz,3513h
34f3 2020      jr      nz,3515h
34f5 2020      jr      nz,3517h
34f7 b6        or      (hl)
34f8 24        inc     h
34f9 ba        cp      d
34fa b5        or      l
34fb b5        or      l
34fc b5        or      l
34fd b5        or      l
34fe b5        or      l
34ff b5        or      l
3500 b9        cp      c
3501 24        inc     h
3502 50        ld      d,b
3503 41        ld      b,c
3504 47        ld      b,a
3505 45        ld      b,l
3506 2020      jr      nz,3528h
3508 24        inc     h
3509 43        ld      b,e
350a 4f        ld      c,a
350b 49        ld      c,c
350c 4e        ld      c,(hl)
350d 53        ld      d,e
350e 2052      jr      nz,3562h
3510 45        ld      b,l
3511 46        ld      b,(hl)
3512 49        ld      c,c
3513 4c        ld      c,h
3514 4c        ld      c,h
3515 45        ld      b,l
3516 44        ld      b,h
3517 2e2e      ld      l,2eh
3519 2e2e      ld      l,2eh
351b 2e2e      ld      l,2eh
351d 2e2e      ld      l,2eh
351f 2e24      ld      l,24h
3521 48        ld      c,b
3522 204f      jr      nz,3573h
3524 2050      jr      nz,3576h
3526 2050      jr      nz,3578h
3528 2045      jr      nz,356fh
352a 2052      jr      nz,357eh
352c 2020      jr      nz,354eh
352e 46        ld      b,(hl)
352f 2055      jr      nz,3586h
3531 204c      jr      nz,357fh
3533 204c      jr      nz,3581h
3535 24        inc     h
3536 00        nop     
3537 e1        pop     hl
3538 dd21dfc4  ld      ix,0c4dfh
353c cde304    cmp	x,0
353f ca9e38    jp      z,389eh
354c fd21d9c4  ld      iy,0c4d9h
3550 dd2197c0  ld      ix,0c097h
3554 cd2c05    x=75*y				;bet*75
3557 dd21dfc4  ld      ix,0c4dfh
355b fd2197c0  ld      iy,0c097h
355f cdcd04    cmp	x,y
3562 d29e38    jp      nc,389eh
3565 0e00      ld      c,00h
3567 2114c4    ld      hl,0c414h
356a cb66      bit     4,(hl)
356c ca5d38    jp      z,385dh
356f 2119c4    ld      hl,0c419h
3572 cbee      set     5,(hl)
3574 cd6039    call    3960h
3577 cd6b5b    call    5b6bh			;titlu cupa
357a af        xor     a
357b 32d0c0    ld      (0c0d0h),a
357e cdaf23    call    23afh
3581 3a70c0    ld      a,(0c070h)
3584 f6e0      or      0e0h
3586 3270c0    ld      (0c070h),a
3589 af        xor     a
358a 326fc0    ld      (0c06fh),a
358d 3ad2c0    ld      a,(0c0d2h)
3590 fe06      cp      06h
3592 cc5c3a    call    z,3a5ch
3595			a=rnd100
359a 2114c4    ld      hl,0c414h
359d cb66      bit     4,(hl)
359f 28f4      jr      z,3595h
35a1 2113c4    ld      hl,0c413h
35a4 cb66      bit     4,(hl)
35a6 28ed      jr      z,3595h
35a8 2116c4    ld      hl,0c416h
35ab cb4e      bit     1,(hl)
35ad 28e6      jr      z,3595h
35af cd383b    call    3b38h
35b2 4f        ld      c,a
35b3 e6fe      and     0feh
35b5 ca5d38    jp      z,385dh
35b8 e5        push    hl
35b9 69        ld      l,c
35ba e5        push    hl
35bb 211ac4    ld      hl,0c41ah
35be cbb6      res     6,(hl)
35c3 cd3601		sterg	586dh
35cf cdd308		dreptunghi	e8a8,36,1,0
			a=rnd100
35d7 210100    sleep	1
35dd fd21dfc4  ld      iy,0c4dfh
35e1 dd2197c0  ld      ix,0c097h
35e5 cdb904    x=y
35e8 fd21d9c4  ld      iy,0c4d9h
35ec dd2197c0  ld      ix,0c097h
35f0 cd6804    x=x/y
35f3 dd2197c0  ld      ix,0c097h
35f7 cda105    call    05a1h
35fa dd213b39  ld      ix,393bh
35fe 010400    ld      bc,0004h
3601 dd5e00    ld      e,(ix+00h)
3604 dd5601    ld      d,(ix+01h)
3607 e5        push    hl
3608 af        xor     a
3609 ed52      sbc     hl,de
360b e1        pop     hl
360c 3804      jr      c,3612h
360e dd09      add     ix,bc
3610 18ef      jr      3601h
3612 dd7e02    ld      a,(ix+02h)
3615 21cfc0    ld      hl,0c0cfh
3618 96        sub     (hl)
3619 3001      jr      nc,361ch
361b af        xor     a
361c 4f        ld      c,a
361d 3ad2c0    ld      a,(0c0d2h)
3620 fe01      cp      01h
3622 2004      jr      nz,3628h
3624 3ad1c0    ld      a,(0c0d1h)
3627 4f        ld      c,a
3628 7a        ld      a,d
3629 b7        or      a
362a 2005      jr      nz,3631h
362c 7b        ld      a,e
362d fe64      cp      64h
362f 3848      jr      c,3679h
3631 dd2195c5  ld      ix,0c595h
3635 dd7e02    ld      a,(ix+02h)
3638 ddbe05    cp      (ix+05h)
363b 3816      jr      c,3653h
363d 2016      jr      nz,3655h
363f dd7e01    ld      a,(ix+01h)
3642 ddbe04    cp      (ix+04h)
3645 380c      jr      c,3653h
3647 200c      jr      nz,3655h
3649 dd7e00    ld      a,(ix+00h)
364c ddbe03    cp      (ix+03h)
364f 3802      jr      c,3653h
3651 1802      jr      3655h
3653 cb39      srl     c
3655 dd218fc5  ld      ix,0c58fh
3659 dd7e02    ld      a,(ix+02h)
365c ddbe05    cp      (ix+05h)
365f 3816      jr      c,3677h
3661 2016      jr      nz,3679h
3663 dd7e01    ld      a,(ix+01h)
3666 ddbe04    cp      (ix+04h)
3669 380c      jr      c,3677h
366b 200c      jr      nz,3679h
366d dd7e00    ld      a,(ix+00h)
3670 ddbe03    cp      (ix+03h)
3673 3802      jr      c,3677h
3675 1802      jr      3679h
3677 0e00      ld      c,00h
3679 3a36c0    ld      a,random
367c b9        cp      c
367d 3f        ccf     
367e e1        pop     hl
367f 7d        ld      a,l
3680 f5        push    af
3681 cd0554    call    5405h
3684 dd2194c0  ld      ix,0c094h
3688 dd7500    ld      (ix+00h),l
368b dd7401    ld      (ix+01h),h
368e cd2554    call    5425h
3691 38ee      jr      c,3681h
3693 2a94c0    ld      hl,(0c094h)
3696 7c        ld      a,h
3697 fe05      cp      05h
3699 3005      jr      nc,36a0h
369b f1        pop     af
369c f5        push    af
369d 07        rlca    
369e ac        xor     h
369f 1f        rra     
36a0 3805      jr      c,36a7h
36a2 f1        pop     af
36a3 38db      jr      c,3680h
36a5 1803      jr      36aah
36a7 f1        pop     af
36a8 30d6      jr      nc,3680h
36aa e1        pop     hl
36ab e5        push    hl
36ac f5        push    af
36ad dd2194c0  ld      ix,0c094h
36b1 cdec53		copy_c6c3
36b4 cda65c		carte_snd
36b7 ed4b94c0  ld      bc,(0c094h)
36bb cde908    call    08e9h
36be f1        pop     af
36bf d2cb36    jp      nc,36cbh
36c2 e1        pop     hl
36c3 dd21dfc4  ld      ix,0c4dfh
36c7 cd5a04    x=0
36ca c9        ret     

36cb 3ad2c0    ld      a,(0c0d2h)
36ce 3d        dec     a
36cf 32d2c0    ld      (0c0d2h),a
36d2 ca8a37    jp      z,378ah
36d5 fe06      cp      06h
36d7 3046      jr      nc,371fh
36d9 e1        pop     hl
36da 7d        ld      a,l
36db fed2      cp      0d2h
36dd 380c      jr      c,36ebh
36df 11fec0    ld      de,0c0feh
36e2 cd5548    call    4855h
36e5 3ed0      ld      a,0d0h
36e7 95        sub     l
36e8 c45d37    call    nz,375dh
36eb e5        push    hl
36ec 3ad2c0    ld      a,(0c0d2h)
36ef 47        ld      b,a
36f0 215be5    ld      hl,0e55bh
36f3 118000    ld      de,0080h
36f6 19        add     hl,de
36f7 10fd      djnz    36f6h
36f9 012508    ld      bc,0825h
36fc 71        ld      (hl),c
36fd 23        inc     hl
36fe 23        inc     hl
36ff 10fb      djnz    36fch
3701 3ad2c0    ld      a,(0c0d2h)
3704 47        ld      b,a
3705 210002    ld      hl,0200h
3708 114000    ld      de,0040h
370b 19        add     hl,de
370c 10fd      djnz    370bh
370e eb        ex      de,hl
370f 21bc38    ld      hl,38bch
3712 0e10      ld      c,10h
3714 cded07    call    07edh
3717 cdf807    call    07f8h
371a 13        inc     de
371b 13        inc     de
371c cd0408    call    0804h
371f 3ad0c0    ld      a,(0c0d0h)
3722 47        ld      b,a
3723 04        inc     b
3724 78        ld      a,b
3725 32d0c0    ld      (0c0d0h),a
3728 0e00      ld      c,00h
372a 21ea38    ld      hl,38eah
372d cdc338    call    38c3h
3730 79        ld      a,c
3731 fe08      cp      08h
3733 3005      jr      nc,373ah
3735 0c        inc     c
3736 110400    ld      de,0004h
3739 19        add     hl,de
373a 10f1      djnz    372dh
373c fd21dfc4  ld      iy,0c4dfh
3740 dd21dfc4  ld      ix,0c4dfh
3744 cd1a04    x=x+y
3747 e1        pop     hl
3748 11fec0    ld      de,0c0feh
374b cd5548    call    4855h
374e 3ad0c0    ld      a,(0c0d0h)
3751 87        add     a,a
3752 5f        ld      e,a
3753 87        add     a,a
3754 c6aa      add     a,0aah
3756 95        sub     l
3757 c45d37    call    nz,375dh
375a c37e35    jp      357eh
375d 110200    ld      de,0002h
3760 47        ld      b,a
3761 3006      jr      nc,3769h
3763 11feff    ld      de,0fffeh
3766 ed44      neg     
3768 47        ld      b,a
3769 cb38      srl     b
376b c5        push    bc
376c d5        push    de
376d cdc448    call    48c4h
3770 116ac1    ld      de,0c16ah
3773 cd6648    call    4866h
3776 d1        pop     de
3777 19        add     hl,de
3778 d5        push    de
3779 116ac1    ld      de,0c16ah
377c cd5548    call    4855h
377f 11fec0    ld      de,0c0feh
3782 cd6648    call    4866h
3785 d1        pop     de
3786 c1        pop     bc
3787 10e2      djnz    376bh
3789 c9        ret     

378a e1        pop     hl
378b 11fec0    ld      de,0c0feh
378e cd5548    call    4855h
3791 3ad0c0    ld      a,(0c0d0h)
3794 3c        inc     a
3795 87        add     a,a
3796 5f        ld      e,a
3797 87        add     a,a
3798 c6aa      add     a,0aah
379a 95        sub     l
379b c45d37    call    nz,375dh
379e 010809    ld      bc,0908h
37a1 21dae3    ld      hl,0e3dah
37a4 3e24      ld      a,24h
37a6 cd6656    call    5666h
37a9 0e10      ld      c,10h
37ab 21bc38    ld      hl,38bch
37ae 11c401    ld      de,01c4h
37b1 cdee07    call    07eeh
37b4 0e10      ld      c,10h
37b6 21bc38    ld      hl,38bch
37b9 11d002    ld      de,02d0h
37bc cdf907    call    07f9h
37bf 0e10      ld      c,10h
37c1 21bc38    ld      hl,38bch
37c4 115c02    ld      de,025ch
37c7 cddc07    call    07dch
37ca 3e01      ld      a,01h
37cc 32bcc0    ld      (0c0bch),a
37d2 0e04      ld      c,04h
37d4 cd0901		inser	59bdh
37d7 210000    ld      hl,0000h
37da 226fc0    ld      (0c06fh),hl
37dd 0e10      ld      c,10h
37df 21b138    ld      hl,38b1h
37e2 11e581    ld      de,81e5h
37e5 cd0408    call    0804h
37e8 0e09      ld      c,09h
37ea 21b138    ld      hl,38b1h
37ed 116380    ld      de,8063h
37f0 cdee07    call    07eeh
37f3 0e0f      ld      c,0fh
37f5 21b138    ld      hl,38b1h
37f8 117782    ld      de,8277h
37fb cde207    call    07e2h
37fe 210020    ld      hl,2000h
3801 226fc0    ld      (0c06fh),hl
3804 0e10      ld      c,10h
3806 21b138    ld      hl,38b1h
3809 11e581    ld      de,81e5h
380c cd0408    call    0804h
380f 0e09      ld      c,09h
3811 21b138    ld      hl,38b1h
3814 116380    ld      de,8063h
3817 cdee07    call    07eeh
381a 0e0f      ld      c,0fh
381c 21b138    ld      hl,38b1h
381f 117782    ld      de,8277h
3822 cdf907    call    07f9h
3825 2114c4    ld      hl,0c414h
3828 cb66      bit     4,(hl)
382a 2809      jr      z,3835h
382c 3a60c0    ld      a,(0c060h)
382f e6c0      and     0c0h
3831 28d1      jr      z,3804h
3833 18f0      jr      3825h
3835 cdac07		[c050]=40h
3838 cdb307		[c058]=40h
383b cdba07		[c060]=40h
383e fd21d3c0  ld      iy,0c0d3h
3842 dd21dfc4  ld      ix,0c4dfh
3846 cdb904		x=y
384c cd3601		sterg	59bdh
384f 010809    ld      bc,0908h
3852 21dae3    ld      hl,0e3dah
3855 3e24      ld      a,24h
3857 cd6656    call    5666h
385a c39e38    jp      389eh
385d 79        ld      a,c
385e b7        or      a
385f ca9e38    jp      z,389eh
3862 cd6b1d    call    1d6bh
3865 c5        push    bc
3866 211ac4    ld      hl,0c41ah
3869 cb9e      res     3,(hl)
386b dd21dfc4  ld      ix,0c4dfh
386f cd5a04    x=0
3872 211ac4    ld      hl,0c41ah
3875 cbf6      set     6,(hl)
387a cd3601		sterg	5999h
3886 cdd308		dreptunghi	eda8,36,1,0
388c cd360		sterg	59ach
388f cd0a44    call    440ah
3892 cd265b    call    5b26h
3895 af        xor     a
3896 32dac0    ld      (0c0dah),a
3899 c1        pop     bc
389a e1        pop     hl
389b c33b19    jp      193bh
38a1 cd3601		sterg	586dh
38ad cdd308		dreptunghi	e8a8,36,1,0
38b0 c9        ret     

38b1 81        add     a,c
38b2 80        add     a,b
38b3 00        nop     
38b4 03        inc     bc
38b5 89        adc     a,c
38b6 00        nop     
38b7 08        ex      af,af'
38b8 00        nop     
38b9 00        nop     
38ba 00        nop     
38bb 08        ex      af,af'
38bc a9        xor     c
38bd 012000    ld      bc,0020h
38c0 1000      djnz    38c2h
38c2 20cf      jr      nz,3893h
38c4 e5        push    hl
38c5 dde1      pop     ix
38c7 0e0d      ld      c,0dh
38c9 dd5e00    ld      e,(ix+00h)
38cc dd5601    ld      d,(ix+01h)
38cf dd6e02    ld      l,(ix+02h)
38d2 dd6603    ld      h,(ix+03h)
38d5 cded07    call    07edh
38d8 e5        push    hl
38d9 210800    sleep	8
38df e1        pop     hl
38e0 cdf807    call    07f8h
38e3 210300    sleep	3
38e9 c9        ret     

38ea f4010e    call    p,0e01h
38ed 39        add     hl,sp
38ee 90        sub     b
38ef 011339    ld      bc,3913h
38f2 40        ld      b,b
38f3 011839    ld      bc,3918h
38f6 04        inc     b
38f7 011d39    ld      bc,391dh
38fa dc0022    call    c,2200h
38fd 39        add     hl,sp
38fe c8        ret     z

38ff 00        nop     
3900 27        daa     
3901 39        add     hl,sp
3902 b9        cp      c
3903 00        nop     
3904 2c        inc     l
3905 39        add     hl,sp
3906 aa        xor     d
3907 00        nop     
3908 3139a0    ld      sp,0a039h
390b 00        nop     
390c 3639      ld      (hl),39h
390e a0        and     b
390f 011d28    ld      bc,281dh
3912 0b        dec     bc
3913 a0        and     b
3914 011923    ld      bc,2319h
3917 0b        dec     bc
3918 a0        and     b
3919 01161f    ld      bc,1f16h
391c 0b        dec     bc
391d a0        and     b
391e 01131c    ld      bc,1c13h
3921 0b        dec     bc
3922 a0        and     b
3923 01101a    ld      bc,1a10h
3926 0b        dec     bc
3927 a0        and     b
3928 010d19    ld      bc,190dh
392b 0b        dec     bc
392c a0        and     b
392d 010a17    ld      bc,170ah
3930 0b        dec     bc
3931 a0        and     b
3932 010715    ld      bc,1507h
3935 0b        dec     bc
3936 a0        and     b
3937 010414    ld      bc,1404h
393a 0b        dec     bc
393b 05        dec     b
393c 00        nop     
393d 32000a    ld      (0a00h),a
3940 00        nop     
3941 310014    ld      sp,1400h
3944 00        nop     
3945 3000      jr      nc,3947h
3947 2800      jr      z,3949h
3949 2f        cpl     
394a 00        nop     
394b 64        ld      h,h
394c 00        nop     
394d 2d        dec     l
394e 00        nop     
394f c8        ret     z

3950 00        nop     
3951 2800      jr      z,3953h
3953 f4011e    call    p,1e01h
3956 00        nop     
3957 e8        ret     pe

3958 03        inc     bc
3959 0a        ld      a,(bc)
395a 00        nop     
395b ff        rst     38h
395c ff        rst     38h
395d 00        nop     
395e 00        nop     
395f cf        rst     08h
3969 cdd308		dreptunghi	e828,36,15,0
3975 cdd308		dreptunghi	e7ae,30,9,31ch
3981 cd8e08		bitmap	e32a,62ee,11,29		;incadrare dreapta
398d cdd308		dreptunghi	e7ec,1,9,fa1dh
3999 cdd308		dreptunghi	e7ac,1,9,fb21h
39a5 cdd308		dreptunghi	e7ea,1,9,fc21h
39a8 fd21dfc4  ld      iy,0c4dfh
39ac dd2197c0  ld      ix,0c097h
39b0 cdb904    x=y
39b3 fd21d9c4  ld      iy,0c4d9h
39b7 dd2197c0  ld      ix,0c097h
39bb cd6804		x=x/y
39be 0601      ld      b,01h
39c4 dd2197c0  ld      ix,0c097h
39c8 cd1a04    x=x*2
39dd cdcd04    cmp	x,150
39e0 3003      jr      nc,39e5h
39e2 04        inc     b
39e3 18db      jr      39c0h
39e5 fd21d2c0  ld      iy,0c0d2h
39e9 fd7000    ld      (iy+00h),b
39ec dd2194c0  ld      ix,0c094h
39f3 cdeb04    x=2
39f6 fd2194c0  ld      iy,0c094h
39fa dd2197c0  ld      ix,0c097h
39fe cd6804    x=x/y
3a0f dd2197c0  ld      ix,0c097h
3a13 cd2c05    x=x*100
3a16 dd2194c0  ld      ix,0c094h
3a1d cdeb04    x=300
3a20 fd2194c0  ld      iy,0c094h
3a24 dd2197c0  ld      ix,0c097h
3a28 cd6804    x=x/y
3a2b dd2197c0  ld      ix,0c097h
3a2f cda105    call    05a1h
3a32 7d        ld      a,l
3a33 32d1c0    ld      (0c0d1h),a
3a36 dd2197c0  ld      ix,0c097h
3a3d cdeb04    x=300
3a40 fd21d9c4  ld      iy,0c4d9h
3a44 dd2197c0  ld      ix,0c097h
3a48 cd2c05    x=x*y
3a4b fd2197c0  ld      iy,0c097h
3a4f dd21d3c0  ld      ix,0c0d3h
3a53 cdb904    x=y
3a56 3ad2c0    ld      a,(0c0d2h)
3a59 fe06      cp      06h
3a5b d0        ret     nc

3a5c dd21dae3  ld      ix,0e3dah
3a60 214663    ld      hl,6346h
3a63 011004    ld      bc,0410h
3a66 c5        push    bc
3a67 0600      ld      b,00h
3a69 dde5      push    ix
3a6b d1        pop     de
3a6c edb0      ldir    
3a6e 118000    ld      de,0080h
3a71 dd19      add     ix,de
3a73 c1        pop     bc
3a74 10f0      djnz    3a66h
3a76 010503    ld      bc,0305h
3a79 dd21dce4  ld      ix,0e4dch
3a7d fd21d3c0  ld      iy,0c0d3h
3a81 cd6059    call    5960h
3a84 21b538    ld      hl,38b5h
3a87 110001    ld      de,0100h
3a8a 0e10      ld      c,10h
3a8c cded07    call    07edh
3a8f cdf807    call    07f8h
3a92 13        inc     de
3a93 13        inc     de
3a94 cd0308    call    0803h
3a97 210300    sleep	3
3a9d 0e21      ld      c,21h
3a9f 21dae5    ld      hl,0e5dah
3aa2 114001    ld      de,0140h
3aa5 3ad2c0    ld      a,(0c0d2h)
3aa8 3d        dec     a
3aa9 fe05      cp      05h
3aab 47        ld      b,a
3aac 3802      jr      c,3ab0h
3aae 0605      ld      b,05h
3ab0 c5        push    bc
3ab1 e5        push    hl
3ab2 d5        push    de
3ab6 cd8208		liniebmp	hl,6386
3ab9 d1        pop     de
3aba d5        push    de
3abb 21b538    ld      hl,38b5h
3abe 0e10      ld      c,10h
3ac0 cded07    call    07edh
3ac3 cdf807    call    07f8h
3ac6 13        inc     de
3ac7 13        inc     de
3ac8 cd0408    call    0804h
3acb 210300		sleep	3
3ad1 d1        pop     de
3ad2 214000    ld      hl,0040h
3ad5 19        add     hl,de
3ad6 eb        ex      de,hl
3ad7 e1        pop     hl
3ad8 018000    ld      bc,0080h
3adb 09        add     hl,bc
3adc c1        pop     bc
3add 10d1      djnz    3ab0h
3adf 0e20      ld      c,20h
3ae1 7e        ld      a,(hl)
3ae2 feda      cp      0dah
3ae4 c8        ret     z

3ae5 118f63		liniebmp	hl,638f
3aeb 118000    ld      de,0080h
3aee 19        add     hl,de
3aef 18f0      jr      3ae1h
3af1 03        inc     bc
3af2 00        nop     
3af3 00        nop     
3af4 08        ex      af,af'
3af5 00        nop     
3af6 09        add     hl,bc
3af7 00        nop     
3af8 05        dec     b
3af9 00        nop     
3afa 00        nop     
3afb 08        ex      af,af'
3afc 00        nop     
3afd 15        dec     d
3afe 00        nop     
3aff 07        rlca    
3b00 00        nop     
3b01 00        nop     
3b02 08        ex      af,af'
3b03 00        nop     
3b04 210009    ld      hl,0900h
3b07 00        nop     
3b08 00        nop     
3b09 08        ex      af,af'
3b0a 00        nop     
3b0b 27        daa     
3b0c 00        nop     
3b0d 12        ld      (de),a
3b0e 00        nop     
3b0f 00        nop     
3b10 08        ex      af,af'
3b11 00        nop     
3b12 3600      ld      (hl),00h
3b14 40        ld      b,b
3b15 00        nop     
3b16 00        nop     
3b17 08        ex      af,af'
3b18 00        nop     
3b19 2001      jr      nz,3b1ch
3b1b 80        add     a,b
3b1c 00        nop     
3b1d 00        nop     
3b1e 08        ex      af,af'
3b1f 00        nop     
3b20 40        ld      b,b
3b21 02        ld      (bc),a
3b22 00        nop     
3b23 03        inc     bc
3b24 00        nop     
3b25 08        ex      af,af'
3b26 00        nop     
3b27 00        nop     
3b28 09        add     hl,bc
3b29 00        nop     
3b2a 0600      ld      b,00h
3b2c 08        ex      af,af'
3b2d 00        nop     
3b2e 00        nop     
3b2f 1899      jr      3acah
3b31 99        sbc     a,c
3b32 99        sbc     a,c
3b33 09        add     hl,bc
3b34 00        nop     
3b35 00        nop     
3b36 00        nop     
3b37 cf        rst     08h
3b38 cdaf23    call    23afh
3b3b 21bd48    ld      hl,48bdh
3b3e 013907    ld      bc,0739h
3b41 3e06      ld      a,06h
3b43 3c        inc     a
3b44 d338      out     (38h),a
3b46 eda3      outi    
3b48 20f9      jr      nz,3b43h
3b4a 3e06      ld      a,06h
3b4c d338      out     (38h),a
3b4e 3e1f      ld      a,1fh
3b50 ed79      out     (c),a
3b52 1142c2    ld      de,0c242h
3b55 21ece3    ld      hl,0e3ech
3b58 cd5548    call    4855h
3b5b 11d6c1    ld      de,0c1d6h
3b5e 21a0e3    ld      hl,0e3a0h
3b61 cd5548    call    4855h
3b64 116ac1    ld      de,0c16ah
3b67 21ace3    ld      hl,0e3ach
3b6a cd5548    call    4855h
3b6d e5        push    hl
3b6e cdc448    call    48c4h
3b71 cd580e    call    0e58h
3b74 e1        pop     hl
3b75 11fec0    ld      de,0c0feh
3b78 cd5548    call    4855h
3b7b 116ac1    ld      de,0c16ah
3b7e cd6648    call    4866h
3b81 21a0e3    ld      hl,0e3a0h
3b84 0606      ld      b,06h
3b86 c5        push    bc
3b87 cdc448    call    48c4h
3b8a 23        inc     hl
3b8b 23        inc     hl
3b8c 11fec0    ld      de,0c0feh
3b8f cd6648    call    4866h
3b92 e5        push    hl
3b93 11d6c1    ld      de,0c1d6h
3b96 21a0e3    ld      hl,0e3a0h
3b99 cd6648    call    4866h
3b9c cda63c    call    3ca6h
3b9f ca9b3c    jp      z,3c9bh
3ba2 e1        pop     hl
3ba3 c1        pop     bc
3ba4 10e0      djnz    3b86h
3ba6 3ad0c0    ld      a,(0c0d0h)
3ba9 87        add     a,a
3baa 3c        inc     a
3bab 47        ld      b,a
3bac c5        push    bc
3bad cdc448    call    48c4h
3bb0 3e06      ld      a,06h
3bb2 d338      out     (38h),a
3bb4 db39      in      a,(39h)
3bb6 3d        dec     a
3bb7 d339      out     (39h),a
3bb9 116ac1    ld      de,0c16ah
3bbc cd6648    call    4866h
3bbf 23        inc     hl
3bc0 23        inc     hl
3bc1 116ac1    ld      de,0c16ah
3bc4 cd5548    call    4855h
3bc7 11fec0    ld      de,0c0feh
3bca cd6648    call    4866h
3bcd c1        pop     bc
3bce e5        push    hl
3bcf c5        push    bc
3bd0 cda63c    call    3ca6h
3bd3 c1        pop     bc
3bd4 ca9c3c    jp      z,3c9ch
3bd7 3e70      ld      a,70h
3bd9 2116c4    ld      hl,0c416h
3bdc cb4e      bit     1,(hl)
3bde 218080    ld      hl,8080h
3be1 ca9c3c    jp      z,3c9ch
3be4 3ef0      ld      a,0f0h
3be6 2113c4    ld      hl,0c413h
3be9 cb66      bit     4,(hl)
3beb 214040    ld      hl,4040h
3bee ca9c3c    jp      z,3c9ch
3bf1 e1        pop     hl
3bf2 10b8      djnz    3bach
3bf4 e5        push    hl
3bf5 cdc05c    call    5cc0h
3bf8 3e0b      ld      a,0bh
3bfa d338      out     (38h),a
3bfc 3e70      ld      a,70h
3bfe d339      out     (39h),a
3c00 3e0c      ld      a,0ch
3c02 d338      out     (38h),a
3c04 3e00      ld      a,00h
3c06 d339      out     (39h),a
3c08 3e06      ld      a,06h
3c0a d338      out     (38h),a
3c0c 3e00      ld      a,00h
3c0e d339      out     (39h),a
3c10 3e0d      ld      a,0dh
3c12 d338      out     (38h),a
3c14 3e0a      ld      a,0ah
3c16 d339      out     (39h),a
3c18 3e08      ld      a,08h
3c1a d338      out     (38h),a
3c1c 3e10      ld      a,10h
3c1e d339      out     (39h),a
3c20 3e0a      ld      a,0ah
3c22 d338      out     (38h),a
3c24 3e10      ld      a,10h
3c26 d339      out     (39h),a
3c28 3e07      ld      a,07h
3c2a d338      out     (38h),a
3c2c 3ed7      ld      a,0d7h
3c2e d339      out     (39h),a
3c30 e1        pop     hl
3c31 e5        push    hl
3c32 cda63c    call    3ca6h
3c35 2865      jr      z,3c9ch
3c37 3e70      ld      a,70h
3c39 2116c4    ld      hl,0c416h
3c3c cb4e      bit     1,(hl)
3c3e 218080    ld      hl,8080h
3c41 2859      jr      z,3c9ch
3c43 3ef0      ld      a,0f0h
3c45 2113c4    ld      hl,0c413h
3c48 cb66      bit     4,(hl)
3c4a 214040    ld      hl,4040h
3c4d 284d      jr      z,3c9ch
3c4f cdc448    call    48c4h
3c52 e1        pop     hl
3c53 e5        push    hl
3c54 3efb      ld      a,0fbh
3c56 010609    ld      bc,0906h
3c59 cd6656    call    5666h
3c5c cdc448    call    48c4h
3c5f 3ec3      ld      a,0c3h
3c61 010609    ld      bc,0906h
3c64 e1        pop     hl
3c65 e5        push    hl
3c66 cd6656    call    5666h
3c69 e1        pop     hl
3c6a 18c5      jr      3c31h
3c6c 0606      ld      b,06h
3c6e c5        push    bc
3c6f e5        push    hl
3c70 cdc448    call    48c4h
3c73 21e0e3    ld      hl,0e3e0h
3c76 116ac1    ld      de,0c16ah
3c79 cd6648    call    4866h
3c7c e1        pop     hl
3c7d 23        inc     hl
3c7e 23        inc     hl
3c7f 11fec0    ld      de,0c0feh
3c82 cd6648    call    4866h
3c85 e5        push    hl
3c86 21ece3    ld      hl,0e3ech
3c89 1142c2    ld      de,0c242h
3c8c cd6648    call    4866h
3c8f cda63c    call    3ca6h
3c92 2807      jr      z,3c9bh
3c94 e1        pop     hl
3c95 c1        pop     bc
3c96 10d6      djnz    3c6eh
3c98 c3383b    jp      3b38h
3c9b c1        pop     bc
3c9c 226fc0    ld      (0c06fh),hl
3c9f f5        push    af
3ca0 cdc05c    call    5cc0h
3ca3 f1        pop     af
3ca4 e1        pop     hl
3ca5 c9        ret     

3ca6 00        nop     
3ca7 2100c4    ld      hl,0c400h
3caa cb96      res     2,(hl)
3cac 3e0b      ld      a,0bh
3cae d338      out     (38h),a
3cb0 3e70      ld      a,70h
3cb2 d339      out     (39h),a
3cb4 3e0c      ld      a,0ch
3cb6 d338      out     (38h),a
3cb8 3e00      ld      a,00h
3cba d339      out     (39h),a
3cbc 3e06      ld      a,06h
3cbe d338      out     (38h),a
3cc0 3e00      ld      a,00h
3cc2 d339      out     (39h),a
3cc4 3e0d      ld      a,0dh
3cc6 d338      out     (38h),a
3cc8 3e0a      ld      a,0ah
3cca d339      out     (39h),a
3ccc 3e08      ld      a,08h
3cce d338      out     (38h),a
3cd0 3e10      ld      a,10h
3cd2 d339      out     (39h),a
3cd4 3e0a      ld      a,0ah
3cd6 d338      out     (38h),a
3cd8 3e10      ld      a,10h
3cda d339      out     (39h),a
3cdc 3e07      ld      a,07h
3cde d338      out     (38h),a
3ce0 3ed7      ld      a,0d7h
3ce2 d339      out     (39h),a
3ce4 af        xor     a
3ce5 2114c4    ld      hl,0c414h
3ce8 cb66      bit     4,(hl)
3cea 210000    ld      hl,0000h
3ced c8        ret     z

3cee 211ac4    ld      hl,0c41ah
3cf1 cb76      bit     6,(hl)
3cf3 281f      jr      z,3d14h
3cf5 3c        inc     a
3cf6 2111c4    ld      hl,0c411h
3cf9 cb4e      bit     1,(hl)
3cfb c8        ret     z

3cfc 2114c4    ld      hl,0c414h
3cff cb56      bit     2,(hl)
3d01 c8        ret     z

3d02 2115c4    ld      hl,0c415h
3d05 cb66      bit     4,(hl)
3d07 c8        ret     z

3d08 2111c4    ld      hl,0c411h
3d0b cb66      bit     4,(hl)
3d0d c8        ret     z

3d0e 2116c4    ld      hl,0c416h
3d11 cb56      bit     2,(hl)
3d13 c9        ret     

3d14 3c        inc     a
3d15 c9        ret     

3d16 e20414    jp      po,1404h
3d19 00        nop     
3d1a 2000      jr      nz,3d1ch
3d1c 14        inc     d
3d1d 05        dec     b
3d1e 7d        ld      a,l
3d1f 00        nop     
3d20 91        sub     c
3d21 010520    ld      bc,2005h
3d24 20cf      jr      nz,3cf5h
3d26 af        xor     a
3d27 32c2c6    ld      (0c6c2h),a
3d2a 328bc5    ld      (0c58bh),a
3d2d cd6a3d    call    3d6ah
3d30 fe02      cp      02h
3d32 3831      jr      c,3d65h
3d34 cd5d3f    call    3f5dh
3d37 3a8bc5    ld      a,(0c58bh)
3d3a 2f        cpl     
3d3b a1        and     c
3d3c e61f      and     1fh
3d3e 2029      jr      nz,3d69h
3d40 cd203f		test_joker
3d43 7b        ld      a,e
3d44 b7        or      a
3d45 201e      jr      nz,3d65h
3d47 3abec0    ld      a,(0c0beh)
3d4a f5        push    af
3d4b cdf63d    call    3df6h
3d4e f1        pop     af
3d4f 3d        dec     a
3d50 32bec0    ld      (0c0beh),a
3d53 cd5d3f    call    3f5dh
3d56 3abec0    ld      a,(0c0beh)
3d59 b7        or      a
3d5a 280d      jr      z,3d69h
3d5c 3a8bc5    ld      a,(0c58bh)
3d5f 2f        cpl     
3d60 a1        and     c
3d61 e61f      and     1fh
3d63 2004      jr      nz,3d69h
3d65 af        xor     a
3d66 32bec0    ld      (0c0beh),a
3d69 c9        ret     

3d6a af        xor     a
3d6b 32bec0    ld      (0c0beh),a
3d6e cd603e		test_quinta
3d71 cdac3e		test_culoare
3d74 cdd93e		test_bucati
3d77 cd203f		test_joker
			test_5ofk
3d7a cb7b      bit     7,e
3d7c 3e04      ld      a,04h
3d7e 2802      jr      z,3d82h
3d80 3e05      ld      a,05h
3d82 21fec0    ld      hl,0c0feh
3d85 010a00    ld      bc,000ah
3d88 edb1      cpir    
3d8a f5        push    af
3d8b c5        push    bc
3d8c 2108c1    ld      hl,0c108h
3d8f 010500    ld      bc,0005h
3d92 edb1      cpir    
3d94 2809      jr      z,3d9fh
3d96 c1        pop     bc
3d97 f1        pop     af
3d98 c2b63d    jp      nz,3db6h
3d9b 3e05      ld      a,05h
3d9d 1813      jr      3db2h
3d9f c1        pop     bc
3da0 f1        pop     af
3da1 79        ld      a,c
3da2 c2ae3d    jp      nz,3daeh
3da5 fe09      cp      09h
3da7 3e0a      ld      a,0ah
3da9 2807      jr      z,3db2h
3dab 3d        dec     a
3dac 1804      jr      3db2h
3dae 3e06      ld      a,06h
3db0 1800      jr      3db2h
3db2 32bec0    ld      (0c0beh),a
3db5 c9        ret     

3db6 0605      ld      b,05h
3db8 dd21bfc0  ld      ix,0c0bfh
3dbc af        xor     a
3dbd dd8600    add     a,(ix+00h)
3dc0 dd23      inc     ix
3dc2 dd23      inc     ix
3dc4 10f7      djnz    3dbdh
3dc6 dd214e3e  ld      ix,3e4eh
3dca 5f        ld      e,a
3dcb 1600      ld      d,00h
3dcd dd19      add     ix,de
3dcf dd7e00    ld      a,(ix+00h)
3dd2 32bec0    ld      (0c0beh),a
3dd5 b7        or      a
3dd6 c8        ret     z

3dd7 fe03      cp      03h
3dd9 d0        ret     nc

3dda fe02      cp      02h
3ddc 3e00      ld      a,00h
3dde 32bec0    ld      (0c0beh),a
3de1 2013      jr      nz,3df6h
3de3 3e02      ld      a,02h
3de5 cd0d3f    call    3f0dh
3de8 0600      ld      b,00h
3dea fe09      cp      09h
3dec 3802      jr      c,3df0h
3dee 0602      ld      b,02h
3df0 32c2c6    ld      (0c6c2h),a
3df3 78        ld      a,b
3df4 18bc      jr      3db2h
3df6 dd21bec0  ld      ix,0c0beh
3dfa 3a8bc5    ld      a,(0c58bh)
3dfd 4f        ld      c,a
3dfe 3e0e      ld      a,0eh
3e00 dd23      inc     ix
3e02 dd23      inc     ix
3e04 ddbe00    cp      (ix+00h)
3e07 2804      jr      z,3e0dh
3e09 cb09      rrc     c
3e0b 18f3      jr      3e00h
3e0d cb09      rrc     c
3e0f 3a8bc5    ld      a,(0c58bh)
3e12 3802      jr      c,3e16h
3e14 3ee0      ld      a,0e0h
3e16 4f        ld      c,a
3e17 dd21bfc0  ld      ix,0c0bfh
3e1b 0605      ld      b,05h
3e1d af        xor     a
3e1e cb09      rrc     c
3e20 3815      jr      c,3e37h
3e22 57        ld      d,a
3e23 3e0e      ld      a,0eh
3e25 ddbe01    cp      (ix+01h)
3e28 7a        ld      a,d
3e29 280c      jr      z,3e37h
3e2b ddbe01    cp      (ix+01h)
3e2e 3007      jr      nc,3e37h
3e30 dd7e01    ld      a,(ix+01h)
3e33 dde5      push    ix
3e35 fde1      pop     iy
3e37 dd23      inc     ix
3e39 dd23      inc     ix
3e3b 10e1      djnz    3e1eh
3e3d 0601      ld      b,01h
3e3f fe09      cp      09h
3e41 3802      jr      c,3e45h
3e43 0602      ld      b,02h
3e45 3e02      ld      a,02h
3e47 fd7700    ld      (iy+00h),a
3e4a 78        ld      a,b
3e4b c3b23d    jp      3db2h
3e4e 00        nop     
3e4f 00        nop     
3e50 00        nop     
3e51 00        nop     
3e52 010004    ld      bc,0400h
3e55 02        ld      (bc),a
3e56 07        rlca    
3e57 03        inc     bc
3e58 08        ex      af,af'
3e59 04        inc     b
3e5a 00        nop     
3e5b 07        rlca    
3e5c 00        nop     
3e5d 00        nop     
3e5e 0b        dec     bc
3e5f 08        ex      af,af'

3e9e 0c        inc     c
3e9f 0b        dec     bc
3ea0 0a        ld      a,(bc)
3ea1 09        add     hl,bc
3ea2 08        ex      af,af'
3ea3 07        rlca    
3ea4 0605      ld      b,05h
3ea6 04        inc     b
3ea7 03        inc     bc
3ea8 02        ld      (bc),a
3ea9 01000c    ld      bc,0c00h

3eac 2108c1    ld      hl,0c108h
3eaf dd21c5c6  ld      ix,0c6c5h
3eb3 0605      ld      b,05h
3eb5 c5        push    bc
3eb6 dde5      push    ix
3eb8 010005    ld      bc,0500h
3ebb dd7e01    ld      a,(ix+01h)
3ebe dd21c5c6  ld      ix,0c6c5h
3ec2 ddbe01    cp      (ix+01h)
3ec5 dd23      inc     ix
3ec7 dd23      inc     ix
3ec9 2001      jr      nz,3ecch
3ecb 0c        inc     c
3ecc 10f4      djnz    3ec2h
3ece 71        ld      (hl),c
3ecf dde1      pop     ix
3ed1 dd23      inc     ix
3ed3 dd23      inc     ix
3ed5 23        inc     hl
3ed6 c1        pop     bc
3ed7 10dc      djnz    3eb5h

3ed9 0605      ld      b,05h
3edb fd21bfc0  ld      iy,0c0bfh
3edf 21c5c6    ld      hl,0c6c5h
3ee2 dd21c5c6  ld      ix,0c6c5h
3ee6 7e        ld      a,(hl)
3ee7 57        ld      d,a
3ee8 1e00      ld      e,00h
3eea c5        push    bc
3eeb fe0e      cp      0eh
3eed 280e      jr      z,3efdh
3eef 0605      ld      b,05h
3ef1 ddbe00    cp      (ix+00h)
3ef4 2001      jr      nz,3ef7h
3ef6 1c        inc     e
3ef7 dd23      inc     ix
3ef9 dd23      inc     ix
3efb 10f4      djnz    3ef1h
3efd c1        pop     bc
3efe fd7300    ld      (iy+00h),e
3f01 fd7201    ld      (iy+01h),d
3f04 fd23      inc     iy
3f06 fd23      inc     iy
3f08 23        inc     hl
3f09 23        inc     hl
3f0a 10d6      djnz    3ee2h
3f0c c9        ret     

3f0d dd21bfc0  ld      ix,0c0bfh
3f11 ddbe00    cp      (ix+00h)
3f14 2806      jr      z,3f1ch
3f16 dd23      inc     ix
3f18 dd23      inc     ix
3f1a 18f5      jr      3f11h
3f1c dd7e01    ld      a,(ix+01h)
3f1f c9        ret     

3f20 1e80      ld      e,80h
3f22 3e0e      ld      a,0eh
3f24 dd21bfc0  ld      ix,0c0bfh
3f28 ddbe01    cp      (ix+01h)
3f2b 2815      jr      z,3f42h
3f2d ddbe03    cp      (ix+03h)
3f30 2810      jr      z,3f42h
3f32 ddbe05    cp      (ix+05h)
3f35 280b      jr      z,3f42h
3f37 ddbe07    cp      (ix+07h)
3f3a 2806      jr      z,3f42h
3f3c ddbe09    cp      (ix+09h)
3f3f 2801      jr      z,3f42h
3f41 c9        ret     

3f42 1e00      ld      e,00h
3f44 c9        ret     

3f5d 3abec0    ld      a,(0c0beh)
3f60 0e00      ld      c,00h
3f62 a7        and     a
3f63 2820      jr      z,3f85h
3f65 fe08      cp      08h
3f67 2807      jr      z,3f70h
3f69 fe05      cp      05h
3f6b 3803      jr      c,3f70h
3f6d 0e1f      ld      c,1fh
3f6f c9        ret     

3f70 21c7c0    ld      hl,0c0c7h
3f73 010005    ld      bc,0500h
3f76 7e        ld      a,(hl)
3f77 2b        dec     hl
3f78 2b        dec     hl
3f79 fe00      cp      00h
3f7b 2802      jr      z,3f7fh
3f7d fe02      cp      02h
3f7f 3f        ccf     
3f80 cb11      rl      c
3f82 10f2      djnz    3f76h
3f84 c9        ret     

3f85 cd203f		test_joker
			test_careu
3f9b c2b93f    jp      nz,3fb9h
3f9e 010600    ld      bc,0006h
3fa1 2108c1    ld      hl,0c108h
3fa4 dd21bdc0  ld      ix,0c0bdh
3fa8 eda1      cpi     
3faa dd23      inc     ix
3fac dd23      inc     ix
3fae e2703f    jp      po,3f70h
3fb1 20f5      jr      nz,3fa8h
3fb3 dd360002  ld      (ix+00h),02h
3fb7 18ef      jr      3fa8h
3fb9 fd219f3e  ld      iy,3e9fh
3fbd dd21c5c6  ld      ix,0c6c5h
3fc1 0609      ld      b,09h
3fc3 c5        push    bc
3fc4 fde5      push    iy
3fc6 010104    ld      bc,0401h
3fc9 fd7e00    ld      a,(iy+00h)
3fcc ddbe00    cp      (ix+00h)
3fcf 2815      jr      z,3fe6h
3fd1 ddbe02    cp      (ix+02h)
3fd4 2810      jr      z,3fe6h
3fd6 ddbe04    cp      (ix+04h)
3fd9 280b      jr      z,3fe6h
3fdb ddbe06    cp      (ix+06h)
3fde 2806      jr      z,3fe6h
3fe0 ddbe08    cp      (ix+08h)
3fe3 2801      jr      z,3fe6h
3fe5 0c        inc     c
3fe6 fd23      inc     iy
3fe8 10df      djnz    3fc9h
3fea fde1      pop     iy
3fec fd23      inc     iy
3fee 0d        dec     c
3fef c1        pop     bc
3ff0 2804      jr      z,3ff6h
3ff2 10cf      djnz    3fc3h
3ff4 1826      jr      401ch
3ff6 fde5      push    iy
3ff8 e1        pop     hl
3ff9 2b        dec     hl
3ffa 0605      ld      b,05h
3ffc c5        push    bc
3ffd dd21bfc0  ld      ix,0c0bfh
4001 0605      ld      b,05h
4003 7e        ld      a,(hl)
4004 ddbe01    cp      (ix+01h)
4007 2006      jr      nz,400fh
4009 dd360002  ld      (ix+00h),02h
400d 1806      jr      4015h
400f dd23      inc     ix
4011 dd23      inc     ix
4013 10ef      djnz    4004h
4015 23        inc     hl
4016 c1        pop     bc
4017 10e3      djnz    3ffch
4019 c3703f    jp      3f70h
401c cdd93e    call    3ed9h
401f c3703f    jp      3f70h
4022 cf        rst     08h
4023 3ad8c0    ld      a,(0c0d8h)
4026 a9        xor     c
4027 32d8c0    ld      (0c0d8h),a
402a 0600      ld      b,00h
402c cb19      rr      c
402e 04        inc     b
402f 30fb      jr      nc,402ch
4031 3e40      ld      a,40h
4033 110900    ld      de,0009h
4036 83        add     a,e
4037 10fd      djnz    4036h
4039 5f        ld      e,a
403a 21da46    ld      hl,46dah
403d 0e1f      ld      c,1fh
403f cdf807    call    07f8h
404b cdd308		dreptunghi	eda8,36,1,0
404e 3ad8c0    ld      a,(0c0d8h)
4051 4f        ld      c,a
4052 11be63    ld      de,63beh
4055 cd4e5b    call    5b4eh
4058 2100ff    ld      hl,0ff00h
405b 3ad8c0    ld      a,(0c0d8h)
405e e61f      and     1fh
4060 b5        or      l
4061 6f        ld      l,a
4062 226fc0    ld      (0c06fh),hl
4065 c9        ret     

4066 cf        rst     08h
4067 dd21dfc4  ld      ix,0c4dfh
406b cde304    cmp	x,0
406e 2811      jr      z,4081h
4073 cd9f00    sleep	10
4076 dd21f1c4  ld      ix,0c4f1h
407a fd21dfc4  ld      iy,0c4dfh
407e cdfc5b    call    5bfch
4081 dd21dfc4  ld      ix,0c4dfh
4085 cd5a04    x=0
4088 211ac4    ld      hl,0c41ah
408b cb9e      res     3,(hl)
408d c9        ret     

408e			dreptunghi	eda8,36,1,0
409d cd3601		sterg	586dh
40a9 cdd308		dreptunghi	e8a8,36,1,0
40ac 210000    ld      hl,0000h
40af 226fc0    ld      (0c06fh),hl
40b2 2100c4    ld      hl,0c400h
40b5 cb96      res     2,(hl)
40b7 2112c4    ld      hl,0c412h
40ba cb56      bit     2,(hl)
40bc ca9d41    jp      z,419dh
40bf 3e00      ld      a,00h
40c1 327cc0    ld      (0c07ch),a
40c4 dd2197c0  ld      ix,0c097h
40cb cdeb04    x=2500
40ce fd21f1c4  ld      iy,0c4f1h
40d2 dd219ac0  ld      ix,0c09ah
40d6 cdb904    x=y
40d9 dd2197c0  ld      ix,0c097h
40dd fd21f1c4  ld      iy,0c4f1h
40e1 cdcd04    cmp	x,y
40e4 300a      jr      nc,40f0h
40e6 dd219ac0  ld      ix,0c09ah
40ed cdeb04    x=2000
40f0 af        xor     a
40f1 32b8c0    ld      (0c0b8h),a
40f4 114222    ld      de,2242h
40f7 0e01      ld      c,01h
40f9 cd0901		inser	2242h
40fc 2100c4    ld      hl,0c400h
40ff cbe6      set     4,(hl)
4101 2119c4    ld      hl,0c419h
4104 cbc6      set     0,(hl)
4109 cd9f00    sleep	5
410c 2115c4    ld      hl,0c415h
410f cb5e      bit     3,(hl)
4111 280c      jr      z,411fh
4113 2116c4    ld      hl,0c416h
4116 cb5e      bit     3,(hl)
4118 2011      jr      nz,412bh
411a 217023    ld      hl,2370h
411d 180f      jr      412eh
411f 2116c4    ld      hl,0c416h
4122 cb5e      bit     3,(hl)
4124 2805      jr      z,412bh
4126 218523    ld      hl,2385h
4129 1803      jr      412eh
412b 219a23    ld      hl,239ah
412e 2290c0    ld      (0c090h),hl
4131 dd218cc0  ld      ix,0c08ch
4135 dd360045  ld      (ix+00h),45h
4139 3e41      ld      a,41h
413b ddbe00    cp      (ix+00h)
413e 20f9      jr      nz,4139h
4143 cd9f00    sleep	7
4149 cd3601		sterg	2242h
414c cdc05c    call    5cc0h
414f dd218cc0  ld      ix,0c08ch
4153 ddcb014e  bit     1,(ix+01h)
4157 2018      jr      nz,4171h
4159 ddcb0156  bit     2,(ix+01h)
415d 200d      jr      nz,416ch
415f 2100c4    ld      hl,0c400h
4162 cba6      res     4,(hl)
4164 2119c4    ld      hl,0c419h
4167 cb86      res     0,(hl)
4169 c3d815    jp      15d8h
416c cde25a    call    5ae2h
416f 180d      jr      417eh
4171 2100c4    ld      hl,0c400h
4174 cba6      res     4,(hl)
4176 2119c4    ld      hl,0c419h
4179 cb86      res     0,(hl)
417b cdeb5a    call    5aebh
417e 2117c4    ld      hl,0c417h
4181 cb66      bit     4,(hl)
4183 cae429    jp      z,29e4h
4186 2111c4    ld      hl,0c411h
4189 cb56      bit     2,(hl)
418b 2807      jr      z,4194h
418d 2113c4    ld      hl,0c413h
4190 cb56      bit     2,(hl)
4192 20ea      jr      nz,417eh
4194 cdd45b    call    5bd4h
4197 cdce5b    call    5bceh
419a c3f425    jp      25f4h
419d fd21f1c4  ld      iy,0c4f1h
41a1 dd21f4c4  ld      ix,0c4f4h
41a5 cd1a04    x=x+y
41a8 dd21f1c4  ld      ix,0c4f1h
41ac cd5a04    x=0
41af 2117c4    ld      hl,0c417h
41b2 cb66      bit     4,(hl)
41b4 28f9      jr      z,41afh
41b6 c3d815    jp      15d8h
41c2 cdd308		dreptunghi	eda8,36,1,0
41c8 cd3601		sterg	586dh
41d4 cdd308		dreptunghi	e8a8,36,1,0
41d7 210000    ld      hl,0000h
41da 226fc0    ld      (0c06fh),hl
41dd 2100c4    ld      hl,0c400h
41e0 cb96      res     2,(hl)
41e2 2112c4    ld      hl,0c412h
41e5 cb56      bit     2,(hl)
41e7 ca9d41    jp      z,419dh
41ea fd21f1c4  ld      iy,0c4f1h
41ee dd21c1c4  ld      ix,0c4c1h
41f2 cd1a04    x=x+y
41f5 dd21afc4  ld      ix,0c4afh
41f9 cd1a04    x=x+y
41fc dd21acc4  ld      ix,0c4ach
4200 cd1a04    x=x+y
4203 1898      jr      419dh
4205 cf        rst     08h
4206 211ac4    ld      hl,0c41ah
4209 cb86      res     0,(hl)
4214 cd8e08		bitmap	ee28,4249,4,4		;minibonus
4217 cd2042    	dolar
421a 211ac4    ld      hl,0c41ah
421d cbc6      set     0,(hl)
421f c9        ret     

4220 211ac4    ld      hl,0c41ah
4223 cb5e      bit     3,(hl)
4225 2806      jr      z,422dh
4227 214143    ld      hl,4341h
422a 1804      jr      4230h
422c c9        ret     

422d 217942    ld      hl,4279h
4230 113eee    ld      de,0ee3eh
4233 0604      ld      b,04h
4235 c5        push    bc
4236 d5        push    de
4237 013200    ld      bc,0032h
423a edb0      ldir    
423c d1        pop     de
423d c1        pop     bc
423e 7b        ld      a,e
423f c680      add     a,80h
4241 5f        ld      e,a
4242 7a        ld      a,d
4243 ce00      adc     a,00h
4245 57        ld      d,a
4246 10ed      djnz    4235h
4248 c9        ret     

4249 c7        rst     00h
424a cbcb      set     1,e
424c cbcb      set     1,e
424e cbcb      set     1,e
4250 cbcb      set     1,e
4252 cbc8      set     1,b
4254 24        inc     h
4255 ce4d      adc     a,4dh
4257 49        ld      c,c
4258 4e        ld      c,(hl)
4259 49        ld      c,c
425a 42        ld      b,d
425b 4f        ld      c,a
425c 4e        ld      c,(hl)
425d 55        ld      d,l
425e 53        ld      d,e
425f cc24ce    call    z,0ce24h
4262 2020      jr      nz,4284h
4264 2020      jr      nz,4286h
4266 2020      jr      nz,4288h
4268 2020      jr      nz,428ah
426a 20cc      jr      nz,4238h
426c 24        inc     h
426d cacdcd    jp      z,0cdcdh
4270 cdcdcd    call    0cdcdh
4273 cdcdcd    call    0cdcdh
4276 cdc924    call    24c9h
4279 cf        rst     08h
427a 00        nop     
427b d600      sub     00h
427d d600      sub     00h
427f d600      sub     00h
4281 d600      sub     00h
4283 d600      sub     00h
4285 d600      sub     00h
4287 d600      sub     00h
4289 d600      sub     00h
428b d0        ret     nc

428c 00        nop     
428d cf        rst     08h
428e 00        nop     
428f d600      sub     00h
4291 d600      sub     00h
4293 d600      sub     00h
4295 d600      sub     00h
4297 d600      sub     00h
4299 d600      sub     00h
429b d600      sub     00h
429d d600      sub     00h
429f d600      sub     00h
42a1 d600      sub     00h
42a3 d600      sub     00h
42a5 d600      sub     00h
42a7 d600      sub     00h
42a9 d0        ret     nc

42aa 00        nop     
42ab d5        push    de
42ac 00        nop     
42ad df        rst     18h
42ae 00        nop     
42af 27        daa     
42b0 00        nop     
42b1 6b        ld      l,e
42b2 00        nop     
42b3 03        inc     bc
42b4 00        nop     
42b5 03        inc     bc
42b6 00        nop     
42b7 03        inc     bc
42b8 00        nop     
42b9 03        inc     bc
42ba 00        nop     
42bb 03        inc     bc
42bc 00        nop     
42bd d300      out     (00h),a
42bf d5        push    de
42c0 00        nop     
42c1 210023    ld      hl,2300h
42c4 00        nop     
42c5 27        daa     
42c6 00        nop     
42c7 3b        dec     sp
42c8 00        nop     
42c9 67        ld      h,a
42ca 00        nop     
42cb 6b        ld      l,e
42cc 00        nop     
42cd 03        inc     bc
42ce 00        nop     
42cf 03        inc     bc
42d0 00        nop     
42d1 03        inc     bc
42d2 00        nop     
42d3 03        inc     bc
42d4 00        nop     
42d5 03        inc     bc
42d6 00        nop     
42d7 03        inc     bc
42d8 00        nop     
42d9 03        inc     bc
42da 00        nop     
42db d300      out     (00h),a
42dd d5        push    de
42de 00        nop     
42df e0        ret     po

42e0 00        nop     
42e1 2a006c    ld      hl,(6c00h)
42e4 00        nop     
42e5 03        inc     bc
42e6 00        nop     
42e7 03        inc     bc
42e8 00        nop     
42e9 03        inc     bc
42ea 00        nop     
42eb 03        inc     bc
42ec 00        nop     
42ed 03        inc     bc
42ee 00        nop     
42ef d300      out     (00h),a
42f1 d5        push    de
42f2 00        nop     
42f3 220026    ld      (2600h),hl
42f6 00        nop     
42f7 2a003c    ld      hl,(3c00h)
42fa 00        nop     
42fb 6a        ld      l,d
42fc 00        nop     
42fd 6c        ld      l,h
42fe 00        nop     
42ff 03        inc     bc
4300 00        nop     
4301 03        inc     bc
4302 00        nop     
4303 03        inc     bc
4304 00        nop     
4305 03        inc     bc
4306 00        nop     
4307 03        inc     bc
4308 00        nop     
4309 03        inc     bc
430a 00        nop     
430b 03        inc     bc
430c 00        nop     
430d d300      out     (00h),a
430f d200d4    jp      nc,0d400h
4312 00        nop     
4313 d400d4    call    nc,0d400h
4316 00        nop     
4317 d400d4    call    nc,0d400h
431a 00        nop     
431b d400d4    call    nc,0d400h
431e 00        nop     
431f d400d1    call    nc,0d100h
4322 00        nop     
4323 d200d4    jp      nc,0d400h
4326 00        nop     
4327 d400d4    call    nc,0d400h
432a 00        nop     
432b d400d4    call    nc,0d400h
432e 00        nop     
432f d400d4    call    nc,0d400h
4332 00        nop     
4333 d400d4    call    nc,0d400h
4336 00        nop     
4337 d400d4    call    nc,0d400h
433a 00        nop     
433b d400d4    call    nc,0d400h
433e 00        nop     
433f d1        pop     de
4340 00        nop     
4341 cf        rst     08h
4342 10d6      djnz    431ah
4344 10d6      djnz    431ch
4346 10d6      djnz    431eh
4348 10d6      djnz    4320h
434a 10d6      djnz    4322h
434c 10d6      djnz    4324h
434e 10d6      djnz    4326h
4350 10d6      djnz    4328h
4352 10d6      djnz    432ah
4354 10d0      djnz    4326h
4356 10cf      djnz    4327h
4358 00        nop     
4359 d600      sub     00h
435b d600      sub     00h
435d d600      sub     00h
435f d600      sub     00h
4361 d600      sub     00h
4363 d600      sub     00h
4365 d600      sub     00h
4367 d600      sub     00h
4369 d600      sub     00h
436b d600      sub     00h
436d d600      sub     00h
436f d600      sub     00h
4371 d0        ret     nc

4372 00        nop     
4373 d5        push    de
4374 106d      djnz    43e3h
4376 1067      djnz    43dfh
4378 106f      djnz    43e9h
437a 1003      djnz    437fh
437c 1003      djnz    4381h
437e 1003      djnz    4383h
4380 1003      djnz    4385h
4382 1003      djnz    4387h
4384 1003      djnz    4389h
4386 10d3      djnz    435bh
4388 10d5      djnz    435fh
438a 00        nop     
438b 210023    ld      hl,2300h
438e 00        nop     
438f 27        daa     
4390 00        nop     
4391 3b        dec     sp
4392 00        nop     
4393 67        ld      h,a
4394 00        nop     
4395 6b        ld      l,e
4396 00        nop     
4397 03        inc     bc
4398 00        nop     
4399 03        inc     bc
439a 00        nop     
439b 03        inc     bc
439c 00        nop     
439d 03        inc     bc
439e 00        nop     
439f 03        inc     bc
43a0 00        nop     
43a1 03        inc     bc
43a2 00        nop     
43a3 d300      out     (00h),a
43a5 d5        push    de
43a6 106e      djnz    4416h
43a8 106a      djnz    4414h
43aa 1070      djnz    441ch
43ac 1003      djnz    43b1h
43ae 1003      djnz    43b3h
43b0 1003      djnz    43b5h
43b2 1003      djnz    43b7h
43b4 1003      djnz    43b9h
43b6 1003      djnz    43bbh
43b8 10d3      djnz    438dh
43ba 10d5      djnz    4391h
43bc 00        nop     
43bd 220026    ld      (2600h),hl
43c0 00        nop     
43c1 2a003c    ld      hl,(3c00h)
43c4 00        nop     
43c5 6a        ld      l,d
43c6 00        nop     
43c7 6c        ld      l,h
43c8 00        nop     
43c9 03        inc     bc
43ca 00        nop     
43cb 03        inc     bc
43cc 00        nop     
43cd 03        inc     bc
43ce 00        nop     
43cf 03        inc     bc
43d0 00        nop     
43d1 03        inc     bc
43d2 00        nop     
43d3 03        inc     bc
43d4 00        nop     
43d5 d300      out     (00h),a
43d7 d210d4    jp      nc,0d410h
43da 10d4      djnz    43b0h
43dc 10d4      djnz    43b2h
43de 10d4      djnz    43b4h
43e0 10d4      djnz    43b6h
43e2 10d4      djnz    43b8h
43e4 10d4      djnz    43bah
43e6 10d4      djnz    43bch
43e8 10d4      djnz    43beh
43ea 10d1      djnz    43bdh
43ec 10d2      djnz    43c0h
43ee 00        nop     
43ef d400d4    call    nc,0d400h
43f2 00        nop     
43f3 d400d4    call    nc,0d400h
43f6 00        nop     
43f7 d400d4    call    nc,0d400h
43fa 00        nop     
43fb d400d4    call    nc,0d400h
43fe 00        nop     
43ff d400d4    call    nc,0d400h
4402 00        nop     
4403 d400d4    call    nc,0d400h
4406 00        nop     
4407 d1        pop     de
4408 00        nop     
4409 cf        rst     08h

440A cdd308		dreptunghi	e828,36,1,0
441f cdd308		dreptunghi	e7a8,4,13,30ch
442b cdd308		dreptunghi	e7e6,5,13,30ch
443c dd21d9c4  ld      ix,0c4d9h
4440 cdcd04    cmp	x,100
4443 f5        push    af
4444 3040      jr      nc,4486h
444f cdd308		dreptunghi	e732,25,1,4
445b cdd308		dreptunghi	e6b2,3,9,4
4467 cdd308		dreptunghi	e6ce,2,10,4
4473 cdd308		dreptunghi	e6de,3,10,4
447f cdd308		dreptunghi	e232,25,1,4
4482 0e04      ld      c,04h
4484 183e      jr      44c4h
4486 cdd308		dreptunghi	e732,25,1,58h
449b cdd308		dreptunghi	e6b2,3,9,58h
44a7 cdd308		dreptunghi	e6ce,2,10,58h
44b3 cdd308		dreptunghi	e6de,3,10,58h
44bf cdd308		dreptunghi	e232,25,1,58h
44c2 0efc      ld      c,0fch
44c4 dd21b0e7  ld      ix,0e7b0h
44c8 dd3600ca  ld      (ix+00h),0cah
44cc dd7101    ld      (ix+01h),c
44cf dd3634c9  ld      (ix+34h),0c9h
44d3 dd7135    ld      (ix+35h),c
44d8 cd0a45		linie25	a
44db 1180ff    ld      de,0ff80h
44de 060b      ld      b,0bh
44e0 dd19      add     ix,de
44e2 dd3600ce  ld      (ix+00h),0ceh
44e6 dd7101    ld      (ix+01h),c
44e9 dd3634cc  ld      (ix+34h),0cch
44ed dd7135    ld      (ix+35h),c
44f0 10ee      djnz    44e0h
44f2 dd19      add     ix,de
44f4 dd3600c7  ld      (ix+00h),0c7h
44f8 dd7101    ld      (ix+01h),c
44fb dd3634c8  ld      (ix+34h),0c8h
44ff dd7135    ld      (ix+35h),c
4504 cd0a4		linie25	cb
4507 c31845    jp      4518h

450a dde5      push    ix
450c e1        pop     hl
450d 2c        inc     l
450e 2c        inc     l
450f 0619      ld      b,19h
4511 77        ld      (hl),a
4512 2c        inc     l
4513 71        ld      (hl),c
4514 2c        inc     l
4515 10fa      djnz    4511h
4517 c9        ret     

4518 f1        pop     af
4519 0e04      ld      c,04h
451b 3802      jr      c,451fh
451d 0e58      ld      c,58h
451f 0609      ld      b,09h
4527 fd217145  ld      iy,4571h
452b cd8208		liniebmp	e6b8,4585		;afisare '2 pair'
452e c5        push    bc
452f fde5      push    iy
4531 d5        push    de
4532 e5        push    hl
4533 c5        push    bc
4534 e5        push    hl
4535 fd6e00    ld      l,(iy+00h)
4538 fd6601    ld      h,(iy+01h)
453b dd2197c0  ld      ix,0c097h
453f cdeb04    x=hl
4542 fd21d9c4  ld      iy,0c4d9h
4546 dd2197c0  ld      ix,0c097h
454a cd2c05    x=x*y
454d fd2197c0  ld      iy,0c097h
4551 dde1      pop     ix
4553 110400    ld      de,0004h
4556 dd19      add     ix,de
4558 d1        pop     de
4559 1604      ld      d,04h
455b cd9e08		ascii	d,e
455e e1        pop     hl
455f 116aff    ld      de,0ff6ah
4562 19        add     hl,de
4563 d1        pop     de
4564 fde1      pop     iy
4566 c1        pop     bc
4567 fd23      inc     iy
4569 fd23      inc     iy
456b 13        inc     de
456c 10bd      djnz    452bh
456e c9        ret     

456f 00        nop     
4570 00        nop     
4571 03        inc     bc
4572 00        nop     
4573 05        dec     b
4574 00        nop     
4575 07        rlca    
4576 00        nop     
4577 09        add     hl,bc
4578 00        nop     
4579 0c        inc     c
457a 00        nop     
457b 2800      jr      z,457dh
457d 50        ld      d,b
457e 00        nop     
457f 96        sub     (hl)
4580 00        nop     
4581 2c        inc     l
4582 019600    ld      bc,0096h
4585 322050    ld      (5020h),a
4588 41        ld      b,c
4589 49        ld      c,c
458a 52        ld      d,d
458b 2020      jr      nz,45adh
458d 2020      jr      nz,45afh
458f 2024      jr      nz,45b5h
4591 33        inc     sp
4592 204f      jr      nz,45e3h
4594 46        ld      b,(hl)
4595 2041      jr      nz,45d8h
4597 204b      jr      nz,45e4h
4599 49        ld      c,c
459a 4e        ld      c,(hl)
459b 44        ld      b,h
459c 24        inc     h
459d 53        ld      d,e
459e 54        ld      d,h
459f 52        ld      d,d
45a0 41        ld      b,c
45a1 49        ld      c,c
45a2 47        ld      b,a
45a3 48        ld      c,b
45a4 54        ld      d,h
45a5 2020      jr      nz,45c7h
45a7 2024      jr      nz,45cdh
45a9 46        ld      b,(hl)
45aa 4c        ld      c,h
45ab 55        ld      d,l
45ac 53        ld      d,e
45ad 48        ld      c,b
45ae 2020      jr      nz,45d0h
45b0 2020      jr      nz,45d2h
45b2 2020      jr      nz,45d4h
45b4 24        inc     h
45b5 46        ld      b,(hl)
45b6 55        ld      d,l
45b7 4c        ld      c,h
45b8 4c        ld      c,h
45b9 2048      jr      nz,4603h
45bb 4f        ld      c,a
45bc 55        ld      d,l
45bd 53        ld      d,e
45be 45        ld      b,l
45bf 2024      jr      nz,45e5h
45c1 34        inc     (hl)
45c2 204f      jr      nz,4613h
45c4 46        ld      b,(hl)
45c5 2041      jr      nz,4608h
45c7 204b      jr      nz,4614h
45c9 49        ld      c,c
45ca 4e        ld      c,(hl)
45cb 44        ld      b,h
45cc 24        inc     h
45cd 53        ld      d,e
45ce 54        ld      d,h
45cf 52        ld      d,d
45d0 2046      jr      nz,4618h
45d2 4c        ld      c,h
45d3 55        ld      d,l
45d4 53        ld      d,e
45d5 48        ld      c,b
45d6 2020      jr      nz,45f8h
45d8 24        inc     h
45d9 52        ld      d,d
45da 4f        ld      c,a
45db 59        ld      e,c
45dc 41        ld      b,c
45dd 4c        ld      c,h
45de 2046      jr      nz,4626h
45e0 4c        ld      c,h
45e1 55        ld      d,l
45e2 53        ld      d,e
45e3 48        ld      c,b
45e4 24        inc     h
45e5 35        dec     (hl)
45e6 204f      jr      nz,4637h
45e8 46        ld      b,(hl)
45e9 2041      jr      nz,462ch
45eb 204b      jr      nz,4638h
45ed 49        ld      c,c
45ee 4e        ld      c,(hl)
45ef 44        ld      b,h
45f0 24        inc     h
45f1 ce20      adc     a,20h
45f3 2020      jr      nz,4615h
45f5 2020      jr      nz,4617h
45f7 2020      jr      nz,4619h
45f9 2020      jr      nz,461bh
45fb 2020      jr      nz,461dh
45fd 2020      jr      nz,461fh
45ff 2020      jr      nz,4621h
4601 2020      jr      nz,4623h
4603 2020      jr      nz,4625h
4605 2020      jr      nz,4627h
4607 2020      jr      nz,4629h
4609 2020      jr      nz,462bh
460b cc24cf    call    z,0cf24h
460e dd21bc46  ld      ix,46bch
4612 060f      ld      b,0fh
4614 2ad9c4    ld      hl,(0c4d9h)
4617 dd5e00    ld      e,(ix+00h)
461a dd5601    ld      d,(ix+01h)
461d af        xor     a
461e ed52      sbc     hl,de
4620 380a      jr      c,462ch
4622 dd23      inc     ix
4624 dd23      inc     ix
4626 10ec      djnz    4614h
4628 dd21bc46  ld      ix,46bch
462c dd6e00    ld      l,(ix+00h)
462f dd6601    ld      h,(ix+01h)
4632 2294c0    ld      (0c094h),hl
4635 af        xor     a
4636 3296c0    ld      (0c096h),a
4639 dd2194c0  ld      ix,0c094h
463d fd2184c5  ld      iy,0c584h
4641 cdcd04    cmp	x,y
4644 381a      jr      c,4660h
4646 dd2187c5  ld      ix,0c587h
464a fd2194c0  ld      iy,0c094h
464e cdcd04    cmp	x,y
4651 380d      jr      c,4660h
4653 dd21f1c4  ld      ix,0c4f1h
4657 fd2194c0  ld      iy,0c094h
465b cdcd04    cmp	x,y
465e 300b      jr      nc,466bh
4660 fd2184c5  ld      iy,0c584h
4664 dd2194c0  ld      ix,0c094h
4668 cdb904    x=y
466b fd2194c0  ld      iy,0c094h
466f dd21d9c4  ld      ix,0c4d9h
4673 cdb904    x=y
4676 cd0a44    call    440ah
4679 0e10      ld      c,10h
467b 21da46    ld      hl,46dah
467e 110001    ld      de,0100h
4681 cdf907    call    07f9h
4684 3ad9c4    ld      a,(0c4d9h)
4687 e60f      and     0fh
4689 211500    ld      hl,0015h
468c 2003      jr      nz,4691h
468e 212300    ld      hl,0023h
4691 3adac4    ld      a,(0c4dah)
4694 a7        and     a
4695 110000    ld      de,0000h
4698 2803      jr      z,469dh
469a 111000    ld      de,0010h
469d 19        add     hl,de
469e 2202c0		counter=hl
46a1 cd9700		testwait
46a4 c8        ret     z

46a5 2116c4    ld      hl,0c416h
46a8 cb4e      bit     1,(hl)
46aa 28f5      jr      z,46a1h
46ac 3a60c0    ld      a,(0c060h)
46af e6c0      and     0c0h
46b1 c8        ret     z

46b2 2116c4    ld      hl,0c416h
46b5 cb4e      bit     1,(hl)
46b7 ca0e46    jp      z,460eh
46ba 18f0      jr      46ach
46bc 010002    ld      bc,0200h
46bf 00        nop     
46c0 03        inc     bc
46c1 00        nop     
46c2 04        inc     b
46c3 00        nop     
46c4 05        dec     b
46c5 00        nop     
46c6 1000      djnz    46c8h
46c8 2000      jr      nz,46cah
46ca 3000      jr      nc,46cch
46cc 40        ld      b,b
46cd 00        nop     
46ce 50        ld      d,b
46cf 00        nop     
46d0 00        nop     
46d1 010002    ld      bc,0200h
46d4 00        nop     
46d5 03        inc     bc
46d6 00        nop     
46d7 04        inc     b
46d8 00        nop     
46d9 05        dec     b
46da 89        adc     a,c
46db 00        nop     
46dc 0a        ld      a,(bc)
46dd 00        nop     
46de 00        nop     
46df 00        nop     
46e0 06cf      ld      b,0cfh
46e2 2119c4    ld      hl,0c419h
46e5 cb66      bit     4,(hl)
46e7 c24147    jp      nz,4741h
46ea 2119c4    ld      hl,0c419h
46ed cb5e      bit     3,(hl)
46ef c49b47    call    nz,479bh
46f2 cda75c    call    5ca7h
46f5 0605      ld      b,05h
46f7 212ae9    ld      hl,0e92ah
46fa 110e00    ld      de,000eh
46fd cd570e    call    0e57h
4700 19        add     hl,de
4701 10fa      djnz    46fdh
4703 3e00      ld      a,00h
4705 32d8c0    ld      (0c0d8h),a
4708 32dcc0    ld      (0c0dch),a
470b cd3953    call    5339h
470e cd263d    call    3d26h
4711 212ae9    ld      hl,0e92ah
4714 0605      ld      b,05h
4716 dd21c5c6  ld      ix,0c6c5h

471a c5        push    bc
471b cda65c		carte_snd
471e dd4e00    ld      c,(ix+00h)
4721 dd4601    ld      b,(ix+01h)
4724 cde808    call    08e8h
4727 110e00    ld      de,000eh
472a 19        add     hl,de
472b dd23      inc     ix
472d dd23      inc     ix
472f e5        push    hl
4730 1e06      ld      e,06h
4732 cdde4b    call    4bdeh
4735 1e0a      ld      e,0ah
4737 cda749    call    49a7h
473a e1        pop     hl
473b c1        pop     bc
473c 10dc      djnz    471ah
473e c3c05c    jp      5cc0h
4741 3e01      ld      a,01h
4743 32dcc0    ld      (0c0dch),a
4746 cda75c    call    5ca7h
4749 3ad8c0    ld      a,(0c0d8h)
474c 4f        ld      c,a
474d 0605      ld      b,05h
474f 212ae9    ld      hl,0e92ah
4752 110e00    ld      de,000eh
4755 cb19      rr      c
4757 d4570e    call    nc,0e57h
475a 19        add     hl,de
475b 10f8      djnz    4755h
475d 210b00		sleep	11
4763 cd7d53    call    537dh
4766 cd263d    call    3d26h
4769 212ae9    ld      hl,0e92ah
476c 0605      ld      b,05h		;5 carti
476e 3ad8c0    ld      a,(0c0d8h)
4771 4f        ld      c,a
4772 dd21c5c6  ld      ix,0c6c5h	;adresa carti
						;afisare carti noi
4776 cb19      rr      c
4778 3816      jr      c,4790h
477a c5        push    bc
477b e5        push    hl
477c cda65c		carte_snd
477f dd4e00    ld      c,(ix+00h)
4782 dd4601    ld      b,(ix+01h)
4785 cde808    call    08e8h
4788 210a00		sleep	10
478e e1        pop     hl
478f c1        pop     bc
4790 110e00    ld      de,000eh
4793 19        add     hl,de
4794 dd23      inc     ix
4796 dd23      inc     ix
4798 10dc      djnz    4776h
479a c9        ret     

479b cdc05c    call    5cc0h
479e 21bd48    ld      hl,48bdh
47a1 013907    ld      bc,0739h
47a4 3e06      ld      a,06h
47a6 3c        inc     a
47a7 d338      out     (38h),a
47a9 eda3      outi    
47ab 20f9      jr      nz,47a6h
47ad 2119c4    ld      hl,0c419h
47b0 cb5e      bit     3,(hl)
47b2 c2f347    jp      nz,47f3h
47b5 110400    ld      de,0004h
47b8 2162e9    ld      hl,0e962h
47bb 010e00    ld      bc,000eh
47be d5        push    de
47bf 3e06      ld      a,06h
47c1 d338      out     (38h),a
47c3 7a        ld      a,d
47c4 d339      out     (39h),a
47c6 3e05      ld      a,05h
47c8 cd7a48    call    487ah
47cb 0c        inc     c
47cc 0c        inc     c
47cd 0c        inc     c
47ce 0c        inc     c
47cf 11f2ff    ld      de,0fff2h
47d2 19        add     hl,de
47d3 d1        pop     de
47d4 14        inc     d
47d5 1d        dec     e
47d6 20e6      jr      nz,47beh
47d8 1e04      ld      e,04h
47da 212ee9    ld      hl,0e92eh
47dd 011a00    ld      bc,001ah
47e0 d5        push    de
47e1 3e06      ld      a,06h
47e3 d338      out     (38h),a
47e5 7a        ld      a,d
47e6 d339      out     (39h),a
47e8 3e02      ld      a,02h
47ea cd7a48    call    487ah
47ed d1        pop     de
47ee 14        inc     d
47ef 1d        dec     e
47f0 20ee      jr      nz,47e0h
47f2 c9        ret     

47f3 2acbc0    ld      hl,(0c0cbh)
47f6 11fec0    ld      de,0c0feh
47f9 cd5548    call    4855h
47fc 1811      jr      480fh
47fe cdc448    call    48c4h
4801 11aec2    ld      de,0c2aeh
4804 cd6648    call    4866h
4807 2b        dec     hl
4808 2b        dec     hl
4809 11fec0    ld      de,0c0feh
480c cd6648    call    4866h
480f 3e2a      ld      a,2ah
4811 bd        cp      l
4812 20ea      jr      nz,47feh
4814 2119c4    ld      hl,0c419h
4817 cb9e      res     3,(hl)
4819 c9        ret     

481a 060a      ld      b,0ah
481c 3e0b      ld      a,0bh
481e d338      out     (38h),a
4820 3e70      ld      a,70h
4822 d339      out     (39h),a
4824 3e0c      ld      a,0ch
4826 d338      out     (38h),a
4828 3e00      ld      a,00h
482a d339      out     (39h),a
482c 3e06      ld      a,06h
482e d338      out     (38h),a
4830 3e00      ld      a,00h
4832 d339      out     (39h),a
4834 3e0d      ld      a,0dh
4836 d338      out     (38h),a
4838 3e0a      ld      a,0ah
483a d339      out     (39h),a
483c c5        push    bc
483d cdc448    call    48c4h
4840 3a2be9    ld      a,(0e92bh)
4843 fec3      cp      0c3h
4845 0ec3      ld      c,0c3h
4847 2002      jr      nz,484bh
4849 0e83      ld      c,83h
484b 212ae9    ld      hl,0e92ah
484e cd5a0e    call    0e5ah
4851 c1        pop     bc
4852 10e8      djnz    483ch
4854 c9        ret     

4855 e5        push    hl
4856 3e09      ld      a,09h
4858 010c00    ld      bc,000ch
485b edb0      ldir    
485d 017400    ld      bc,0074h
4860 09        add     hl,bc
4861 3d        dec     a
4862 20f4      jr      nz,4858h
4864 e1        pop     hl
4865 c9        ret     

4866 e5        push    hl
4867 eb        ex      de,hl
4868 3e09      ld      a,09h
486a 010c00    ld      bc,000ch
486d edb0      ldir    
486f 017400    ld      bc,0074h
4872 eb        ex      de,hl
4873 09        add     hl,bc
4874 eb        ex      de,hl
4875 3d        dec     a
4876 20f2      jr      nz,486ah
4878 e1        pop     hl
4879 c9        ret     

487a f5        push    af
487b e5        push    hl
487c f5        push    af
487d cdc448    call    48c4h
4880 f1        pop     af
4881 cd8c48    call    488ch
4884 2b        dec     hl
4885 2b        dec     hl
4886 3d        dec     a
4887 20f3      jr      nz,487ch
4889 e1        pop     hl
488a f1        pop     af
488b c9        ret     

488c f5        push    af
488d e5        push    hl
488e af        xor     a
488f 3e09      ld      a,09h
4891 c5        push    bc
4892 e5        push    hl
4893 d1        pop     de
4894 1b        dec     de
4895 1b        dec     de
4896 edb0      ldir    
4898 c1        pop     bc
4899 ed42      sbc     hl,bc
489b 118000    ld      de,0080h
489e 19        add     hl,de
489f 3d        dec     a
48a0 20ef      jr      nz,4891h
48a2 e1        pop     hl
48a3 f1        pop     af
48a4 c9        ret     

48a5 f5        push    af
48a6 e5        push    hl
48a7 af        xor     a
48a8 3e09      ld      a,09h
48aa c5        push    bc
48ab e5        push    hl
48ac d1        pop     de
48ad 13        inc     de
48ae 13        inc     de
48af edb8      lddr    
48b1 c1        pop     bc
48b2 09        add     hl,bc
48b3 118000    ld      de,0080h
48b6 19        add     hl,de
48b7 3d        dec     a
48b8 20f0      jr      nz,48aah
48ba e1        pop     hl
48bb f1        pop     af
48bc c9        ret     

48bd c7        rst     00h
48be 1010      djnz    48d0h
48c0 10f0      djnz    48b2h
48c2 0a        ld      a,(bc)
48c3 0f        rrca    
48c4 ed57      ld      a,i
48c6 cbff      set     7,a
48c8 ed47      ld      i,a
48ca cd7d00    call    007dh
48cd db17      in      a,(17h)
48cf cb5f      bit     3,a
48d1 20fa      jr      nz,48cdh
48d3 cddb48		out	37h,[c407]
48d6 3e18      ld      a,18h
48d8 ed47      ld      i,a
48da c9        ret     


48e6 cf        rst     08h
48e7 21cfc6    ld      hl,0c6cfh
48ea 22c3c6    ld      (0c6c3h),hl
48ed cd9b47    call    479bh
48f0 cd1a48    call    481ah
48f3 212ae9    ld      hl,0e92ah
48f6 cd580e    call    0e58h
48f9 21bd48    ld      hl,48bdh
48fc 013907    ld      bc,0739h
48ff 3e06      ld      a,06h
4901 3c        inc     a
4902 d338      out     (38h),a
4904 eda3      outi    
4906 20f9      jr      nz,4901h
4908 3e06      ld      a,06h
490a d338      out     (38h),a
490c 3e1f      ld      a,1fh
490e ed79      out     (c),a
4910 212ae9    ld      hl,0e92ah
4913 11fec0    ld      de,0c0feh
4916 cd5548    call    4855h
4919 11aec2    ld      de,0c2aeh
491c cd5548    call    4855h
491f 061c      ld      b,1ch
4921 c5        push    bc
4922 cdc448    call    48c4h
4925 3e06      ld      a,06h
4927 d338      out     (38h),a
4929 db39      in      a,(39h)
492b 3d        dec     a
492c d339      out     (39h),a
492e 11aec2    ld      de,0c2aeh
4931 cd6648    call    4866h
4934 23        inc     hl
4935 23        inc     hl
4936 11aec2    ld      de,0c2aeh
4939 cd5548    call    4855h
493c 11fec0    ld      de,0c0feh
493f cd6648    call    4866h
4942 c1        pop     bc
4943 e5        push    hl
4944 2114c4    ld      hl,0c414h
4947 cb66      bit     4,(hl)
4949 2818      jr      z,4963h
494b 2113c4    ld      hl,0c413h
494e cb66      bit     4,(hl)
4950 2811      jr      z,4963h
4952 e1        pop     hl
4953 10cc      djnz    4921h
495e cdd308		dreptunghi	ed62,6,9,0
4961 1896      jr      48f9h
4963 cda75c    call    5ca7h
			a=rnd100
496b fe46      cp      46h
496d 0600      ld      b,00h
496f 3802      jr      c,4973h
4971 0601      ld      b,01h
4973 c5        push    bc
4974 cd1254    call    5412h
4977 c1        pop     bc
4978 3e01      ld      a,01h
497a a4        and     h
497b a8        xor     b
497c 20f5      jr      nz,4973h
497e 2294c0    ld      (0c094h),hl
4981 dd2194c0  ld      ix,0c094h
4985 cdec53		copy_c6c3
4988 e1        pop     hl
4989 22cbc0    ld      (0c0cbh),hl
498c c5        push    bc
498d ed4b94c0  ld      bc,(0c094h)
4991 cde908    call    08e9h
4994 cdc05c    call    5cc0h
4997 2119c4    ld      hl,0c419h
499a cbde      set     3,(hl)
499c f1        pop     af
499d c9        ret     

499e cdc54a    call    4ac5h
49a1 2155c6    ld      hl,0c655h
49a4 229cc5    ld      (0c59ch),hl
49a7 d5        push    de
49a8 2105c6    ld      hl,0c605h
49ab 011ac6    ld      bc,0c61ah
49ae cdb64b    call    4bb6h
49b1 210ac6    ld      hl,0c60ah
49b4 0110c6    ld      bc,0c610h
49b7 cdb64b    call    4bb6h
49ba cd0c4b    call    4b0ch
49bd af        xor     a
49be 2100c6    ld      hl,0c600h
49c1 0120c6    ld      bc,0c620h
49c4 cdc14b    call    4bc1h
49c7 2104c6    ld      hl,0c604h
49ca 7e        ld      a,(hl)
49cb e607      and     07h
49cd 77        ld      (hl),a
49ce 0100c6    ld      bc,0c600h
49d1 2110c6    ld      hl,0c610h
49d4 cdb64b    call    4bb6h
49d7 2105c6    ld      hl,0c605h
49da 0125c6    ld      bc,0c625h
49dd cdb64b    call    4bb6h
49e0 210ac6    ld      hl,0c60ah
49e3 0110c6    ld      bc,0c610h
49e6 cdb64b    call    4bb6h
49e9 cd0c4b    call    4b0ch
49ec cd394a    call    4a39h
49ef c601      add     a,01h
49f1 2a9cc5    ld      hl,(0c59ch)
49f4 77        ld      (hl),a
49f5 23        inc     hl
49f6 229cc5    ld      (0c59ch),hl
49f9 2125c6    ld      hl,0c625h
49fc 35        dec     (hl)
49fd d1        pop     de
49fe 1d        dec     e
49ff c2a749    jp      nz,49a7h
4a02 c9        ret     

4a03 d5        push    de
4a04 2105c6    ld      hl,0c605h
4a07 011ac6    ld      bc,0c61ah
4a0a cdb64b    call    4bb6h
4a0d 210ac6    ld      hl,0c60ah
4a10 0110c6    ld      bc,0c610h
4a13 cdb64b    call    4bb6h
4a16 cd0c4b    call    4b0ch
4a19 af        xor     a
4a1a 2100c6    ld      hl,0c600h
4a1d 0120c6    ld      bc,0c620h
4a20 cdc14b    call    4bc1h
4a23 2104c6    ld      hl,0c604h
4a26 7e        ld      a,(hl)
4a27 e607      and     07h
4a29 77        ld      (hl),a
4a2a 0100c6    ld      bc,0c600h
4a2d 2110c6    ld      hl,0c610h
4a30 cdb64b    call    4bb6h
4a33 d1        pop     de
4a34 1d        dec     e
4a35 c2034a    jp      nz,4a03h
4a38 c9        ret     

4a39 2104c6    ld      hl,0c604h
4a3c 7e        ld      a,(hl)
4a3d e6f8      and     0f8h
4a3f cb0f      rrc     a
4a41 cb0f      rrc     a
4a43 cb0f      rrc     a
4a45 e61f      and     1fh
4a47 5f        ld      e,a
4a48 23        inc     hl
4a49 7e        ld      a,(hl)
4a4a 07        rlca    
4a4b 07        rlca    
4a4c 07        rlca    
4a4d 07        rlca    
4a4e 07        rlca    
4a4f e6e0      and     0e0h
4a51 b3        or      e
4a52 c9        ret     

4a53 110101    ld      de,0101h
4a56 2a9cc5    ld      hl,(0c59ch)
4a59 ed4ba0c5  ld      bc,(0c5a0h)
4a5d 7e        ld      a,(hl)
4a5e 02        ld      (bc),a
4a5f af        xor     a
4a60 7d        ld      a,l
4a61 82        add     a,d
4a62 6f        ld      l,a
4a63 3e00      ld      a,00h
4a65 8c        adc     a,h
4a66 67        ld      h,a
4a67 79        ld      a,c
4a68 82        add     a,d
4a69 4f        ld      c,a
4a6a 3e00      ld      a,00h
4a6c 88        adc     a,b
4a6d 47        ld      b,a
4a6e 7e        ld      a,(hl)
4a6f 02        ld      (bc),a
4a70 af        xor     a
4a71 7a        ld      a,d
4a72 9b        sbc     a,e
4a73 2a9cc5    ld      hl,(0c59ch)
4a76 85        add     a,l
4a77 6f        ld      l,a
4a78 3e00      ld      a,00h
4a7a 8c        adc     a,h
4a7b 67        ld      h,a
4a7c af        xor     a
4a7d 0a        ld      a,(bc)
4a7e 86        add     a,(hl)
4a7f 02        ld      (bc),a
4a80 af        xor     a
4a81 3e35      ld      a,35h
4a83 9a        sbc     a,d
4a84 83        add     a,e
4a85 d5        push    de
4a86 5f        ld      e,a
4a87 0a        ld      a,(bc)
4a88 bb        cp      e
4a89 da934a    jp      c,4a93h
4a8c ca934a    jp      z,4a93h
4a8f af        xor     a
4a90 0a        ld      a,(bc)
4a91 9b        sbc     a,e
4a92 02        ld      (bc),a
4a93 d1        pop     de
4a94 1c        inc     e
4a95 7b        ld      a,e
4a96 ba        cp      d
4a97 da704a    jp      c,4a70h
4a9a ca704a    jp      z,4a70h
4a9d 1e01      ld      e,01h
4a9f 14        inc     d
4aa0 e5        push    hl
4aa1 219ec5    ld      hl,0c59eh
4aa4 35        dec     (hl)
4aa5 cab04a    jp      z,4ab0h
4aa8 e1        pop     hl
4aa9 ed4ba0c5  ld      bc,(0c5a0h)
4aad c35f4a    jp      4a5fh
4ab0 e1        pop     hl
4ab1 c9        ret     

4ab2 218ac6    ld      hl,0c68ah
4ab5 22a0c5    ld      (0c5a0h),hl
4ab8 c3bb4a    jp      4abbh
4abb 2155c6    ld      hl,0c655h
4abe 229cc5    ld      (0c59ch),hl
4ac1 cd534a    call    4a53h
4ac4 c9        ret     

4ac5 d5        push    de
4ac6 213d4d    ld      hl,4d3dh
4ac9 112ec6    ld      de,0c62eh
4acc 011500    ld      bc,0015h
4acf edb8      lddr    
4ad1 d1        pop     de
4ad2 c9        ret     

4ad3 21acc5    ld      hl,0c5ach
4ad6 01b6c5    ld      bc,0c5b6h
4ad9 1e0a      ld      e,0ah
4adb 0a        ld      a,(bc)
4adc 77        ld      (hl),a
4add fe51      cp      51h
4adf cae94a    jp      z,4ae9h
4ae2 03        inc     bc
4ae3 23        inc     hl
4ae4 1d        dec     e
4ae5 c2db4a    jp      nz,4adbh
4ae8 c9        ret     

4ae9 f5        push    af
4aea c5        push    bc
4aeb d5        push    de
4aec e5        push    hl
4aed 1e01      ld      e,01h
4aef cd9e49    call    499eh
4af2 3a55c6    ld      a,(0c655h)
4af5 fe09      cp      09h
4af7 da014b    jp      c,4b01h
4afa e1        pop     hl
4afb d1        pop     de
4afc c1        pop     bc
4afd f1        pop     af
4afe c3e24a    jp      4ae2h
4b01 e1        pop     hl
4b02 d1        pop     de
4b03 c1        pop     bc
4b04 3ac0c5    ld      a,(0c5c0h)
4b07 77        ld      (hl),a
4b08 f1        pop     af
4b09 c3e24a    jp      4ae2h
4b0c 010100    ld      bc,0001h
4b0f 0b        dec     bc
4b10 78        ld      a,b
4b11 b1        or      c
4b12 20fb      jr      nz,4b0fh
4b14 dde5      push    ix
4b16 fde5      push    iy
4b18 010028    ld      bc,2800h
4b1b dd2100c6  ld      ix,0c600h
4b1f fd210ac6  ld      iy,0c60ah
4b23 dd7100    ld      (ix+00h),c
4b26 dd7101    ld      (ix+01h),c
4b29 dd7102    ld      (ix+02h),c
4b2c dd7103    ld      (ix+03h),c
4b2f dd7104    ld      (ix+04h),c
4b32 ddcb0026  sla     (ix+00h)
4b36 ddcb0116  rl      (ix+01h)
4b3a ddcb0216  rl      (ix+02h)
4b3e ddcb0316  rl      (ix+03h)
4b42 ddcb0416  rl      (ix+04h)
4b46 ddcb0516  rl      (ix+05h)
4b4a ddcb0616  rl      (ix+06h)
4b4e ddcb0716  rl      (ix+07h)
4b52 ddcb0816  rl      (ix+08h)
4b56 ddcb0916  rl      (ix+09h)
4b5a 3050      jr      nc,4bach
4b5c fd7e00    ld      a,(iy+00h)
4b5f dd8600    add     a,(ix+00h)
4b62 dd7700    ld      (ix+00h),a
4b65 fd7e01    ld      a,(iy+01h)
4b68 dd8e01    adc     a,(ix+01h)
4b6b dd7701    ld      (ix+01h),a
4b6e fd7e02    ld      a,(iy+02h)
4b71 dd8e02    adc     a,(ix+02h)
4b74 dd7702    ld      (ix+02h),a
4b77 fd7e03    ld      a,(iy+03h)
4b7a dd8e03    adc     a,(ix+03h)
4b7d dd7703    ld      (ix+03h),a
4b80 fd7e04    ld      a,(iy+04h)
4b83 dd8e04    adc     a,(ix+04h)
4b86 dd7704    ld      (ix+04h),a
4b89 dd7e05    ld      a,(ix+05h)
4b8c 89        adc     a,c
4b8d dd7705    ld      (ix+05h),a
4b90 dd7e06    ld      a,(ix+06h)
4b93 89        adc     a,c
4b94 dd7706    ld      (ix+06h),a
4b97 dd7e07    ld      a,(ix+07h)
4b9a 89        adc     a,c
4b9b dd7707    ld      (ix+07h),a
4b9e dd7e08    ld      a,(ix+08h)
4ba1 89        adc     a,c
4ba2 dd7708    ld      (ix+08h),a
4ba5 dd7e09    ld      a,(ix+09h)
4ba8 89        adc     a,c
4ba9 dd7709    ld      (ix+09h),a
4bac 05        dec     b
4bad c2324b    jp      nz,4b32h
4bb0 af        xor     a
4bb1 fde1      pop     iy
4bb3 dde1      pop     ix
4bb5 c9        ret     

4bb6 1e05      ld      e,05h
4bb8 0a        ld      a,(bc)
4bb9 77        ld      (hl),a
4bba 03        inc     bc
4bbb 23        inc     hl
4bbc 1d        dec     e
4bbd c2b84b    jp      nz,4bb8h
4bc0 c9        ret     

4bc1 1e05      ld      e,05h
4bc3 0a        ld      a,(bc)
4bc4 8e        adc     a,(hl)
4bc5 77        ld      (hl),a
4bc6 23        inc     hl
4bc7 03        inc     bc
4bc8 1d        dec     e
4bc9 c2c34b    jp      nz,4bc3h
4bcc c9        ret     

4bcd 2130c6    ld      hl,0c630h
4bd0 3635      ld      (hl),35h
4bd2 23        inc     hl
4bd3 3600      ld      (hl),00h
4bd5 23        inc     hl
4bd6 3600      ld      (hl),00h
4bd8 21e0c5    ld      hl,0c5e0h
4bdb 22d6c5    ld      (0c5d6h),hl
4bde d5        push    de
4bdf 2105c6    ld      hl,0c605h
4be2 0120c6    ld      bc,0c620h
4be5 cdb64b    call    4bb6h
4be8 210ac6    ld      hl,0c60ah
4beb 0115c6    ld      bc,0c615h
4bee cdb64b    call    4bb6h
4bf1 cd0c4b    call    4b0ch
4bf4 2100c6    ld      hl,0c600h
4bf7 011ac6    ld      bc,0c61ah
4bfa af        xor     a
4bfb cdc14b    call    4bc1h
4bfe 2104c6    ld      hl,0c604h
4c01 7e        ld      a,(hl)
4c02 e607      and     07h
4c04 77        ld      (hl),a
4c05 0100c6    ld      bc,0c600h
4c08 2115c6    ld      hl,0c615h
4c0b cdb64b    call    4bb6h
4c0e 0130c6    ld      bc,0c630h
4c11 2105c6    ld      hl,0c605h
4c14 cdb64b    call    4bb6h
4c17 210ac6    ld      hl,0c60ah
4c1a 0115c6    ld      bc,0c615h
4c1d cdb64b    call    4bb6h
4c20 cd0c4b    call    4b0ch
4c23 cd394a    call    4a39h
4c26 c601      add     a,01h
4c28 2ad6c5    ld      hl,(0c5d6h)
4c2b 77        ld      (hl),a
4c2c 23        inc     hl
4c2d 22d6c5    ld      (0c5d6h),hl
4c30 2130c6    ld      hl,0c630h
4c33 35        dec     (hl)
4c34 d1        pop     de
4c35 1d        dec     e
4c36 c2de4b    jp      nz,4bdeh
4c39 c9        ret     

4c3a 2125c6    ld      hl,0c625h
4c3d 3610      ld      (hl),10h
4c3f 23        inc     hl
4c40 3627      ld      (hl),27h
4c42 2105c6    ld      hl,0c605h
4c45 0120c6    ld      bc,0c620h
4c48 cdb64b    call    4bb6h
4c4b 210ac6    ld      hl,0c60ah
4c4e 0115c6    ld      bc,0c615h
4c51 cdb64b    call    4bb6h
4c54 cd0c4b    call    4b0ch
4c57 2100c6    ld      hl,0c600h
4c5a 011ac6    ld      bc,0c61ah
4c5d af        xor     a
4c5e cdc14b    call    4bc1h
4c61 2104c6    ld      hl,0c604h
4c64 7e        ld      a,(hl)
4c65 e607      and     07h
4c67 77        ld      (hl),a
4c68 0100c6    ld      bc,0c600h
4c6b 2115c6    ld      hl,0c615h
4c6e cdb64b    call    4bb6h
4c71 0125c6    ld      bc,0c625h
4c74 2105c6    ld      hl,0c605h
4c77 cdb64b    call    4bb6h
4c7a 210ac6    ld      hl,0c60ah
4c7d 0115c6    ld      bc,0c615h
4c80 cdb64b    call    4bb6h
4c83 cd0c4b    call    4b0ch
4c86 cd394a    call    4a39h
4c89 cdb34c    call    4cb3h
4c8c 210100    ld      hl,0001h
4c8f 19        add     hl,de
4c90 3adbc5    ld      a,(0c5dbh)
4c93 bc        cp      h
4c94 ca9d4c    jp      z,4c9dh
4c97 daa74c    jp      c,4ca7h
4c9a c3ad4c    jp      4cadh
4c9d 3adcc5    ld      a,(0c5dch)
4ca0 bd        cp      l
4ca1 caad4c    jp      z,4cadh
4ca4 d2ad4c    jp      nc,4cadh
4ca7 3eff      ld      a,0ffh
4ca9 32dec5    ld      (0c5deh),a
4cac c9        ret     

4cad 3e00      ld      a,00h
4caf 32dec5    ld      (0c5deh),a
4cb2 c9        ret     

4cb3 2105c6    ld      hl,0c605h
4cb6 7e        ld      a,(hl)
4cb7 e6f8      and     0f8h
4cb9 cb0f      rrc     a
4cbb cb0f      rrc     a
4cbd cb0f      rrc     a
4cbf e61f      and     1fh
4cc1 57        ld      d,a
4cc2 23        inc     hl
4cc3 7e        ld      a,(hl)
4cc4 07        rlca    
4cc5 07        rlca    
4cc6 07        rlca    
4cc7 07        rlca    
4cc8 07        rlca    
4cc9 e6e0      and     0e0h
4ccb b2        or      d
4ccc 57        ld      d,a
4ccd c9        ret     

4cce 219ec5    ld      hl,0c59eh
4cd1 361f      ld      (hl),1fh
4cd3 2135c6    ld      hl,0c635h
4cd6 22a0c5    ld      (0c5a0h),hl
4cd9 21e0c5    ld      hl,0c5e0h
4cdc 229cc5    ld      (0c59ch),hl
4cdf c3534a    jp      4a53h
4ce2 21b6c5    ld      hl,0c5b6h
4ce5 22a0c5    ld      (0c5a0h),hl
4ce8 0135c6    ld      bc,0c635h
4ceb 218ac6    ld      hl,0c68ah
4cee 110000    ld      de,0000h
4cf1 0a        ld      a,(bc)
4cf2 5f        ld      e,a
4cf3 19        add     hl,de
4cf4 2b        dec     hl
4cf5 7e        ld      a,(hl)
4cf6 2aa0c5    ld      hl,(0c5a0h)
4cf9 77        ld      (hl),a
4cfa 23        inc     hl
4cfb 22a0c5    ld      (0c5a0h),hl
4cfe 03        inc     bc
4cff 11d6c5    ld      de,0c5d6h
4d02 7b        ld      a,e
4d03 bd        cp      l
4d04 c2eb4c    jp      nz,4cebh
4d07 01b6c5    ld      bc,0c5b6h
4d0a 213e4d    ld      hl,4d3eh
4d0d 110000    ld      de,0000h
4d10 0a        ld      a,(bc)
4d11 5f        ld      e,a
4d12 19        add     hl,de
4d13 7e        ld      a,(hl)
4d14 02        ld      (bc),a
4d15 03        inc     bc
4d16 11d6c5    ld      de,0c5d6h
4d19 7b        ld      a,e
4d1a b9        cp      c
4d1b c20a4d    jp      nz,4d0ah
4d1e c9        ret     

4d1f e9        jp      (hl)
4d20 1e0c      ld      e,0ch
4d22 58        ld      e,b
4d23 012202    ld      bc,0222h
4d26 29        add     hl,hl
4d27 6a        ld      l,d
4d28 00        nop     
4d29 4d        ld      c,l
4d2a e640      and     40h
4d2c bb        cp      e
4d2d 00        nop     
4d2e 00        nop     
4d2f 65        ld      h,l
4d30 b0        or      b
4d31 05        dec     b
4d32 a2        and     d
4d33 00        nop     
4d34 35        dec     (hl)
4d35 00        nop     
4d36 00        nop     
4d37 00        nop     
4d38 00        nop     
4d39 00        nop     
4d3a 00        nop     
4d3b 00        nop     
4d3c 00        nop     
4d3d 00        nop     
4d3e 00        nop     
4d3f 12        ld      (de),a
4d40 13        inc     de
4d41 14        inc     d
4d42 15        dec     d
4d43 1617      ld      d,17h
4d45 1819      jr      4d60h
4d47 1a        ld      a,(de)
4d48 1b        dec     de
4d49 1c        inc     e
4d4a 1d        dec     e
4d4b 1e22      ld      e,22h
4d4d 23        inc     hl
4d4e 24        inc     h
4d4f 25        dec     h
4d50 2627      ld      h,27h
4d52 2829      jr      z,4d7dh
4d54 2a2b2c    ld      hl,(2c2bh)
4d57 2d        dec     l
4d58 2e42      ld      l,42h
4d5a 43        ld      b,e
4d5b 44        ld      b,h
4d5c 45        ld      b,l
4d5d 46        ld      b,(hl)
4d5e 47        ld      b,a
4d5f 48        ld      c,b
4d60 49        ld      c,c
4d61 4a        ld      c,d
4d62 4b        ld      c,e
4d63 4c        ld      c,h
4d64 4d        ld      c,l
4d65 4e        ld      c,(hl)
4d66 82        add     a,d
4d67 83        add     a,e
4d68 84        add     a,h
4d69 85        add     a,l
4d6a 86        add     a,(hl)
4d6b 87        add     a,a
4d6c 88        adc     a,b
4d6d 89        adc     a,c
4d6e 8a        adc     a,d
4d6f 8b        adc     a,e
4d70 8c        adc     a,h
4d71 8d        adc     a,l
4d72 8e        adc     a,(hl)
4d73 51        ld      d,c
4d74 21c0c6    ld      hl,0c6c0h
4d77 3e00      ld      a,00h
4d79 be        cp      (hl)
4d7a c27e4d    jp      nz,4d7eh
4d7d c9        ret     

4d7e 21c0c6    ld      hl,0c6c0h
4d81 5e        ld      e,(hl)
4d82 21acc5    ld      hl,0c5ach
4d85 01b1c5    ld      bc,0c5b1h
4d88 7b        ld      a,e
4d89 cb47      bit     0,a
4d8b c2914d    jp      nz,4d91h
4d8e cdb94d    call    4db9h
4d91 23        inc     hl
4d92 cb4f      bit     1,a
4d94 c29a4d    jp      nz,4d9ah
4d97 cdb94d    call    4db9h
4d9a 23        inc     hl
4d9b cb57      bit     2,a
4d9d c2a34d    jp      nz,4da3h
4da0 cdb94d    call    4db9h
4da3 23        inc     hl
4da4 cb5f      bit     3,a
4da6 c2ac4d    jp      nz,4dach
4da9 cdb94d    call    4db9h
4dac 23        inc     hl
4dad cb67      bit     4,a
4daf c2b54d    jp      nz,4db5h
4db2 cdb94d    call    4db9h
4db5 cd9d51    call    519dh
4db8 c9        ret     

4db9 0a        ld      a,(bc)
4dba 77        ld      (hl),a
4dbb 03        inc     bc
4dbc 7b        ld      a,e
4dbd c9        ret     

4dbe 21bfc6    ld      hl,0c6bfh
4dc1 3600      ld      (hl),00h
4dc3 1605      ld      d,05h
4dc5 fd21a2c5  ld      iy,0c5a2h
4dc9 dd21a7c5  ld      ix,0c5a7h
4dcd 21acc5    ld      hl,0c5ach
4dd0 7e        ld      a,(hl)
4dd1 e60f      and     0fh
4dd3 fd7700    ld      (iy+00h),a
4dd6 7e        ld      a,(hl)
4dd7 e6f0      and     0f0h
4dd9 dd7700    ld      (ix+00h),a
4ddc fd23      inc     iy
4dde dd23      inc     ix
4de0 23        inc     hl
4de1 15        dec     d
4de2 c2d04d    jp      nz,4dd0h
4de5 c9        ret     

4de6 21bfc6    ld      hl,0c6bfh
4de9 3600      ld      (hl),00h
4deb 1605      ld      d,05h
4ded fd21a2c5  ld      iy,0c5a2h
4df1 dd21a7c5  ld      ix,0c5a7h
4df5 21b6c5    ld      hl,0c5b6h
4df8 7e        ld      a,(hl)
4df9 e60f      and     0fh
4dfb fd7700    ld      (iy+00h),a
4dfe 7e        ld      a,(hl)
4dff e6f0      and     0f0h
4e01 dd7700    ld      (ix+00h),a
4e04 fd23      inc     iy
4e06 dd23      inc     ix
4e08 23        inc     hl
4e09 15        dec     d
4e0a c2f84d    jp      nz,4df8h
4e0d c9        ret     

4e0e cde64d    call    4de6h
4e11 c3174e    jp      4e17h
4e14 cdbe4d    call    4dbeh
4e17 cd294e    call    4e29h
4e1a 3abfc6    ld      a,(0c6bfh)
4e1d fe00      cp      00h
4e1f ca264e    jp      z,4e26h
4e22 78        ld      a,b
4e23 32ddc5    ld      (0c5ddh),a
4e26 c3974f    jp      4f97h
4e29 110004    ld      de,0400h
4e2c 3aa2c5    ld      a,(0c5a2h)
4e2f 21a3c5    ld      hl,0c5a3h
4e32 cd854f    call    4f85h
4e35 1603      ld      d,03h
4e37 3aa3c5    ld      a,(0c5a3h)
4e3a cd854f    call    4f85h
4e3d 1602      ld      d,02h
4e3f 3aa4c5    ld      a,(0c5a4h)
4e42 cd854f    call    4f85h
4e45 1601      ld      d,01h
4e47 3aa5c5    ld      a,(0c5a5h)
4e4a cd854f    call    4f85h
4e4d 21bfc6    ld      hl,0c6bfh
4e50 7b        ld      a,e
4e51 fe01      cp      01h
4e53 ca6d4e    jp      z,4e6dh
4e56 fe02      cp      02h
4e58 cad94e    jp      z,4ed9h
4e5b fe03      cp      03h
4e5d cae34e    jp      z,4ee3h
4e60 fe04      cp      04h
4e62 caed4e    jp      z,4eedh
4e65 fe06      cp      06h
4e67 caf54e    jp      z,4ef5h
4e6a c3924e    jp      4e92h
4e6d 3e0b      ld      a,0bh
4e6f b8        cp      b
4e70 cacc4e    jp      z,4ecch
4e73 dacc4e    jp      c,4ecch
4e76 3e01      ld      a,01h
4e78 110005    ld      de,0500h
4e7b 21a2c5    ld      hl,0c5a2h
4e7e cd854f    call    4f85h
4e81 3e01      ld      a,01h
4e83 bb        cp      e
4e84 c2204f    jp      nz,4f20h
4e87 21bfc6    ld      hl,0c6bfh
4e8a 3603      ld      (hl),03h
4e8c 3e22      ld      a,22h
4e8e 32c1c6    ld      (0c6c1h),a
4e91 c9        ret     

4e92 1e00      ld      e,00h
4e94 060b      ld      b,0bh
4e96 cd3a50    call    503ah
4e99 060c      ld      b,0ch
4e9b cd3a50    call    503ah
4e9e 060d      ld      b,0dh
4ea0 cd3a50    call    503ah
4ea3 060e      ld      b,0eh
4ea5 cd3a50    call    503ah
4ea8 7b        ld      a,e
4ea9 fe01      cp      01h
4eab dac64e    jp      c,4ec6h
4eae 0601      ld      b,01h
4eb0 1e00      ld      e,00h
4eb2 cd3a50    call    503ah
4eb5 3e01      ld      a,01h
4eb7 bb        cp      e
4eb8 c2c64e    jp      nz,4ec6h
4ebb 21bfc6    ld      hl,0c6bfh
4ebe 3601      ld      (hl),01h
4ec0 3e0a      ld      a,0ah
4ec2 32c1c6    ld      (0c6c1h),a
4ec5 c9        ret     

4ec6 21bfc6    ld      hl,0c6bfh
4ec9 3600      ld      (hl),00h
4ecb c9        ret     

4ecc 21bfc6    ld      hl,0c6bfh
4ecf 3601      ld      (hl),01h
4ed1 3e0a      ld      a,0ah
4ed3 32c1c6    ld      (0c6c1h),a
4ed6 c3ff4e    jp      4effh
4ed9 3602      ld      (hl),02h
4edb 3e16      ld      a,16h
4edd 32c1c6    ld      (0c6c1h),a
4ee0 c3294f    jp      4f29h
4ee3 3603      ld      (hl),03h
4ee5 3e22      ld      a,22h
4ee7 32c1c6    ld      (0c6c1h),a
4eea c3ff4e    jp      4effh
4eed 3605      ld      (hl),05h
4eef 3e30      ld      a,30h
4ef1 32c1c6    ld      (0c6c1h),a
4ef4 c9        ret     

4ef5 3607      ld      (hl),07h
4ef7 3e7e      ld      a,7eh
4ef9 32c1c6    ld      (0c6c1h),a
4efc c3454f    jp      4f45h
4eff 3e01      ld      a,01h
4f01 110005    ld      de,0500h
4f04 21a2c5    ld      hl,0c5a2h
4f07 cd854f    call    4f85h
4f0a 3e01      ld      a,01h
4f0c bb        cp      e
4f0d c2204f    jp      nz,4f20h
4f10 21bfc6    ld      hl,0c6bfh
4f13 3e03      ld      a,03h
4f15 be        cp      (hl)
4f16 ca214f    jp      z,4f21h
4f19 3603      ld      (hl),03h
4f1b 3e22      ld      a,22h
4f1d 32c1c6    ld      (0c6c1h),a
4f20 c9        ret     

4f21 3607      ld      (hl),07h
4f23 3e7e      ld      a,7eh
4f25 32c1c6    ld      (0c6c1h),a
4f28 c9        ret     

4f29 3e01      ld      a,01h
4f2b 110005    ld      de,0500h
4f2e 21a2c5    ld      hl,0c5a2h
4f31 cd854f    call    4f85h
4f34 3e01      ld      a,01h
4f36 bb        cp      e
4f37 c2204f    jp      nz,4f20h
4f3a 21bfc6    ld      hl,0c6bfh
4f3d 3605      ld      (hl),05h
4f3f 3e30      ld      a,30h
4f41 32c1c6    ld      (0c6c1h),a
4f44 c9        ret     

4f45 3e01      ld      a,01h
4f47 110005    ld      de,0500h
4f4a 21a2c5    ld      hl,0c5a2h
4f4d cd854f    call    4f85h
4f50 3e01      ld      a,01h
4f52 bb        cp      e
4f53 c2204f    jp      nz,4f20h
4f56 21bfc6    ld      hl,0c6bfh
4f59 360a      ld      (hl),0ah
4f5b 3e7e      ld      a,7eh
4f5d 32c1c6    ld      (0c6c1h),a
4f60 c9        ret     

4f61 3e01      ld      a,01h
4f63 110005    ld      de,0500h
4f66 21a2c5    ld      hl,0c5a2h
4f69 cd854f    call    4f85h
4f6c 3e01      ld      a,01h
4f6e bb        cp      e
4f6f c2204f    jp      nz,4f20h
4f72 21bfc6    ld      hl,0c6bfh
4f75 3606      ld      (hl),06h
4f77 3e30      ld      a,30h
4f79 32c1c6    ld      (0c6c1h),a
4f7c c9        ret     

4f7d 3608      ld      (hl),08h
4f7f 3e7e      ld      a,7eh
4f81 32c1c6    ld      (0c6c1h),a
4f84 c9        ret     

4f85 e5        push    hl
4f86 be        cp      (hl)
4f87 ca924f    jp      z,4f92h
4f8a 23        inc     hl
4f8b 15        dec     d
4f8c c2864f    jp      nz,4f86h
4f8f e1        pop     hl
4f90 23        inc     hl
4f91 c9        ret     

4f92 1c        inc     e
4f93 47        ld      b,a
4f94 c38a4f    jp      4f8ah
4f97 110004    ld      de,0400h
4f9a 3aa7c5    ld      a,(0c5a7h)
4f9d fe50      cp      50h
4f9f c2ab4f    jp      nz,4fabh
4fa2 3aa8c5    ld      a,(0c5a8h)
4fa5 21a9c5    ld      hl,0c5a9h
4fa8 c3b14f    jp      4fb1h
4fab 3aa7c5    ld      a,(0c5a7h)
4fae 21a8c5    ld      hl,0c5a8h
4fb1 cd854f    call    4f85h
4fb4 3e04      ld      a,04h
4fb6 bb        cp      e
4fb7 c2c74f    jp      nz,4fc7h
4fba 21bfc6    ld      hl,0c6bfh
4fbd 3606      ld      (hl),06h
4fbf 3e30      ld      a,30h
4fc1 32c1c6    ld      (0c6c1h),a
4fc4 c3f44f    jp      4ff4h
4fc7 3e03      ld      a,03h
4fc9 bb        cp      e
4fca c2d04f    jp      nz,4fd0h
4fcd cd614f    call    4f61h
4fd0 c3f44f    jp      4ff4h
4fd3 3eff      ld      a,0ffh
4fd5 32d8c5    ld      (0c5d8h),a
4fd8 e5        push    hl
4fd9 c5        push    bc
4fda d5        push    de
4fdb 0601      ld      b,01h
4fdd 110005    ld      de,0500h
4fe0 cd3a50    call    503ah
4fe3 3e01      ld      a,01h
4fe5 bb        cp      e
4fe6 caee4f    jp      z,4feeh
4fe9 af        xor     a
4fea d1        pop     de
4feb c1        pop     bc
4fec e1        pop     hl
4fed c9        ret     

4fee 37        scf     
4fef d1        pop     de
4ff0 c1        pop     bc
4ff1 e1        pop     hl
4ff2 1c        inc     e
4ff3 c9        ret     

4ff4 1e00      ld      e,00h
4ff6 010e0e    ld      bc,0e0eh
4ff9 cd3a50    call    503ah
4ffc 3e00      ld      a,00h
4ffe bb        cp      e
4fff ca2350    jp      z,5023h
5002 0602      ld      b,02h
5004 cd3a50    call    503ah
5007 3e02      ld      a,02h
5009 bb        cp      e
500a ca2850    jp      z,5028h
500d 0601      ld      b,01h
500f cd3a50    call    503ah
5012 3e02      ld      a,02h
5014 bb        cp      e
5015 c22350    jp      nz,5023h
5018 0603      ld      b,03h
501a cd3a50    call    503ah
501d 3e03      ld      a,03h
501f bb        cp      e
5020 ca2850    jp      z,5028h
5023 1e00      ld      e,00h
5025 c32a50    jp      502ah
5028 1e01      ld      e,01h
502a 3e00      ld      a,00h
502c 32d8c5    ld      (0c5d8h),a
502f 0602      ld      b,02h
5031 cd4c50    call    504ch
5034 04        inc     b
5035 0d        dec     c
5036 c23150    jp      nz,5031h
5039 c9        ret     

503a 21a2c5    ld      hl,0c5a2h
503d 1605      ld      d,05h
503f 78        ld      a,b
5040 be        cp      (hl)
5041 ca4a50    jp      z,504ah
5044 23        inc     hl
5045 15        dec     d
5046 c23f50    jp      nz,503fh
5049 c9        ret     

504a 1c        inc     e
504b c9        ret     

504c 21a2c5    ld      hl,0c5a2h
504f 1605      ld      d,05h
5051 78        ld      a,b
5052 be        cp      (hl)
5053 ca7250    jp      z,5072h
5056 23        inc     hl
5057 15        dec     d
5058 c25150    jp      nz,5051h
505b 3e00      ld      a,00h
505d bb        cp      e
505e ca6f50    jp      z,506fh
5061 3ad8c5    ld      a,(0c5d8h)
5064 fe00      cp      00h
5066 c26f50    jp      nz,506fh
5069 cdd34f    call    4fd3h
506c da7350    jp      c,5073h
506f 1e00      ld      e,00h
5071 c9        ret     

5072 1c        inc     e
5073 3e05      ld      a,05h
5075 bb        cp      e
5076 c27150    jp      nz,5071h
5079 f1        pop     af
507a 21bfc6    ld      hl,0c6bfh
507d 3e06      ld      a,06h
507f be        cp      (hl)
5080 ca8b50    jp      z,508bh
5083 3604      ld      (hl),04h
5085 3e26      ld      a,26h
5087 32c1c6    ld      (0c6c1h),a
508a c9        ret     

508b 3608      ld      (hl),08h
508d 01050a    ld      bc,0a05h
5090 1e00      ld      e,00h
5092 cd3a50    call    503ah
5095 04        inc     b
5096 0d        dec     c
5097 c29250    jp      nz,5092h
509a 3e05      ld      a,05h
509c bb        cp      e
509d cab650    jp      z,50b6h
50a0 3d        dec     a
50a1 bb        cp      e
50a2 c2b050    jp      nz,50b0h
50a5 0601      ld      b,01h
50a7 cd3a50    call    503ah
50aa 3e05      ld      a,05h
50ac bb        cp      e
50ad cab650    jp      z,50b6h
50b0 3e7e      ld      a,7eh
50b2 32c1c6    ld      (0c6c1h),a
50b5 c9        ret     

50b6 21bfc6    ld      hl,0c6bfh
50b9 3609      ld      (hl),09h
50bb 3e7e      ld      a,7eh
50bd 32c1c6    ld      (0c6c1h),a
50c0 c9        ret     

50c1 cd0e4e    call    4e0eh
50c4 3abfc6    ld      a,(0c6bfh)
50c7 fe0a      cp      0ah
50c9 2017      jr      nz,50e2h
50cb 0e03      ld      c,03h
50cd 3adac4    ld      a,(0c4dah)
50d0 b7        or      a
50d1 2809      jr      z,50dch
50d3 3ad9c4    ld      a,(0c4d9h)
50d6 fe0a      cp      0ah
50d8 3002      jr      nc,50dch
			a=rnd5
50df b7        or      a
50e0 2008      jr      nz,50eah
50e2 3adec5    ld      a,(0c5deh)
50e5 fe00      cp      00h
50e7 ca9c51    jp      z,519ch
50ea ed4bd9c5  ld      bc,(0c5d9h)
50ee d5        push    de
50ef 11d6c5    ld      de,0c5d6h
50f2 7b        ld      a,e
50f3 d1        pop     de
50f4 b9        cp      c
50f5 ca9c51    jp      z,519ch
50f8 cd0e4e    call    4e0eh
50fb 3abfc6    ld      a,(0c6bfh)
50fe fe00      cp      00h
5100 ca9c51    jp      z,519ch
5103 fe01      cp      01h
5105 ca3651    jp      z,5136h
5108 fe02      cp      02h
510a ca3651    jp      z,5136h
510d fe03      cp      03h
510f ca3651    jp      z,5136h
5112 fe04      cp      04h
5114 ca3c51    jp      z,513ch
5117 fe05      cp      05h
5119 ca3c51    jp      z,513ch
511c fe06      cp      06h
511e ca6751    jp      z,5167h
5121 fe07      cp      07h
5123 ca6751    jp      z,5167h
5126 fe08      cp      08h
5128 ca3c51    jp      z,513ch
512b fe09      cp      09h
512d ca3c51    jp      z,513ch
5130 fe0a      cp      0ah
5132 ca6751    jp      z,5167h
5135 c9        ret     

5136 cd4551    call    5145h
5139 c3ea50    jp      50eah
513c 21acc5    ld      hl,0c5ach
513f cd5b51    call    515bh
5142 c3ea50    jp      50eah
5145 21b6c5    ld      hl,0c5b6h
5148 1605      ld      d,05h
514a 3addc5    ld      a,(0c5ddh)
514d 47        ld      b,a
514e 7e        ld      a,(hl)
514f e60f      and     0fh
5151 b8        cp      b
5152 ca5b51    jp      z,515bh
5155 23        inc     hl
5156 15        dec     d
5157 c24e51    jp      nz,514eh
515a c9        ret     

515b ed4bd9c5  ld      bc,(0c5d9h)
515f 0a        ld      a,(bc)
5160 77        ld      (hl),a
5161 03        inc     bc
5162 ed43d9c5  ld      (0c5d9h),bc
5166 c9        ret     

5167 21b6c5    ld      hl,0c5b6h
516a ed4bd9c5  ld      bc,(0c5d9h)
516e 0a        ld      a,(bc)
516f 77        ld      (hl),a
5170 23        inc     hl
5171 03        inc     bc
5172 ed43d9c5  ld      (0c5d9h),bc
5176 d5        push    de
5177 11d6c5    ld      de,0c5d6h
517a 7b        ld      a,e
517b d1        pop     de
517c b9        cp      c
517d ca9c51    jp      z,519ch
5180 0a        ld      a,(bc)
5181 77        ld      (hl),a
5182 23        inc     hl
5183 03        inc     bc
5184 ed43d9c5  ld      (0c5d9h),bc
5188 d5        push    de
5189 11d6c5    ld      de,0c5d6h
518c 7b        ld      a,e
518d d1        pop     de
518e b9        cp      c
518f ca9c51    jp      z,519ch
5192 0a        ld      a,(bc)
5193 77        ld      (hl),a
5194 03        inc     bc
5195 ed43d9c5  ld      (0c5d9h),bc
5199 c3ea50    jp      50eah
519c c9        ret     

519d cd144e    call    4e14h
51a0 3abfc6    ld      a,(0c6bfh)
51a3 fe0a      cp      0ah
51a5 2017      jr      nz,51beh
51a7 0e03      ld      c,03h
51a9 3adac4    ld      a,(0c4dah)
51ac b7        or      a
51ad 2809      jr      z,51b8h
51af 3ad9c4    ld      a,(0c4d9h)
51b2 fe0a      cp      0ah
51b4 3002      jr      nc,51b8h
			a=rnd5
51bb b7        or      a
51bc 2008      jr      nz,51c6h
51be 3adec5    ld      a,(0c5deh)
51c1 fe00      cp      00h
51c3 ca9c51    jp      z,519ch
51c6 ed4bd9c5  ld      bc,(0c5d9h)
51ca d5        push    de
51cb 11d6c5    ld      de,0c5d6h
51ce 7b        ld      a,e
51cf d1        pop     de
51d0 b9        cp      c
51d1 ca9c51    jp      z,519ch
51d4 cd144e    call    4e14h
51d7 3abfc6    ld      a,(0c6bfh)
51da fe00      cp      00h
51dc ca9c51    jp      z,519ch
51df fe01      cp      01h
51e1 ca1252    jp      z,5212h
51e4 fe02      cp      02h
51e6 ca1a52    jp      z,521ah
51e9 fe03      cp      03h
51eb ca1a52    jp      z,521ah
51ee fe04      cp      04h
51f0 ca2a52    jp      z,522ah
51f3 fe05      cp      05h
51f5 ca2a52    jp      z,522ah
51f8 fe06      cp      06h
51fa ca2252    jp      z,5222h
51fd fe07      cp      07h
51ff ca2252    jp      z,5222h
5202 fe08      cp      08h
5204 ca2a52    jp      z,522ah
5207 fe09      cp      09h
5209 ca2a52    jp      z,522ah
520c fe0a      cp      0ah
520e ca2252    jp      z,5222h
5211 c9        ret     

5212 1601      ld      d,01h
5214 cd3252    call    5232h
5217 c3c651    jp      51c6h
521a 1602      ld      d,02h
521c cd3252    call    5232h
521f c3c651    jp      51c6h
5222 1e03      ld      e,03h
5224 cdb752    call    52b7h
5227 c3c651    jp      51c6h
522a 1e01      ld      e,01h
522c cdb752    call    52b7h
522f c3c651    jp      51c6h
5232 3adfc5    ld      a,(0c5dfh)
5235 fe00      cp      00h
5237 ca3b52    jp      z,523bh
523a 14        inc     d
523b 3eff      ld      a,0ffh
523d 32dfc5    ld      (0c5dfh),a
5240 3ac0c6    ld      a,(0c6c0h)
5243 5f        ld      e,a
5244 cb47      bit     0,a
5246 c25152    jp      nz,5251h
5249 cd8152    call    5281h
524c 7b        ld      a,e
524d 15        dec     d
524e ca9c51    jp      z,519ch
5251 cb4f      bit     1,a
5253 c25e52    jp      nz,525eh
5256 cd8752    call    5287h
5259 7b        ld      a,e
525a 15        dec     d
525b ca9c51    jp      z,519ch
525e cb57      bit     2,a
5260 c26b52    jp      nz,526bh
5263 cd8d52    call    528dh
5266 7b        ld      a,e
5267 15        dec     d
5268 ca9c51    jp      z,519ch
526b cb5f      bit     3,a
526d c27852    jp      nz,5278h
5270 cd9352    call    5293h
5273 7b        ld      a,e
5274 15        dec     d
5275 ca9c51    jp      z,519ch
5278 cb67      bit     4,a
527a c28052    jp      nz,5280h
527d cd9952    call    5299h
5280 c9        ret     

5281 21acc5    ld      hl,0c5ach
5284 c39f52    jp      529fh
5287 21adc5    ld      hl,0c5adh
528a c39f52    jp      529fh
528d 21aec5    ld      hl,0c5aeh
5290 c39f52    jp      529fh
5293 21afc5    ld      hl,0c5afh
5296 c39f52    jp      529fh
5299 21b0c5    ld      hl,0c5b0h
529c c39f52    jp      529fh
529f ed4bd9c5  ld      bc,(0c5d9h)
52a3 f5        push    af
52a4 d5        push    de
52a5 11d6c5    ld      de,0c5d6h
52a8 7b        ld      a,e
52a9 d1        pop     de
52aa b9        cp      c
52ab cab552    jp      z,52b5h
52ae 0a        ld      a,(bc)
52af 77        ld      (hl),a
52b0 03        inc     bc
52b1 ed43d9c5  ld      (0c5d9h),bc
52b5 f1        pop     af
52b6 c9        ret     

52b7 3ac0c6    ld      a,(0c6c0h)
52ba 21acc5    ld      hl,0c5ach
52bd cb47      bit     0,a
52bf c2c952    jp      nz,52c9h
52c2 cd9f52    call    529fh
52c5 1d        dec     e
52c6 cab652    jp      z,52b6h
52c9 23        inc     hl
52ca cb4f      bit     1,a
52cc c2d652    jp      nz,52d6h
52cf cd9f52    call    529fh
52d2 1d        dec     e
52d3 cab652    jp      z,52b6h
52d6 23        inc     hl
52d7 cb57      bit     2,a
52d9 c2e352    jp      nz,52e3h
52dc cd9f52    call    529fh
52df 1d        dec     e
52e0 cab652    jp      z,52b6h
52e3 23        inc     hl
52e4 cb5f      bit     3,a
52e6 c2f052    jp      nz,52f0h
52e9 cd9f52    call    529fh
52ec 1d        dec     e
52ed cab652    jp      z,52b6h
52f0 23        inc     hl
52f1 cb67      bit     4,a
52f3 c2b652    jp      nz,52b6h
52f6 cd9f52    call    529fh
52f9 c9        ret     

52fa 1e05      ld      e,05h
52fc 7e        ld      a,(hl)
52fd fe00      cp      00h
52ff c20a53    jp      nz,530ah
5302 23        inc     hl
5303 1d        dec     e
5304 c2fc52    jp      nz,52fch
5307 cd0b53    call    530bh
530a c9        ret     

530b 2100c6    ld      hl,0c600h
530e 0610      ld      b,10h
5310 3600      ld      (hl),00h
5312 23        inc     hl
5313 10fb      djnz    5310h
5315 213d4d    ld      hl,4d3dh
5318 112ec6    ld      de,0c62eh
531b 011f00    ld      bc,001fh
531e edb8      lddr    
5320 1e20      ld      e,20h
5322 cdcd4b    call    4bcdh
5325 1e35      ld      e,35h
5327 cd9e49    call    499eh
532a 1e35      ld      e,35h
532c cd9e49    call    499eh
532f 219ec5    ld      hl,0c59eh
5332 3634      ld      (hl),34h
5334 cdb24a    call    4ab2h
5337 c9        ret     

5338 cf        rst     08h
5339 2110c6    ld      hl,0c610h
533c cdfa52    call    52fah
533f 2115c6    ld      hl,0c615h
5342 cdfa52    call    52fah
5345 211ac6    ld      hl,0c61ah
5348 cdfa52    call    52fah
534b 2120c6    ld      hl,0c620h
534e cdfa52    call    52fah
5351 cdce4c    call    4cceh
5354 cde24c    call    4ce2h
5357 cd3a4c    call    4c3ah
535a cdc150    call    50c1h
535d 219ec5    ld      hl,0c59eh
5360 3634      ld      (hl),34h
5362 cdb24a    call    4ab2h
5365 cdd34a    call    4ad3h
5368 1e02      ld      e,02h
536a cdcd4b    call    4bcdh
536d 1e02      ld      e,02h
536f cd9e49    call    499eh
5372 21cfc6    ld      hl,0c6cfh
5375 22c3c6    ld      (0c6c3h),hl
5378 cd8453    call    5384h
537b c9        ret     

537c cf        rst     08h
537d cd744d    call    4d74h
5380 cd8453    call    5384h
5383 c9        ret     

5384 fd21acc5  ld      iy,0c5ach
5388 dd21c5c6  ld      ix,0c6c5h
538c 0605      ld      b,05h
538e fd7e00    ld      a,(iy+00h)
5391 e60f      and     0fh
5393 fe01      cp      01h
5395 210e05    ld      hl,050eh
5398 2823      jr      z,53bdh
539a 3d        dec     a
539b 3d        dec     a
539c 6f        ld      l,a
539d fd7e00    ld      a,(iy+00h)
53a0 e6f0      and     0f0h
53a2 fe10      cp      10h
53a4 2603      ld      h,03h
53a6 2815      jr      z,53bdh
53a8 fe20      cp      20h
53aa 2601      ld      h,01h
53ac 280f      jr      z,53bdh
53ae fe40      cp      40h
53b0 2600      ld      h,00h
53b2 2809      jr      z,53bdh
53b4 fe80      cp      80h
53b6 2602      ld      h,02h
53b8 2803      jr      z,53bdh
53ba c3d353    jp      53d3h
53bd dd7500    ld      (ix+00h),l
53c0 dd7401    ld      (ix+01h),h
53c3 dde5      push    ix
53c5 cdec53		copy_c6c3
53c8 dde1      pop     ix
53ca fd23      inc     iy
53cc dd23      inc     ix
53ce dd23      inc     ix
53d0 10bc      djnz    538eh
53d2 c9        ret     

53d3 11afc0    ld      de,0c0afh
53d6 21ec53    ld      hl,53ech
53d9 010800    ld      bc,0008h
53dc edb0      ldir    
53de 112ac5    ld      de,0c52ah
53e1 210554    ld      hl,5405h
53e4 010800    ld      bc,0008h
53e7 edb0      ldir    
53e9 c38813    jp      1388h


5405 0e32      a=rnd40
540d a7        and     a
540e 210e05    ld      hl,050eh
5411 c8        ret     z

5412 0e04      a=rnd4
541a 67        ld      h,a
541b 0e0d      ld      c,0dh
541d cd3103    call    0331h
5420 3a36c0    ld      a,random
5423 6f        ld      l,a
5424 c9        ret     

5425 af        xor     a
5426 2ac3c6    ld      hl,(0c6c3h)
5429 11cfc6    ld      de,0c6cfh
542c ed52      sbc     hl,de
542e cb3d      srl     l
5430 c8        ret     z

5431 45        ld      b,l
5432 fd21cfc6  ld      iy,0c6cfh
5436 dd5e00    ld      e,(ix+00h)
5439 dd5601    ld      d,(ix+01h)
543c fd6e00    ld      l,(iy+00h)
543f fd6601    ld      h,(iy+01h)
5442 cd5e00    call    005eh
5445 2808      jr      z,544fh
5447 fd23      inc     iy
5449 fd23      inc     iy
544b 10ef      djnz    543ch
544d af        xor     a
544e c9        ret     

544f 37        scf     
5450 c9        ret     

5451 3abcc0    ld      a,(0c0bch)
5454 dd216554  ld      ix,5465h
5458 87        add     a,a
5459 5f        ld      e,a
545a 1600      ld      d,00h
545c dd19      add     ix,de
545e dd6e00    ld      l,(ix+00h)
5461 dd6601    ld      h,(ix+01h)
5464 e9        jp      (hl)
5465 79        ld      a,c
5466 54        ld      d,h
5467 f7        rst     30h
5468 54        ld      d,h
5469 68        ld      l,b
546a 55        ld      d,l
546b 74        ld      (hl),h
546c 55        ld      d,l
546d 8a        adc     a,d
546e 55        ld      d,l
546f 07        rlca    
5470 56        ld      d,(hl)
5471 80        add     a,b
5472 56        ld      d,(hl)
5473 a6        and     (hl)
5474 56        ld      d,(hl)
5475 df        rst     18h
5476 56        ld      d,(hl)
5477 2e57      ld      l,57h
5479 21bcc0    ld      hl,0c0bch
547c 34        inc     (hl)
547d 23        inc     hl
547e 3600      ld      (hl),00h
5489 cdd308		dreptunghi	eda8,36,8,0
5495 cdd308		dreptunghi	e9a8,36,7,8001h
54a1 cdd308		dreptunghi	e628,36,11,0
54ad cd8e08		bitmap	e1a8,6285,3,12		;american poker
54b0 dd21dd5c  ld      ix,5cddh
54b4 062c      ld      b,2ch
54b6 dd5e00    ld      e,(ix+00h)
54b9 dd5601    ld      d,(ix+01h)
54bc dd23      inc     ix
54be dd23      inc     ix
54c0 ed5f      ld      a,r
54c2 e603      and     03h
54c4 cdd054    call    54d0h
54c7 10ed      djnz    54b6h
54c9 210000    ld      hl,0000h
54cc 22bac0    ld      (0c0bah),hl
54cf c9        ret     

54d0 d5        push    de
54d1 fde1      pop     iy
54d3 87        add     a,a
54d4 87        add     a,a
54d5 c611      add     a,11h
54d7 fd7780    ld      (iy-80h),a
54da 3c        inc     a
54db fd7782    ld      (iy-7eh),a
54de 3c        inc     a
54df fd7700    ld      (iy+00h),a
54e2 3c        inc     a
54e3 fd7702    ld      (iy+02h),a
54e6 fd3601bb  ld      (iy+01h),0bbh
54ea fd3603bb  ld      (iy+03h),0bbh
54ee fd3681bb  ld      (iy-7fh),0bbh
54f2 fd3683bb  ld      (iy-7dh),0bbh
54f6 c9        ret     

54f7 2abac0    ld      hl,(0c0bah)
54fa 23        inc     hl
54fb 22bac0    ld      (0c0bah),hl
54fe 1183fd    ld      de,0fd83h
5501 19        add     hl,de
5502 97        sub     a
5503 3800      jr      c,5505h
5505 7c        ld      a,h
5506 b5        or      l
5507 2007      jr      nz,5510h
5509 21bdc0    ld      hl,0c0bdh
550c 3600      ld      (hl),00h
550e 2b        dec     hl
550f 34        inc     (hl)
5510 dd21bac0  ld      ix,0c0bah
5514 dd5e00    ld      e,(ix+00h)
5517 dd5601    ld      d,(ix+01h)
551a cb3a      srl     d
551c cb1b      rr      e
551e 21e895    ld      hl,95e8h
5521 3003      jr      nc,5526h
5523 21969f    ld      hl,9f96h
5526 19        add     hl,de
5527 0607      ld      b,07h
5529 11ece6    ld      de,0e6ech
552c c5        push    bc
552d 012200    ld      bc,0022h
5530 e5        push    hl
5531 eda8      ldd     
5533 1b        dec     de
5534 ea3155    jp      pe,5531h
5537 21c400    ld      hl,00c4h
553a 19        add     hl,de
553b eb        ex      de,hl
553c e1        pop     hl
553d 016201    ld      bc,0162h
5540 09        add     hl,bc
5541 c1        pop     bc
5542 10e8      djnz    552ch
5546 cd3203    a=rnd44
554c dd21dd5c  ld      ix,5cddh
5550 87        add     a,a
5551 5f        ld      e,a
5552 1600      ld      d,00h
5554 dd19      add     ix,de
5558 cd3203    a=rnd4
555e 4f        ld      c,a
555f dd5e00    ld      e,(ix+00h)
5562 dd5601    ld      d,(ix+01h)
5565 c3d054    jp      54d0h
5568 21bdc0    ld      hl,0c0bdh
556b 7e        ld      a,(hl)
556c 34        inc     (hl)
556d feff      cp      0ffh
556f 3600      ld      (hl),00h
5571 2b        dec     hl
5572 34        inc     (hl)
5573 c9        ret     

5574 3e0f      ld      a,0fh
5576 32cfc0    ld      (0c0cfh),a
5579 21bcc0    ld      hl,0c0bch
557c 34        inc     (hl)
5586 cdd308		dreptunghi	ed2a,34,21,8001h
5589 c9        ret     

558a 21bdc0    ld      hl,0c0bdh
558d 7e        ld      a,(hl)
558e 34        inc     (hl)
558f fe08      cp      08h
5591 2009      jr      nz,559ch
5593 3600      ld      (hl),00h
5595 2b        dec     hl
5596 34        inc     (hl)
5597 f5        push    af
5598 cddb55    call    55dbh
559b f1        pop     af
559c cda255    call    55a2h
559f c3c955    jp      55c9h
55a2 dd21995d  ld      ix,5d99h
55a6 87        add     a,a
55a7 5f        ld      e,a
55a8 1600      ld      d,00h
55aa dd19      add     ix,de
55ac dd7e00    ld      a,(ix+00h)
55af dd4601    ld      b,(ix+01h)
55b2 f5        push    af
55b3 c5        push    bc
55b4 87        add     a,a
55b5 87        add     a,a
55b6 dd21715d  ld      ix,5d71h
55ba 87        add     a,a
55bb 5f        ld      e,a
55bc 1600      ld      d,00h
55be dd19      add     ix,de
55c0 cd3e57    call    573eh
55c3 cd5557    call    5755h
55c6 c1        pop     bc
55c7 f1        pop     af
55c8 c9        ret     

55c9 b7        or      a
55ca c0        ret     nz

55cb 05        dec     b
55cc c8        ret     z

55cd 78        ld      a,b
55ce fe02      cp      02h
55d0 c8        ret     z

55d1 cd3e57    call    573eh
55d4 dd21915d  ld      ix,5d91h
55d8 c35557    jp      5755h
55e4 cdd308		dreptunghi	eac8,5,12,80c3h
55e7 117600    ld      de,0076h
55ea dd2148e5  ld      ix,0e548h
55ee 21355d    ld      hl,5d35h
55f1 060c      ld      b,0ch
55f3 c5        push    bc
55f4 0605      ld      b,05h
55f6 7e        ld      a,(hl)
55f7 dd7700    ld      (ix+00h),a
55fa 23        inc     hl
55fb dd23      inc     ix
55fd dd23      inc     ix
55ff 10f5      djnz    55f6h
5601 c1        pop     bc
5602 dd19      add     ix,de
5604 10ed      djnz    55f3h
5606 c9        ret     

5607 21bdc0    ld      hl,0c0bdh
560a 7e        ld      a,(hl)
560b 34        inc     (hl)
560c fe27      cp      27h
560e 201f      jr      nz,562fh
5610 3600      ld      (hl),00h
5612 2b        dec     hl
5613 34        inc     (hl)
5614 21c6e4    ld      hl,0e4c6h
5617 01070e    ld      bc,0e07h
561a 11ffd4    ld      de,0d4ffh
561d f5        push    af
561e 7a        ld      a,d
561f cd6656    call    5666h
5622 2148e5    ld      hl,0e548h
5625 01050c    ld      bc,0c05h
5628 7b        ld      a,e
5629 cd6656    call    5666h
562c f1        pop     af
562d 182d      jr      565ch
562f fe0f      cp      0fh
5631 200b      jr      nz,563eh
5633 2140e3    ld      hl,0e340h
5636 010d14    ld      bc,140dh
5639 119aec    ld      de,0ec9ah
563c 18df      jr      561dh
563e fe1b      cp      1bh
5640 200b      jr      nz,564dh
5642 21c2e3    ld      hl,0e3c2h
5645 010b12    ld      bc,120bh
5648 116eac    ld      de,0ac6eh
564b 18d0      jr      561dh
564d fe23      cp      23h
564f 200b      jr      nz,565ch
5651 2144e4    ld      hl,0e444h
5654 010910    ld      bc,1009h
5657 11ffe0    ld      de,0e0ffh
565a 18c1      jr      561dh
565c dd21a95d  ld      ix,5da9h
5660 cda655    call    55a6h
5663 c3c955    jp      55c9h
5666 d5        push    de
5667 118000    ld      de,0080h
566a 23        inc     hl
566b c5        push    bc
566c e5        push    hl
566d 41        ld      b,c
566e 4f        ld      c,a
566f 7e        ld      a,(hl)
5670 e601      and     01h
5672 b1        or      c
5673 77        ld      (hl),a
5674 23        inc     hl
5675 23        inc     hl
5676 10f7      djnz    566fh
5678 79        ld      a,c
5679 e1        pop     hl
567a c1        pop     bc
567b 19        add     hl,de
567c 10ed      djnz    566bh
567e d1        pop     de
567f c9        ret     

5680 21bdc0    ld      hl,0c0bdh
5683 7e        ld      a,(hl)
5684 34        inc     (hl)
5685 e603      and     03h
5687 c0        ret     nz

5688 7e        ld      a,(hl)
5689 3d        dec     a
568a cb77      bit     6,a
568c 2805      jr      z,5693h
568e 3600      ld      (hl),00h
5690 2b        dec     hl
5691 34        inc     (hl)
5692 c9        ret     

5693 cb5f      bit     3,a
5695 2804      jr      z,569bh
5697 3e02      ld      a,02h
5699 1802      jr      569dh
569b 3e0a      ld      a,0ah
569d 2148e5    ld      hl,0e548h
56a0 01050c    ld      bc,0c05h
56a3 c36656    jp      5666h
56a6 21bdc0    ld      hl,0c0bdh
56a9 7e        ld      a,(hl)
56aa 34        inc     (hl)
56ab e607      and     07h
56ad 7e        ld      a,(hl)
56ae cc9356    call    z,5693h
56b1 21bdc0    ld      hl,0c0bdh
56b4 7e        ld      a,(hl)
56b5 fefa      cp      0fah
56b7 2004      jr      nz,56bdh
56b9 3600      ld      (hl),00h
56bb 2b        dec     hl
56bc 34        inc     (hl)
56bd 21cfc0    ld      hl,0c0cfh
56c0 7e        ld      a,(hl)
56c1 cb7f      bit     7,a
56c3 cbbf      res     7,a
56c5 2809      jr      z,56d0h
56c7 3c        inc     a
56c8 fe0f      cp      0fh
56ca 2809      jr      z,56d5h
56cc cbff      set     7,a
56ce 1805      jr      56d5h
56d0 3d        dec     a
56d1 2002      jr      nz,56d5h
56d3 18f7      jr      56cch
56d5 77        ld      (hl),a
56d6 cbbf      res     7,a
56d8 dd21a95d  ld      ix,5da9h
56dc c3a655    jp      55a6h
56df 21bcc0    ld      hl,0c0bch
56e2 34        inc     (hl)
56e3 210000    ld      hl,0000h
56e6 22cdc0    ld      (0c0cdh),hl
56f2 cdd308		dreptunghi	eda8,36,22,0
56f5 cddb48		out	37h,[c407]
56f8 cd0a44    call    440ah
56fb cddb48		out	37h,[c407]
56fe cd0642    call    4206h
5701 cddb48		out	37h,[c407]
5704 0605      ld      b,05h
5706 212ae9    ld      hl,0e92ah
5709 110e00    ld      de,000eh
570c cd570e    call    0e57h
570f 19        add     hl,de
5710 10fa      djnz    570ch
5712 cddb48		out	37h,[c407]
5715 c9        ret     

5716 41        ld      b,c
5717 54        ld      d,h
5718 54        ld      d,h
5719 45        ld      b,l
571a 4e        ld      c,(hl)
571b 54        ld      d,h
571c 49        ld      c,c
571d 4f        ld      c,a
571e 4e        ld      c,(hl)
571f 24        inc     h
5720 47        ld      b,a
5721 41        ld      b,c
5722 4d        ld      c,l
5723 45        ld      b,l
5724 204f      jr      nz,5775h
5726 46        ld      b,(hl)
5727 2053      jr      nz,577ch
5729 4b        ld      c,e
572a 49        ld      c,c
572b 4c        ld      c,h
572c 4c        ld      c,h
572d 24        inc     h
572e 2acdc0    ld      hl,(0c0cdh)
5731 23        inc     hl
5732 22cdc0    ld      (0c0cdh),hl
5735 7c        ld      a,h
5736 fe07      cp      07h
5738 c0        ret     nz

5739 af        xor     a
573a 32bcc0    ld      (0c0bch),a
573d c9        ret     

573e 21ff05    ld      hl,05ffh
5741 110202    ld      de,0202h
5744 c5        push    bc
5745 19        add     hl,de
5746 10fd      djnz    5745h
5748 c1        pop     bc
5749 e5        push    hl
574a 214ce6    ld      hl,0e64ch
574d 117eff    ld      de,0ff7eh
5750 19        add     hl,de
5751 10fd      djnz    5750h
5753 c1        pop     bc
5754 c9        ret     

5755 c5        push    bc
5756 c5        push    bc
5757 c5        push    bc
5758 c5        push    bc
5759 dd5600    ld      d,(ix+00h)
575c 010101    ld      bc,0101h
575f cda057    call    57a0h
5762 dd5601    ld      d,(ix+01h)
5765 c1        pop     bc
5766 41        ld      b,c
5767 0e01      ld      c,01h
5769 cda057    call    57a0h
576c dd5602    ld      d,(ix+02h)
576f 014001    ld      bc,0140h
5772 cda057    call    57a0h
5775 dd5603    ld      d,(ix+03h)
5778 c1        pop     bc
5779 0e40      ld      c,40h
577b cda057    call    57a0h
577e dd5604    ld      d,(ix+04h)
5781 01ff01    ld      bc,01ffh
5784 cda057    call    57a0h
5787 dd5605    ld      d,(ix+05h)
578a c1        pop     bc
578b 41        ld      b,c
578c 0eff      ld      c,0ffh
578e cda057    call    57a0h
5791 dd5606    ld      d,(ix+06h)
5794 01c001    ld      bc,01c0h
5797 cda057    call    57a0h
579a dd5607    ld      d,(ix+07h)
579d c1        pop     bc
579e 0ec0      ld      c,0c0h
57a0 c5        push    bc
57a1 72        ld      (hl),d
57a2 cb21      sla     c
57a4 3004      jr      nc,57aah
57a6 06ff      ld      b,0ffh
57a8 1802      jr      57ach
57aa 0600      ld      b,00h
57ac 09        add     hl,bc
57ad c1        pop     bc
57ae 10f0      djnz    57a0h
57b0 c9        ret     

57b1 111448    ld      de,4814h
57b4 cd3a58    call    583ah
57b7 0e0f      ld      c,0fh
57b9 215208    ld      hl,0852h
57bc 111d80    ld      de,801dh
57bf cdf907    call    07f9h
57c2 0605      ld      b,05h
57c4 c5        push    bc
57c5 cdcc05    call    05cch
57c8 2107c4    ld      hl,0c407h
57cb cb5e      bit     3,(hl)
57cd cbde      set     3,(hl)
57cf 2802      jr      z,57d3h
57d1 cb9e      res     3,(hl)
57d3 2100c4    ld      hl,0c400h
57d6 cba6      res     4,(hl)
57d8 2103c4    ld      hl,0c403h
57db cb8e      res     1,(hl)
57dd 2104c4    ld      hl,0c404h
57e0 cb8e      res     1,(hl)
57e2 cd6508    call    0865h
			delay	1000h
57ed c1        pop     bc
57ee 10d4      djnz    57c4h
57f0 18c5      jr      57b7h
57f2 111054    ld      de,5410h
57f5 cd3a58    call    583ah
57f8 0630      ld      b,30h
57fa c5        push    bc
57fb 0e0f      ld      c,0fh
57fd 215208    ld      hl,0852h
5800 111d80    ld      de,801dh
5803 cdf907    call    07f9h
5806 0605      ld      b,05h
5808 c5        push    bc
5809 cdcc05    call    05cch
580c 2107c4    ld      hl,0c407h
580f cb5e      bit     3,(hl)
5811 cbde      set     3,(hl)
5813 2802      jr      z,5817h
5815 cb9e      res     3,(hl)
5817 2100c4    ld      hl,0c400h
581a cba6      res     4,(hl)
581c 2103c4    ld      hl,0c403h
581f cb8e      res     1,(hl)
5821 2104c4    ld      hl,0c404h
5824 cb8e      res     1,(hl)
5826 cd6508    call    0865h
			delay	1000h
5831 c1        pop     bc
5832 10d4      djnz    5808h
5834 c1        pop     bc
5835 10c3      djnz    57fah
5837 c38813    jp      1388h
5840 cdd308		dreptunghi	efa8,36,30,de
5843 3e00      ld      a,00h
5845 3218c4    ld      (0c418h),a
5848 3e81      ld      a,81h
584a ed47      ld      i,a
584c c9        ret     

584d 0e0f      ld      c,0fh
584f 215208    ld      hl,0852h
5852 115b80    ld      de,805bh
5855 cdf907    call    07f9h
5858 11f663    ld      de,63f6h
585b 1833      jr      5890h
585d 0e0f      ld      c,0fh
585f 215208    ld      hl,0852h
5862 115b80    ld      de,805bh
5865 cdf907    call    07f9h
5868 110364    ld      de,6403h
586b 1823      jr      5890h
586d 3aaae8    ld      a,(0e8aah)		;daca este afisat 'select' va fi sters
5870 fe53      cp      53h
5872 280c      jr      z,5880h
587a 0e00      ld      c,00h
587c cd8208		liniebmp	e8aa,6398			;select hold cards
587f c9        ret     

5880 cdd308		dreptunghi	e8a8,36,1,0			;stergere hold cards
588c c9        ret     

588d 11aa63    ld      de,63aah
5890 21c1ed    ld      hl,0edc1h
5893 7e        ld      a,(hl)
5894 fe10      cp      10h
5896 2804      jr      z,589ch
5898 0e10      ld      c,10h
589a 1802      jr      589eh
589c 0e00      ld      c,00h
589e 2b        dec     hl
589f c38208    jp      liniebmp
58a2 3adac4    ld      a,(0c4dah)
58a5 b7        or      a
58a6 202f      jr      nz,58d7h
58a8 3a29ee    ld      a,(0ee29h)
58ab fe04      cp      04h
58ad 280b      jr      z,58bah
58af 2128ee    ld      hl,0ee28h
58b2 010b04    ld      bc,040bh
58b5 3e04      ld      a,04h
58b7 cd6656    call    5666h
58ba fd21e2c4  ld      iy,0c4e2h
58be dd21a0c0  ld      ix,0c0a0h
58c2 cdb904    x=y
58c5 3aa1c0    ld      a,(0c0a1h)
58c8 fe01      cp      01h
58ca 3806      jr      c,58d2h
58cc 210001    ld      hl,0100h
58cf 22a0c0    ld      (0c0a0h),hl
58d2 110430    ld      de,3004h
58d5 1838      jr      590fh
58d7 3a29ee    ld      a,(0ee29h)
58da fefc      cp      0fch
58dc 2816      jr      z,58f4h
58de 2128ee    ld      hl,0ee28h
58e1 010b04    ld      bc,040bh
58e4 3efc      ld      a,0fch
58e6 cd6656    call    5666h
58e9 21aaee    ld      hl,0eeaah
58ec 010902    ld      bc,0209h
58ef 3e58      ld      a,58h
58f1 cd6656    call    5666h
58f4 fd21e5c4  ld      iy,0c4e5h
58f8 dd21a0c0  ld      ix,0c0a0h
58fc cdb904    x=y
58ff 3aa1c0    ld      a,(0c0a1h)
5902 fe10      cp      10h
5904 3806      jr      c,590ch
5906 210010    ld      hl,1000h
5909 22a0c0    ld      (0c0a0h),hl
5919 cda008		asciiX 0,58h,ef2e,c09f,4
591c 211ac4    ld      hl,0c41ah
591f cb5e      bit     3,(hl)
5921 2818      jr      z,593bh
5923 3a3fee    ld      a,(0ee3fh)
5926 fe10      cp      10h
5928 c42042    call    nz,dolar
592b dd2146ef  ld      ix,0ef46h
592f 010503    ld      bc,0305h
5932 fd21dfc4  ld      iy,0c4dfh
5936 cd6059    call    5960h
5939 1816      jr      5951h
593b 3a3fee    ld      a,(0ee3fh)
593e fe00      cp      00h
5940 c42042    call    nz,dolar
5943 dd2148ef  ld      ix,0ef48h
5947 010402    ld      bc,0204h
594a fd21d8c4  ld      iy,0c4d8h
594e cd6059    call    5960h
5951 dd2162ef  ld      ix,0ef62h
5955 010503    ld      bc,0305h
5958 fd21f1c4  ld      iy,0c4f1h
595c cd6059    call    5960h
595f c9        ret     

5960 fd7e02    ld      a,(iy+02h)
5963 cd6b59    call    596bh
5966 fd2b      dec     iy
5968 10f6      djnz    5960h
596a c9        ret     

596b f5        push    af
596c 1f        rra     
596d 1f        rra     
596e 1f        rra     
596f 1f        rra     
5970 cd7459    call    5974h
5973 f1        pop     af
5974 e60f      and     0fh
5976 280a      jr      z,5982h
5978 c616      add     a,16h
597a 57        ld      d,a
597b c68b      add     a,8bh
597d 5f        ld      e,a
597e 0eff      ld      c,0ffh
5980 180c      jr      598eh
5982 0d        dec     c
5983 79        ld      a,c
5984 e680      and     80h
5986 11a116    ld      de,16a1h
5989 2003      jr      nz,598eh
598b 110303    ld      de,0303h
598e dd7300    ld      (ix+00h),e
5991 dd7280    ld      (ix-80h),d
5994 dd23      inc     ix
5996 dd23      inc     ix
5998 c9        ret     

5999 011022    ld      bc,2210h
599c 21abed    ld      hl,0edabh
599f 7e        ld      a,(hl)
59a0 fe14      cp      14h
59a2 2802      jr      z,59a6h
59a4 0e14      ld      c,14h
59a6 71        ld      (hl),c
59a7 23        inc     hl
59a8 23        inc     hl
59a9 10fb      djnz    59a6h
59ab c9        ret     

59ac 21abe1    ld      hl,0e1abh
59af 3e0c      ld      a,0ch
59b1 be        cp      (hl)
59b2 2002      jr      nz,59b6h
59b4 3efc      ld      a,0fch
59b6 2b        dec     hl
59b7 012203    ld      bc,0322h
59ba c36656    jp      5666h
59bd 3adde3    ld      a,(0e3ddh)
59c0 e6fe      and     0feh
59c2 ee04      xor     04h
59c4 010804    ld      bc,0408h
59c7 21dae3    ld      hl,0e3dah
59ca cd6656    call    5666h
59cd 215ae5    ld      hl,0e55ah
59d0 118000    ld      de,0080h
59d3 3abcc0    ld      a,(0c0bch)
59d6 3d        dec     a
59d7 200c      jr      nz,59e5h
59d9 19        add     hl,de
59da 3e06      ld      a,06h
59dc 32bcc0    ld      (0c0bch),a
59df 0605      ld      b,05h
59e1 3e20      ld      a,20h
59e3 1811      jr      59f6h
59e5 32bcc0    ld      (0c0bch),a
59e8 47        ld      b,a
59e9 19        add     hl,de
59ea 10fd      djnz    59e9h
59ec 3abcc0    ld      a,(0c0bch)
59ef ed44      neg     
59f1 c606      add     a,06h
59f3 47        ld      b,a
59f4 3e24      ld      a,24h
59f6 0e08      ld      c,08h
59f8 c36656    jp      5666h
59fb 3e08      ld      a,08h
59fd d338      out     (38h),a
59ff 3a54c0    ld      a,(0c054h)
5a02 fe03      cp      03h
5a04 3a48c0    ld      a,(0c048h)
5a07 3001      jr      nc,5a0ah
5a09 af        xor     a
5a0a d339      out     (39h),a
5a0c c9        ret     

5a0d 3e09      ld      a,09h
5a0f d338      out     (38h),a
5a11 3a5cc0    ld      a,(0c05ch)
5a14 fe03      cp      03h
5a16 3a49c0    ld      a,(0c049h)
5a19 3001      jr      nc,5a1ch
5a1b af        xor     a
5a1c d339      out     (39h),a
5a1e c9        ret     

5a1f 3e0a      ld      a,0ah
5a21 d338      out     (38h),a
5a23 3a64c0    ld      a,(0c064h)
5a26 fe03      cp      03h
5a28 3a4ac0    ld      a,(0c04ah)
5a2b 3001      jr      nc,5a2eh
5a2d af        xor     a
5a2e d339      out     (39h),a
5a30 c9        ret     

5a31 0e03      ld      c,03h
5a33 dd21c6e4  ld      ix,0e4c6h
5a37 fd2194c0  ld      iy,0c094h
5a3b fd7e01    ld      a,(iy+01h)
5a3e 1f        rra     
5a3f 1f        rra     
5a40 1f        rra     
5a41 1f        rra     
5a42 cd7459    call    5974h
5a45 dd23      inc     ix
5a47 dd23      inc     ix
5a49 fd7e01    ld      a,(iy+01h)
5a4c cd7459    call    5974h
5a4f dd23      inc     ix
5a51 dd23      inc     ix
5a53 fd7e00    ld      a,(iy+00h)
5a56 1f        rra     
5a57 1f        rra     
5a58 1f        rra     
5a59 1f        rra     
5a5a cd7459    call    5974h
5a5d dd23      inc     ix
5a5f dd23      inc     ix
5a61 fd7e00    ld      a,(iy+00h)
5a64 c37459    jp      5974h
5a67 cf        rst     08h
5a68 cdc448    call    48c4h
5a74 cdd308		dreptunghi	e7a8,3,13,30ch
5a80 cdd308		dreptunghi	e7e8,4,13,30ch
5a8c cd8e08		bitmap	e1ae,5df9,13,8		;incadrare jacks or b
5a8f 061e      ld      b,1eh
5a91 c5        push    bc
5a92 cdc448    call    48c4h
5a95 cb40      bit     0,b
5a9a 010809    ld      c,8h
5a9d 110660    ld      de,6006h		;jacks or b
5aa0 2805      jr      z,5aa7h
5aa2 0e10      ld      c,10h
5aa4 118d60    ld      de,608dh		;????????????
5aa7 cd8e08		bitmap	e2be,de,9,c
5aaa c1        pop     bc
5aab 78        ld      a,b
5aac 87        add     a,a
5aad 87        add     a,a
5aae 87        add     a,a
5aaf 5f        ld      e,a
5ab0 1600      ld      d,00h
5ab2 21c800    ld      hl,00c8h
5ab5 19        add     hl,de
5ab6 eb        ex      de,hl
5ab7 48        ld      c,b
5ab8 cb39      srl     c
5aba 21dc5a    ld      hl,5adch
5abd cb40      bit     0,b
5abf 2805      jr      z,5ac6h
5ac1 cdf807    call    07f8h
5ac4 1803      jr      5ac9h
5ac6 cded07    call    07edh
5ac9 210600		sleep	6
5acf 10c0      djnz    5a91h
5ad4 0e04      ld      c,04h
5ad6 cd0901		inser	5a31h
5ad9 c3315a    jp      5a31h
5adc 90        sub     b
5add 010a07    ld      bc,070ah
5ae0 32cf11    ld      (11cfh),a
5ae3 5d        ld      e,l
5ae4 58        ld      e,b
5ae5 0e14      ld      c,14h
			inser	de
			ret
5aea cf        rst     08h
5aeb 114d58    ld		c,14h
			inser	584dh
			ret
5af3 cf        rst     08h
5af4 11a258    ld      c,1
			inser	58a2h
			ret
5afc cf        rst     08h
5afd 118d58    	dreptunghi	eda8,36,1,0
5b0e 0e0f      ld      c,0fh
5b10 cd0901		inser	588dh
5b13 c9        ret     

5b15 cd5d3f    call    3f5dh
5b18 11cc63    ld      de,63cch		;afiseaza 'wins'
5b1b cd4e5b    call    5b4eh
5b21 0e0f      ld      c,0fh
5b23 cd0901		inser	5999h
5b26 21b1e7    ld      hl,0e7b1h
5b29 1180ff    ld      de,0ff80h
5b2c 3abec0    ld      a,(0c0beh)
5b2f 47        ld      b,a
5b30 05        dec     b
5b31 19        add     hl,de
5b32 10fd      djnz    5b31h
5b34 7e        ld      a,(hl)
5b35 fe08      cp      08h
5b37 2001      jr      nz,5b3ah
5b39 19        add     hl,de
5b3a 2d        dec     l
5b3b 3600      ld      (hl),00h
5b3d 2c        inc     l
5b3e 36b7      ld      (hl),0b7h
5b40 2c        inc     l
5b41 2c        inc     l
5b42 011819    ld      bc,1918h
5b45 cda659    call    59a6h
5b48 36b7      ld      (hl),0b7h
5b4a 2d        dec     l
5b4b 3601      ld      (hl),01h
5b4d c9        ret     

5b4e 21aaed    ld      hl,0edaah
5b51 0605      ld      b,05h
5b53 cb39      srl     c
5b55 c5        push    bc
5b56 d5        push    de
5b57 3803      jr      c,5b5ch
5b59 11c563    ld      de,63c5h
5b5c 0e00      ld      c,00h
5b5e cd8108    liniebmp	hl,63c5	;wins
5b61 110e00    ld      de,000eh
5b64 19        add     hl,de
5b65 d1        pop     de
5b66 c1        pop     bc
5b67 10ea      djnz    5b53h
5b69 c9        ret     

5b6a cf        rst     08h
5b6b 21aae1		bitmap	e1aa,621c,3,12		;incadrare sus
5b77 3abec0    ld      a,(0c0beh)				;tip cupa
5b7a 47        ld      b,a
5b88 0e0c      ld      c,0ch
5b8a cd8208    liniebmp	e22e,60fc+(b*24)			;titlu cupa
5b8d fd21dfc4  ld      iy,0c4dfh
5b91 dd2197c0  ld      ix,0c097h
5b95 cdb904    x=y
5ba3 cd9e08		ascii	4,12,e25a,c097
5ba9 0e0f      ld      c,0fh
5bab cd0901		inser	59ach
5bae c9        ret     

5baf cf        rst     08h
5bb0 11315a		sterg	5a31h
5bb6 c30a44    jp      440ah
5bb9 cf        rst     08h
5bba 118d58		sterg	588dh
5bc9 cdd308		dreptunghi	eda8,36,1,0
5bcc c9        ret

5bcd cf        rst     08h
5bce 114d58    ld      de,584dh
5bd1 18ea      jr      5bbdh
5bd3 cf        rst     08h
5bd4 115d58    ld      de,585dh
5bd7 18e4      jr      5bbdh
5bd9 cf        rst     08h
5bda 119959		sterg	5999h
5bdd c33601    ret
5be0 cf        rst     08h
5be1 11ac59		sterg	59ach
5bf0 cdd308		dreptunghi	e128,36,1,0
5bf3 c9        ret     

5bf4 cf        rst     08h
5bf5 11a258		sterg	58a2h
5bf8 c33601    ret
5bfb cf        rst     08h
5bfc 210100    ld      hl,0001h
5bff 2298c0    ld      (0c098h),hl
5c02 2297c0    ld      (0c097h),hl
5c05 210200		sleep	2
5c0b 210800    ld      hl,0008h
5c0e 22cdc0    ld      (0c0cdh),hl
5c11 fd7e00    ld      a,(iy+00h)
5c14 fdb601    or      (iy+01h)
5c17 fdb602    or      (iy+02h)
5c1a c8        ret     z

5c1b fd7e00    ld      a,(iy+00h)
5c1e e60f      and     0fh
5c20 2005      jr      nz,5c27h
5c22 3e10      ld      a,10h
5c24 3297c0    ld      (0c097h),a
5c27 fde5      push    iy
5c29 dde5      push    ix
5c2b fde5      push    iy
5c2d fd2197c0  ld      iy,0c097h
5c31 cd1a04    x=x+y
5c34 dde1      pop     ix
5c36 cd3a04    x=x-y
5c39 dde1      pop     ix
5c3b fde1      pop     iy
5c3d af        xor     a
5c3e 11f000    ld      de,00f0h
5c41 2003      jr      nz,5c46h
5c43 118001    ld      de,0180h
5c46 219f5c    ld      hl,5c9fh
5c49 0e10      ld      c,10h
5c4b cdf807    call    07f8h
5c4e cd815c    call    5c81h
5c51 ca1a04    jz      x=x+y
5c54 76        halt    
5c55 76        halt    
5c56 2acdc0    ld      hl,(0c0cdh)
5c59 2b        dec     hl
5c5a 7d        ld      a,l
5c5b fe01      cp      01h
5c5d 2803      jr      z,5c62h
5c5f 22cdc0    ld      (0c0cdh),hl
5c62 cd6f5c    call    5c6fh
5c65 28aa      jr      z,5c11h
5c6a cd9f00		sleep	(cocdh)
5c6d 18a2      jr      5c11h
5c6f 2114c4    ld      hl,0c414h
5c72 cb66      bit     4,(hl)
5c74 c8        ret     z

5c75 2113c4    ld      hl,0c413h
5c78 cb66      bit     4,(hl)
5c7a c8        ret     z

5c7b 2116c4    ld      hl,0c416h
5c7e cb4e      bit     1,(hl)
5c80 c9        ret     

5c81 2111c4    ld      hl,0c411h
5c84 cb4e      bit     1,(hl)
5c86 c8        ret     z

5c87 2114c4    ld      hl,0c414h
5c8a cb56      bit     2,(hl)
5c8c c8        ret     z

5c8d 2115c4    ld      hl,0c415h
5c90 cb66      bit     4,(hl)
5c92 c8        ret     z

5c93 2111c4    ld      hl,0c411h
5c96 cb66      bit     4,(hl)
5c98 c8        ret     z

5c99 2116c4    ld      hl,0c416h
5c9c cb56      bit     2,(hl)
5c9e c9        ret     

5c9f 89        adc     a,c
5ca0 00        nop     
5ca1 2000      jr      nz,5ca3h
5ca3 1000      djnz    5ca5h
5ca5 01cfcd    ld      bc,0cdcfh			rst8
5ca8 c0        ret     nz

5ca9 5c        ld      e,h				call 5cc0
5caa 210100		sleep	1
			play	5cd5,839h,251
5cbf c9        ret

5cc0 3eff		[c047]=ffh
5cc5 cdab07		[c050]=40h
5cc8 cdb207		[c058]=40h
5ccb cdb907		[c060]=40h
5cce 210100		sleep	1
5cd4 c9        ret     

5cd5 06d7      ld      b,0d7h
5cd7 1010      djnz    5ce9h
5cd9 1000      djnz    5cdbh
5cdb 03        inc     bc
5cdc 0f        rrca    
5cdd 2c        inc     l
5cde e432e4    call    po,0e432h
5ce1 38e4      jr      c,5cc7h
5ce3 3ee4      ld      a,0e4h
5ce5 44        ld      b,h
5ce6 e44ae4    call    po,0e44ah
5ce9 50        ld      d,b
5cea e456e4    call    po,0e456h
5ced 5c        ld      e,h
5cee e462e4    call    po,0e462h
5cf1 68        ld      l,b
5cf2 e4ace5    call    po,0e5ach
5cf5 b2        or      d
5cf6 e5        push    hl
5cf7 b8        cp      b
5cf8 e5        push    hl
5cf9 be        cp      (hl)
5cfa e5        push    hl
5cfb c4e5ca    call    nz,0cae5h
5cfe e5        push    hl
5cff d0        ret     nc

5d00 e5        push    hl
5d01 d6e5      sub     0e5h
5d03 dce5e2    call    c,0e2e5h
5d06 e5        push    hl
5d07 e8        ret     pe

5d08 e5        push    hl
5d09 2c        inc     l
5d0a eb        ex      de,hl
5d0b 32eb38    ld      (38ebh),a
5d0e eb        ex      de,hl
5d0f 3eeb      ld      a,0ebh
5d11 44        ld      b,h
5d12 eb        ex      de,hl
5d13 4a        ld      c,d
5d14 eb        ex      de,hl
5d15 50        ld      d,b
5d16 eb        ex      de,hl
5d17 56        ld      d,(hl)
5d18 eb        ex      de,hl
5d19 5c        ld      e,h
5d1a eb        ex      de,hl
5d1b 62        ld      h,d
5d1c eb        ex      de,hl
5d1d 68        ld      l,b
5d1e eb        ex      de,hl
5d1f ac        xor     h
5d20 ecb2ec    call    pe,0ecb2h
5d23 b8        cp      b
5d24 ecbeec    call    pe,0ecbeh
5d27 c4ecca    call    nz,0caech
5d2a ecd0ec    call    pe,0ecd0h
5d2d d6ec      sub     0ech
5d2f dcece2    call    c,0e2ech
5d32 ece8ec    call    pe,0ece8h
5d35 c7        rst     00h
5d36 c8        ret     z

5d37 c9        ret     

5d38 cacbcc    jp      z,0cccbh
5d3b cdcecf    call    0cfceh
5d3e d0        ret     nc

5d3f d1        pop     de
5d40 d2d3d4    jp      nc,0d4d3h
5d43 d5        push    de
5d44 d6d7      sub     0d7h
5d46 d8        ret     c

5d47 d9        exx     
5d48 dadbdc    jp      c,0dcdbh
5d4b dddedf    sbc     a,0dfh
5d4e d4e0e1    call    nc,0e1e0h
5d51 e2d2d4    jp      po,0d4d2h
5d54 e3        ex      (sp),hl
5d55 e4e5e6    call    po,0e6e5h
5d58 e7        rst     20h
5d59 e8        ret     pe

5d5a e9        jp      (hl)
5d5b eaebec    jp      pe,0ecebh
5d5e edee      db      0edh, 0eeh       ; Undocumented 8 T-State NOP
5d60 ef        rst     28h
5d61 f0        ret     p

5d62 f1        pop     af
5d63 f2f3f4    jp      p,0f4f3h
5d66 f5        push    af
5d67 f6f7      or      0f7h
5d69 f8        ret     m

5d6a f9        ld      sp,hl
5d6b fafbfc    jp      m,0fcfbh
5d6e fdfeff    cp      0ffh
5d71 b8        cp      b
5d72 9b        sbc     a,e
5d73 c5        push    bc
5d74 9c        sbc     a,h
5d75 df        rst     18h
5d76 98        sbc     a,b
5d77 d29fb4    jp      nc,0b49fh
5d7a 9a        sbc     a,d
5d7b c1        pop     bc
5d7c 9d        sbc     a,l
5d7d db99      in      a,(99h)
5d7f ce9e      adc     a,9eh
5d81 af        xor     a
5d82 99        sbc     a,c
5d83 bc        cp      h
5d84 9e        sbc     a,(hl)
5d85 d69a      sub     9ah
5d87 c9        ret     

5d88 9d        sbc     a,l
5d89 90        sub     b
5d8a 98        sbc     a,b
5d8b 91        sub     c
5d8c 9f        sbc     a,a
5d8d 93        sub     e
5d8e 9b        sbc     a,e
5d8f 92        sub     d
5d90 9c        sbc     a,h
5d91 80        add     a,b
5d92 80        add     a,b
5d93 80        add     a,b
5d94 80        add     a,b
5d95 80        add     a,b
5d96 80        add     a,b
5d97 80        add     a,b
5d98 80        add     a,b
5d99 00        nop     
5d9a 010101    ld      bc,0101h
5d9d 02        ld      (bc),a
5d9e 010301    ld      bc,0103h
5da1 00        nop     
5da2 02        ld      (bc),a
5da3 010202    ld      bc,0202h
5da6 02        ld      (bc),a
5da7 03        inc     bc
5da8 02        ld      (bc),a
5da9 00        nop     
5daa 03        inc     bc
5dab 010302    ld      bc,0203h
5dae 03        inc     bc
5daf 03        inc     bc
5db0 03        inc     bc
5db1 00        nop     
5db2 04        inc     b
5db3 010402    ld      bc,0204h
5db6 04        inc     b
5db7 03        inc     bc
5db8 04        inc     b
5db9 00        nop     
5dba 05        dec     b
5dbb 010502    ld      bc,0205h
5dbe 05        dec     b
5dbf 03        inc     bc
5dc0 05        dec     b
5dc1 00        nop     
5dc2 0601      ld      b,01h
5dc4 0602      ld      b,02h
5dc6 0603      ld      b,03h
5dc8 0600      ld      b,00h
5dca 03        inc     bc
5dcb 010302    ld      bc,0203h
5dce 03        inc     bc
5dcf 03        inc     bc
5dd0 03        inc     bc
5dd1 00        nop     
5dd2 04        inc     b
5dd3 010402    ld      bc,0204h
5dd6 04        inc     b
5dd7 03        inc     bc
5dd8 04        inc     b
5dd9 00        nop     
5dda 05        dec     b
5ddb 010502    ld      bc,0205h
5dde 05        dec     b
5ddf 03        inc     bc
5de0 05        dec     b
5de1 00        nop     
5de2 03        inc     bc
5de3 010302    ld      bc,0203h
5de6 03        inc     bc
5de7 03        inc     bc
5de8 03        inc     bc
5de9 00        nop     
5dea 04        inc     b
5deb 010402    ld      bc,0204h
5dee 04        inc     b
5def 03        inc     bc
5df0 04        inc     b
5df1 00        nop     
5df2 03        inc     bc
5df3 010302    ld      bc,0203h
5df6 03        inc     bc
5df7 03        inc     bc
5df8 03        inc     bc
5df9 03        inc     bc
5dfa 03        inc     bc
5dfb c7        rst     00h
5dfc cbcb      set     1,e
5dfe cbcb      set     1,e
5e00 cbcb      set     1,e
5e02 cbcb      set     1,e
5e04 cbcb      set     1,e
5e06 cbcb      set     1,e
5e08 cbcb      set     1,e
5e0a cbcb      set     1,e
5e0c cbcb      set     1,e
5e0e cbcb      set     1,e
5e10 cbcb      set     1,e
5e12 cbcb      set     1,e
5e14 c8        ret     z

5e15 03        inc     bc
5e16 24        inc     h
5e17 03        inc     bc
5e18 03        inc     bc
5e19 ce20      adc     a,20h
5e1b 2020      jr      nz,5e3dh
5e1d 2020      jr      nz,5e3fh
5e1f 2020      jr      nz,5e41h
5e21 2020      jr      nz,5e43h
5e23 2020      jr      nz,5e45h
5e25 2020      jr      nz,5e47h
5e27 2020      jr      nz,5e49h
5e29 2020      jr      nz,5e4bh
5e2b 2020      jr      nz,5e4dh
5e2d 2020      jr      nz,5e4fh
5e2f 2020      jr      nz,5e51h
5e31 20cc      jr      nz,5dffh
5e33 03        inc     bc
5e34 24        inc     h
5e35 03        inc     bc
5e36 03        inc     bc
5e37 ce20      adc     a,20h
5e39 2020      jr      nz,5e5bh
5e3b 2020      jr      nz,5e5dh
5e3d 2020      jr      nz,5e5fh
5e3f 2020      jr      nz,5e61h
5e41 2020      jr      nz,5e63h
5e43 2020      jr      nz,5e65h
5e45 2020      jr      nz,5e67h
5e47 2020      jr      nz,5e69h
5e49 2020      jr      nz,5e6bh
5e4b 2020      jr      nz,5e6dh
5e4d 2020      jr      nz,5e6fh
5e4f 20cc      jr      nz,5e1dh
5e51 03        inc     bc
5e52 24        inc     h
5e53 03        inc     bc
5e54 03        inc     bc
5e55 ce20      adc     a,20h
5e57 2020      jr      nz,5e79h
5e59 2020      jr      nz,5e7bh
5e5b 2020      jr      nz,5e7dh
5e5d 2020      jr      nz,5e7fh
5e5f 2020      jr      nz,5e81h
5e61 2020      jr      nz,5e83h
5e63 2020      jr      nz,5e85h
5e65 2020      jr      nz,5e87h
5e67 2020      jr      nz,5e89h
5e69 2020      jr      nz,5e8bh
5e6b 2020      jr      nz,5e8dh
5e6d 20cc      jr      nz,5e3bh
5e6f 03        inc     bc
5e70 24        inc     h
5e71 03        inc     bc
5e72 03        inc     bc
5e73 ce20      adc     a,20h
5e75 2020      jr      nz,5e97h
5e77 2020      jr      nz,5e99h
5e79 2020      jr      nz,5e9bh
5e7b 2020      jr      nz,5e9dh
5e7d 2020      jr      nz,5e9fh
5e7f 2020      jr      nz,5ea1h
5e81 2020      jr      nz,5ea3h
5e83 2020      jr      nz,5ea5h
5e85 2020      jr      nz,5ea7h
5e87 2020      jr      nz,5ea9h
5e89 2020      jr      nz,5eabh
5e8b 20cc      jr      nz,5e59h
5e8d 03        inc     bc
5e8e 24        inc     h
5e8f 03        inc     bc
5e90 03        inc     bc
5e91 ce20      adc     a,20h
5e93 2020      jr      nz,5eb5h
5e95 2020      jr      nz,5eb7h
5e97 2020      jr      nz,5eb9h
5e99 2020      jr      nz,5ebbh
5e9b 2020      jr      nz,5ebdh
5e9d 2020      jr      nz,5ebfh
5e9f 2020      jr      nz,5ec1h
5ea1 2020      jr      nz,5ec3h
5ea3 2020      jr      nz,5ec5h
5ea5 2020      jr      nz,5ec7h
5ea7 2020      jr      nz,5ec9h
5ea9 20cc      jr      nz,5e77h
5eab 03        inc     bc
5eac 24        inc     h
5ead 03        inc     bc
5eae 03        inc     bc
5eaf ce20      adc     a,20h
5eb1 2020      jr      nz,5ed3h
5eb3 2020      jr      nz,5ed5h
5eb5 2020      jr      nz,5ed7h
5eb7 2020      jr      nz,5ed9h
5eb9 2020      jr      nz,5edbh
5ebb 2020      jr      nz,5eddh
5ebd 2020      jr      nz,5edfh
5ebf 2020      jr      nz,5ee1h
5ec1 2020      jr      nz,5ee3h
5ec3 2020      jr      nz,5ee5h
5ec5 2020      jr      nz,5ee7h
5ec7 20cc      jr      nz,5e95h
5ec9 03        inc     bc
5eca 24        inc     h
5ecb 03        inc     bc
5ecc 03        inc     bc
5ecd ce20      adc     a,20h
5ecf 2020      jr      nz,5ef1h
5ed1 2020      jr      nz,5ef3h
5ed3 2020      jr      nz,5ef5h
5ed5 2020      jr      nz,5ef7h
5ed7 2020      jr      nz,5ef9h
5ed9 2020      jr      nz,5efbh
5edb 2020      jr      nz,5efdh
5edd 2020      jr      nz,5effh
5edf 2020      jr      nz,5f01h
5ee1 2020      jr      nz,5f03h
5ee3 2020      jr      nz,5f05h
5ee5 20cc      jr      nz,5eb3h
5ee7 03        inc     bc
5ee8 24        inc     h
5ee9 03        inc     bc
5eea 03        inc     bc
5eeb ce20      adc     a,20h
5eed 2020      jr      nz,5f0fh
5eef 2020      jr      nz,5f11h
5ef1 2020      jr      nz,5f13h
5ef3 2020      jr      nz,5f15h
5ef5 2020      jr      nz,5f17h
5ef7 2020      jr      nz,5f19h
5ef9 2020      jr      nz,5f1bh
5efb 2020      jr      nz,5f1dh
5efd 2020      jr      nz,5f1fh
5eff 2020      jr      nz,5f21h
5f01 2020      jr      nz,5f23h
5f03 20cc      jr      nz,5ed1h
5f05 03        inc     bc
5f06 24        inc     h
5f07 03        inc     bc
5f08 03        inc     bc
5f09 ce20      adc     a,20h
5f0b 2020      jr      nz,5f2dh
5f0d 2020      jr      nz,5f2fh
5f0f 2020      jr      nz,5f31h
5f11 2020      jr      nz,5f33h
5f13 2020      jr      nz,5f35h
5f15 2020      jr      nz,5f37h
5f17 2020      jr      nz,5f39h
5f19 2020      jr      nz,5f3bh
5f1b 2020      jr      nz,5f3dh
5f1d 2020      jr      nz,5f3fh
5f1f 2020      jr      nz,5f41h
5f21 20cc      jr      nz,5eefh
5f23 03        inc     bc
5f24 24        inc     h
5f25 03        inc     bc
5f26 03        inc     bc
5f27 ce20      adc     a,20h
5f29 2020      jr      nz,5f4bh
5f2b 2020      jr      nz,5f4dh
5f2d 2020      jr      nz,5f4fh
5f2f 2020      jr      nz,5f51h
5f31 2020      jr      nz,5f53h
5f33 2020      jr      nz,5f55h
5f35 2020      jr      nz,5f57h
5f37 2020      jr      nz,5f59h
5f39 2020      jr      nz,5f5bh
5f3b 2020      jr      nz,5f5dh
5f3d 2020      jr      nz,5f5fh
5f3f 20cc      jr      nz,5f0dh
5f41 03        inc     bc
5f42 24        inc     h
5f43 03        inc     bc
5f44 03        inc     bc
5f45 ce20      adc     a,20h
5f47 2020      jr      nz,5f69h
5f49 2020      jr      nz,5f6bh
5f4b 2020      jr      nz,5f6dh
5f4d 2020      jr      nz,5f6fh
5f4f 2020      jr      nz,5f71h
5f51 2020      jr      nz,5f73h
5f53 2020      jr      nz,5f75h
5f55 2020      jr      nz,5f77h
5f57 2020      jr      nz,5f79h
5f59 2020      jr      nz,5f7bh
5f5b 2020      jr      nz,5f7dh
5f5d 20cc      jr      nz,5f2bh
5f5f 03        inc     bc
5f60 24        inc     h
5f61 03        inc     bc
5f62 03        inc     bc
5f63 cacdcd    jp      z,0cdcdh
5f66 cdcdcd    call    0cdcdh
5f69 cdcdcd    call    0cdcdh
5f6c cdcdcd    call    0cdcdh
5f6f cdcdcd    call    0cdcdh
5f72 cdcdcd    call    0cdcdh
5f75 cdcdcd    call    0cdcdh
5f78 cdcdcd    call    0cdcdh
5f7b cdc903    call    03c9h
5f7e 24        inc     h
5f7f 03        inc     bc
5f80 e1        pop     hl
5f81 6f        ld      l,a
5f82 e3        ex      (sp),hl
5f83 03        inc     bc
5f84 23        inc     hl
5f85 27        daa     
5f86 3b        dec     sp
5f87 03        inc     bc
5f88 21e123    ld      hl,23e1h
5f8b 3b        dec     sp
5f8c 03        inc     bc
5f8d 24        inc     h
5f8e 03        inc     bc
5f8f e270fb    jp      po,0fb70h
5f92 03        inc     bc
5f93 262a      ld      h,2ah
5f95 3c        inc     a
5f96 03        inc     bc
5f97 22e226    ld      (26e2h),hl
5f9a 3c        inc     a
5f9b 03        inc     bc
5f9c 24        inc     h
5f9d 03        inc     bc
5f9e 03        inc     bc
5f9f 03        inc     bc
5fa0 03        inc     bc
5fa1 03        inc     bc
5fa2 03        inc     bc
5fa3 03        inc     bc
5fa4 03        inc     bc
5fa5 03        inc     bc
5fa6 03        inc     bc
5fa7 03        inc     bc
5fa8 03        inc     bc
5fa9 03        inc     bc
5faa 03        inc     bc
5fab 24        inc     h
5fac 03        inc     bc
5fad 03        inc     bc
5fae 03        inc     bc
5faf 03        inc     bc
5fb0 6d        ld      l,l
5fb1 03        inc     bc
5fb2 67        ld      h,a
5fb3 03        inc     bc
5fb4 6f        ld      l,a
5fb5 03        inc     bc
5fb6 03        inc     bc
5fb7 03        inc     bc
5fb8 03        inc     bc
5fb9 03        inc     bc
5fba 24        inc     h
5fbb 03        inc     bc
5fbc 03        inc     bc
5fbd 03        inc     bc
5fbe 03        inc     bc
5fbf 6e        ld      l,(hl)
5fc0 03        inc     bc
5fc1 6a        ld      l,d
5fc2 03        inc     bc
5fc3 70        ld      (hl),b
5fc4 03        inc     bc
5fc5 03        inc     bc
5fc6 03        inc     bc
5fc7 03        inc     bc
5fc8 03        inc     bc
5fc9 24        inc     h
5fca 03        inc     bc
5fcb 03        inc     bc
5fcc 03        inc     bc
5fcd 03        inc     bc
5fce 03        inc     bc
5fcf 03        inc     bc
5fd0 03        inc     bc
5fd1 03        inc     bc
5fd2 03        inc     bc
5fd3 03        inc     bc
5fd4 03        inc     bc
5fd5 03        inc     bc
5fd6 03        inc     bc
5fd7 03        inc     bc
5fd8 24        inc     h
5fd9 03        inc     bc
5fda 03        inc     bc
5fdb 03        inc     bc
5fdc 03        inc     bc
5fdd 03        inc     bc
5fde 03        inc     bc
5fdf 03        inc     bc
5fe0 03        inc     bc
5fe1 03        inc     bc
5fe2 03        inc     bc
5fe3 03        inc     bc
5fe4 03        inc     bc
5fe5 03        inc     bc
5fe6 03        inc     bc
5fe7 24        inc     h
5fe8 03        inc     bc
5fe9 03        inc     bc
5fea 03        inc     bc
5feb 03        inc     bc
5fec 03        inc     bc
5fed 03        inc     bc
5fee 03        inc     bc
5fef 03        inc     bc
5ff0 03        inc     bc
5ff1 03        inc     bc
5ff2 03        inc     bc
5ff3 03        inc     bc
5ff4 03        inc     bc
5ff5 03        inc     bc
5ff6 24        inc     h
5ff7 03        inc     bc
5ff8 03        inc     bc
5ff9 03        inc     bc
5ffa 03        inc     bc
5ffb 03        inc     bc
5ffc 03        inc     bc
5ffd 03        inc     bc
5ffe 03        inc     bc
5fff 03        inc     bc
6000 03        inc     bc
6001 03        inc     bc
6002 03        inc     bc
6003 03        inc     bc
6004 03        inc     bc
6005 24        inc     h
6006 2020      jr      nz,6028h
6008 2020      jr      nz,602ah
600a 2020      jr      nz,602ch
600c 2020      jr      nz,602eh
600e 2020      jr      nz,6030h
6010 2020      jr      nz,6032h
6012 2020      jr      nz,6034h
6014 24        inc     h
6015 2020      jr      nz,6037h
6017 4a        ld      c,d
6018 41        ld      b,c
6019 43        ld      b,e
601a 4b        ld      c,e
601b 53        ld      d,e
601c 204f      jr      nz,606dh
601e 52        ld      d,d
601f 2042      jr      nz,6063h
6021 2e20      ld      l,20h
6023 24        inc     h
6024 2020      jr      nz,6046h
6026 2020      jr      nz,6048h
6028 2020      jr      nz,604ah
602a 2020      jr      nz,604ch
602c 2020      jr      nz,604eh
602e 2020      jr      nz,6050h
6030 2020      jr      nz,6052h
6032 24        inc     h
6033 2020      jr      nz,6055h
6035 2020      jr      nz,6057h
6037 2020      jr      nz,6059h
6039 2020      jr      nz,605bh
603b 2020      jr      nz,605dh
603d 2020      jr      nz,605fh
603f 2020      jr      nz,6061h
6041 24        inc     h
6042 2020      jr      nz,6064h
6044 4a        ld      c,d
6045 41        ld      b,c
6046 43        ld      b,e
6047 4b        ld      c,e
6048 53        ld      d,e
6049 204f      jr      nz,609ah
604b 52        ld      d,d
604c 2042      jr      nz,6090h
604e 2e20      ld      l,20h
6050 24        inc     h
6051 2020      jr      nz,6073h
6053 2020      jr      nz,6075h
6055 2020      jr      nz,6077h
6057 2020      jr      nz,6079h
6059 2020      jr      nz,607bh
605b 2020      jr      nz,607dh
605d 2020      jr      nz,607fh
605f 24        inc     h
6060 2020      jr      nz,6082h
6062 2020      jr      nz,6084h
6064 2020      jr      nz,6086h
6066 2020      jr      nz,6088h
6068 2020      jr      nz,608ah
606a 2020      jr      nz,608ch
606c 2020      jr      nz,608eh
606e 24        inc     h
606f 2020      jr      nz,6091h
6071 4a        ld      c,d
6072 41        ld      b,c
6073 43        ld      b,e
6074 4b        ld      c,e
6075 53        ld      d,e
6076 204f      jr      nz,60c7h
6078 52        ld      d,d
6079 2042      jr      nz,60bdh
607b 2e20      ld      l,20h
607d 24        inc     h
607e 2020      jr      nz,60a0h
6080 2020      jr      nz,60a2h
6082 2020      jr      nz,60a4h
6084 2020      jr      nz,60a6h
6086 2020      jr      nz,60a8h
6088 2020      jr      nz,60aah
608a 2020      jr      nz,60ach
608c 24        inc     h
608d 03        inc     bc
608e 6d        ld      l,l
608f 03        inc     bc
6090 67        ld      h,a
6091 03        inc     bc
6092 6f        ld      l,a
6093 03        inc     bc
6094 03        inc     bc
6095 6d        ld      l,l
6096 03        inc     bc
6097 67        ld      h,a
6098 03        inc     bc
6099 6f        ld      l,a
609a 03        inc     bc
609b 24        inc     h
609c 03        inc     bc
609d 6e        ld      l,(hl)
609e 03        inc     bc
609f 6a        ld      l,d
60a0 03        inc     bc
60a1 70        ld      (hl),b
60a2 03        inc     bc
60a3 03        inc     bc
60a4 6e        ld      l,(hl)
60a5 03        inc     bc
60a6 6a        ld      l,d
60a7 03        inc     bc
60a8 70        ld      (hl),b
60a9 03        inc     bc
60aa 24        inc     h
60ab 03        inc     bc
60ac 03        inc     bc
60ad 03        inc     bc
60ae 03        inc     bc
60af 03        inc     bc
60b0 03        inc     bc
60b1 03        inc     bc
60b2 03        inc     bc
60b3 03        inc     bc
60b4 03        inc     bc
60b5 03        inc     bc
60b6 03        inc     bc
60b7 03        inc     bc
60b8 03        inc     bc
60b9 24        inc     h
60ba 03        inc     bc
60bb 03        inc     bc
60bc 03        inc     bc
60bd 03        inc     bc
60be 03        inc     bc
60bf 03        inc     bc
60c0 03        inc     bc
60c1 03        inc     bc
60c2 03        inc     bc
60c3 03        inc     bc
60c4 03        inc     bc
60c5 03        inc     bc
60c6 03        inc     bc
60c7 03        inc     bc
60c8 24        inc     h
60c9 03        inc     bc
60ca 03        inc     bc
60cb 03        inc     bc
60cc 03        inc     bc
60cd 03        inc     bc
60ce 03        inc     bc
60cf 03        inc     bc
60d0 03        inc     bc
60d1 03        inc     bc
60d2 03        inc     bc
60d3 03        inc     bc
60d4 03        inc     bc
60d5 03        inc     bc
60d6 03        inc     bc
60d7 24        inc     h
60d8 03        inc     bc
60d9 03        inc     bc
60da 03        inc     bc
60db 03        inc     bc
60dc 03        inc     bc
60dd 03        inc     bc
60de 03        inc     bc
60df 03        inc     bc
60e0 03        inc     bc
60e1 03        inc     bc
60e2 03        inc     bc
60e3 03        inc     bc
60e4 03        inc     bc
60e5 03        inc     bc
60e6 24        inc     h
60e7 03        inc     bc
60e8 03        inc     bc
60e9 03        inc     bc
60ea 03        inc     bc
60eb 03        inc     bc
60ec 03        inc     bc
60ed 03        inc     bc
60ee 03        inc     bc
60ef 03        inc     bc
60f0 03        inc     bc
60f1 03        inc     bc
60f2 03        inc     bc
60f3 03        inc     bc
60f4 03        inc     bc
60f5 24        inc     h
60f6 03        inc     bc
60f7 6d        ld      l,l
60f8 03        inc     bc
60f9 67        ld      h,a
60fa 03        inc     bc
60fb 6f        ld      l,a
60fc 03        inc     bc
60fd 03        inc     bc
60fe 6d        ld      l,l
60ff 03        inc     bc
6100 67        ld      h,a
6101 03        inc     bc
6102 6f        ld      l,a
6103 03        inc     bc
6104 24        inc     h
6105 03        inc     bc
6106 6e        ld      l,(hl)
6107 03        inc     bc
6108 6a        ld      l,d
6109 03        inc     bc
610a 70        ld      (hl),b
610b 03        inc     bc
610c 03        inc     bc
610d 6e        ld      l,(hl)
610e 03        inc     bc
610f 6a        ld      l,d
6110 03        inc     bc
6111 70        ld      (hl),b
6112 03        inc     bc
6113 24        inc     h
6114 41        ld      b,c
6115 204e      jr      nz,6165h
6117 2059      jr      nz,6172h
6119 2020      jr      nz,613bh
611b 2052      jr      nz,616fh
611d 2045      jr      nz,6164h
611f 2044      jr      nz,6165h
6121 2020      jr      nz,6143h
6123 2043      jr      nz,6168h
6125 2041      jr      nz,6168h
6127 2052      jr      nz,617bh
6129 2044      jr      nz,616fh
612b 24        inc     h
612c 4a        ld      c,d
612d 2041      jr      nz,6170h
612f 2043      jr      nz,6174h
6131 204b      jr      nz,617eh
6133 2053      jr      nz,6188h
6135 2020      jr      nz,6157h
6137 204f      jr      nz,6188h
6139 2052      jr      nz,618dh
613b 2020      jr      nz,615dh
613d 2042      jr      nz,6181h
613f 202e      jr      nz,616fh
6141 2020      jr      nz,6163h
6143 24        inc     h
6144 322020    ld      (2020h),a
6147 2050      jr      nz,6199h
6149 2041      jr      nz,618ch
614b 2049      jr      nz,6196h
614d 2052      jr      nz,61a1h
614f 2020      jr      nz,6171h
6151 2020      jr      nz,6173h
6153 2020      jr      nz,6175h
6155 2020      jr      nz,6177h
6157 2020      jr      nz,6179h
6159 2020      jr      nz,617bh
615b 24        inc     h
615c 33        inc     sp
615d 2020      jr      nz,617fh
615f 204f      jr      nz,61b0h
6161 2046      jr      nz,61a9h
6163 2020      jr      nz,6185h
6165 2041      jr      nz,61a8h
6167 2020      jr      nz,6189h
6169 204b      jr      nz,61b6h
616b 2049      jr      nz,61b6h
616d 204e      jr      nz,61bdh
616f 2044      jr      nz,61b5h
6171 2020      jr      nz,6193h
6173 24        inc     h
6174 53        ld      d,e
6175 2054      jr      nz,61cbh
6177 2052      jr      nz,61cbh
6179 2041      jr      nz,61bch
617b 2049      jr      nz,61c6h
617d 2047      jr      nz,61c6h
617f 2048      jr      nz,61c9h
6181 2054      jr      nz,61d7h
6183 2020      jr      nz,61a5h
6185 2020      jr      nz,61a7h
6187 2020      jr      nz,61a9h
6189 2020      jr      nz,61abh
618b 24        inc     h
618c 46        ld      b,(hl)
618d 204c      jr      nz,61dbh
618f 2055      jr      nz,61e6h
6191 2053      jr      nz,61e6h
6193 2048      jr      nz,61ddh
6195 2020      jr      nz,61b7h
6197 2020      jr      nz,61b9h
6199 2020      jr      nz,61bbh
619b 2020      jr      nz,61bdh
619d 2020      jr      nz,61bfh
619f 2020      jr      nz,61c1h
61a1 2020      jr      nz,61c3h
61a3 24        inc     h
61a4 46        ld      b,(hl)
61a5 2055      jr      nz,61fch
61a7 204c      jr      nz,61f5h
61a9 204c      jr      nz,61f7h
61ab 2020      jr      nz,61cdh
61ad 2048      jr      nz,61f7h
61af 204f      jr      nz,6200h
61b1 2055      jr      nz,6208h
61b3 2053      jr      nz,6208h
61b5 2045      jr      nz,61fch
61b7 2020      jr      nz,61d9h
61b9 2020      jr      nz,61dbh
61bb 24        inc     h
61bc 34        inc     (hl)
61bd 2020      jr      nz,61dfh
61bf 204f      jr      nz,6210h
61c1 2046      jr      nz,6209h
61c3 2020      jr      nz,61e5h
61c5 2041      jr      nz,6208h
61c7 2020      jr      nz,61e9h
61c9 204b      jr      nz,6216h
61cb 2049      jr      nz,6216h
61cd 204e      jr      nz,621dh
61cf 2044      jr      nz,6215h
61d1 2020      jr      nz,61f3h
61d3 24        inc     h
61d4 53        ld      d,e
61d5 2054      jr      nz,622bh
61d7 2052      jr      nz,622bh
61d9 2020      jr      nz,61fbh
61db 2046      jr      nz,6223h
61dd 204c      jr      nz,622bh
61df 2055      jr      nz,6236h
61e1 2053      jr      nz,6236h
61e3 2048      jr      nz,622dh
61e5 2020      jr      nz,6207h
61e7 2020      jr      nz,6209h
61e9 2020      jr      nz,620bh
61eb 24        inc     h
61ec 52        ld      d,d
61ed 204f      jr      nz,623eh
61ef 2059      jr      nz,624ah
61f1 2041      jr      nz,6234h
61f3 204c      jr      nz,6241h
61f5 2020      jr      nz,6217h
61f7 2046      jr      nz,623fh
61f9 204c      jr      nz,6247h
61fb 2055      jr      nz,6252h
61fd 2053      jr      nz,6252h
61ff 2048      jr      nz,6249h
6201 2020      jr      nz,6223h
6203 24        inc     h
6204 35        dec     (hl)
6205 2020      jr      nz,6227h
6207 204f      jr      nz,6258h
6209 2046      jr      nz,6251h
620b 2020      jr      nz,622dh
620d 2041      jr      nz,6250h
620f 2020      jr      nz,6231h
6211 204b      jr      nz,625eh
6213 2049      jr      nz,625eh
6215 204e      jr      nz,6265h
6217 2044      jr      nz,625dh
6219 2020      jr      nz,623bh
621b 24        inc     h
621c c7        rst     00h
621d cbcb      set     1,e
621f cbcb      set     1,e
6221 cbcb      set     1,e
6223 cbcb      set     1,e
6225 cbcb      set     1,e
6227 cbcb      set     1,e
6229 cbcb      set     1,e
622b cbcb      set     1,e
622d cbcb      set     1,e
622f cbcb      set     1,e
6231 cbcb      set     1,e
6233 cbcb      set     1,e
6235 cbcb      set     1,e
6237 cbcb      set     1,e
6239 cbcb      set     1,e
623b cbcb      set     1,e
623d c8        ret     z

623e 24        inc     h
623f ce20      adc     a,20h
6241 2020      jr      nz,6263h
6243 2020      jr      nz,6265h
6245 2020      jr      nz,6267h
6247 2020      jr      nz,6269h
6249 2020      jr      nz,626bh
624b 2020      jr      nz,626dh
624d 2020      jr      nz,626fh
624f 2020      jr      nz,6271h
6251 2020      jr      nz,6273h
6253 2020      jr      nz,6275h
6255 2020      jr      nz,6277h
6257 2020      jr      nz,6279h
6259 2020      jr      nz,627bh
625b 2020      jr      nz,627dh
625d 2020      jr      nz,627fh
625f 20cc      jr      nz,622dh
6261 24        inc     h
6262 cacdcd    jp      z,0cdcdh
6265 cdcdcd    call    0cdcdh
6268 cdcdcd    call    0cdcdh
626b cdcdcd    call    0cdcdh
626e cdcdcd    call    0cdcdh
6271 cdcdcd    call    0cdcdh
6274 cdcdcd    call    0cdcdh
6277 cdcdcd    call    0cdcdh
627a cdcdcd    call    0cdcdh
627d cdcdcd    call    0cdcdh
6280 cdcdcd    call    0cdcdh
6283 c9        ret     

6284 24        inc     h
6285 c7        rst     00h
6286 cbcb      set     1,e
6288 cbcb      set     1,e
628a cbcb      set     1,e
628c cbcb      set     1,e
628e cbcb      set     1,e
6290 cbcb      set     1,e
6292 cbcb      set     1,e
6294 cbcb      set     1,e
6296 cbcb      set     1,e
6298 cbcb      set     1,e
629a cbcb      set     1,e
629c cbcb      set     1,e
629e cbcb      set     1,e
62a0 cbcb      set     1,e
62a2 cbcb      set     1,e
62a4 cbcb      set     1,e
62a6 c8        ret     z

62a7 24        inc     h
62a8 ce20      adc     a,20h
62aa 41        ld      b,c
62ab 204d      jr      nz,62fah
62ad 2045      jr      nz,62f4h
62af 2052      jr      nz,6303h
62b1 2049      jr      nz,62fch
62b3 2043      jr      nz,62f8h
62b5 2041      jr      nz,62f8h
62b7 204e      jr      nz,6307h
62b9 2020      jr      nz,62dbh
62bb 50        ld      d,b
62bc 204f      jr      nz,630dh
62be 204b      jr      nz,630bh
62c0 2045      jr      nz,6307h
62c2 2052      jr      nz,6316h
62c4 2020      jr      nz,62e6h
62c6 49        ld      c,c
62c7 49        ld      c,c
62c8 20cc      jr      nz,6296h
62ca 24        inc     h
62cb cacdcd    jp      z,0cdcdh
62ce cdcdcd    call    0cdcdh
62d1 cdcdcd    call    0cdcdh
62d4 cdcdcd    call    0cdcdh
62d7 cdcdcd    call    0cdcdh
62da cdcdcd    call    0cdcdh
62dd cdcdcd    call    0cdcdh
62e0 cdcdcd    call    0cdcdh
62e3 cdcdcd    call    0cdcdh
62e6 cdcdcd    call    0cdcdh
62e9 cdcdcd    call    0cdcdh
62ec c9        ret     

62ed 24        inc     h
62ee 7c        ld      a,h
62ef d4d5d5    call    nc,0d5d5h
62f2 d5        push    de
62f3 d5        push    de
62f4 d5        push    de
62f5 d5        push    de
62f6 d5        push    de
62f7 d5        push    de
62f8 d5        push    de
62f9 d5        push    de
62fa d5        push    de
62fb d5        push    de
62fc d5        push    de
62fd d5        push    de
62fe d5        push    de
62ff d5        push    de
6300 d5        push    de
6301 d5        push    de
6302 d5        push    de
6303 d5        push    de
6304 d5        push    de
6305 d5        push    de
6306 d5        push    de
6307 d5        push    de
6308 d5        push    de
6309 d5        push    de
630a d5        push    de
630b d5        push    de
630c d5        push    de
630d d5        push    de
630e d7        rst     10h
630f 7d        ld      a,l
6310 24        inc     h
6311 f9        ld      sp,hl
6312 24        inc     h
6313 f9        ld      sp,hl
6314 24        inc     h
6315 f9        ld      sp,hl
6316 24        inc     h
6317 f9        ld      sp,hl
6318 24        inc     h
6319 f9        ld      sp,hl
631a 24        inc     h
631b f9        ld      sp,hl
631c 24        inc     h
631d f9        ld      sp,hl
631e 24        inc     h
631f f9        ld      sp,hl
6320 24        inc     h
6321 f9        ld      sp,hl
6322 24        inc     h
6323 7f        ld      a,a
6324 d9        exx     
6325 dadada    jp      c,0dadah
6328 dadada    jp      c,0dadah
632b dadada    jp      c,0dadah
632e dadada    jp      c,0dadah
6331 dadada    jp      c,0dadah
6334 dadada    jp      c,0dadah
6337 dadada    jp      c,0dadah
633a dadada    jp      c,0dadah
633d dadada    jp      c,0dadah
6340 dadada    jp      c,0dadah
6343 f8        ret     m

6344 7e        ld      a,(hl)
6345 24        inc     h
6346 a0        and     b
6347 21a121    ld      hl,21a1h
634a a1        and     c
634b 21a121    ld      hl,21a1h
634e a1        and     c
634f 21a121    ld      hl,21a1h
6352 a1        and     c
6353 21a221    ld      hl,21a2h
6356 a3        and     e
6357 210320    ld      hl,2003h
635a 03        inc     bc
635b 2003      jr      nz,6360h
635d 2003      jr      nz,6362h
635f 2003      jr      nz,6364h
6361 2003      jr      nz,6366h
6363 20a4      jr      nz,6309h
6365 21a321    ld      hl,21a3h
6368 03        inc     bc
6369 2003      jr      nz,636eh
636b 2003      jr      nz,6370h
636d 2003      jr      nz,6372h
636f 2003      jr      nz,6374h
6371 2003      jr      nz,6376h
6373 20a4      jr      nz,6319h
6375 21a521    ld      hl,21a5h
6378 a6        and     (hl)
6379 21a621    ld      hl,21a6h
637c a6        and     (hl)
637d 21a621    ld      hl,21a6h
6380 a6        and     (hl)
6381 21a621    ld      hl,21a6h
6384 a7        and     a
6385 21c7c8    ld      hl,0c8c7h
6388 c8        ret     z

6389 c8        ret     z

638a c8        ret     z

638b c8        ret     z

638c c8        ret     z

638d ca2400    jp      z,0024h
6390 00        nop     
6391 00        nop     
6392 00        nop     
6393 00        nop     
6394 00        nop     
6395 00        nop     
6396 00        nop     
6397 24        inc     h
6398 53        ld      d,e
6399 45        ld      b,l
639a 4c        ld      c,h
639b 45        ld      b,l
639c 43        ld      b,e
639d 54        ld      d,h
639e 2048      jr      nz,63e8h
63a0 4f        ld      c,a
63a1 4c        ld      c,h
63a2 44        ld      b,h
63a3 2043      jr      nz,63e8h
63a5 41        ld      b,c
63a6 52        ld      d,d
63a7 44        ld      b,h
63a8 53        ld      d,e
63a9 24        inc     h
63aa 49        ld      c,c
63ab 4e        ld      c,(hl)
63ac 53        ld      d,e
63ad 45        ld      b,l
63ae 52        ld      d,d
63af 54        ld      d,h
63b0 2020      jr      nz,63d2h
63b2 43        ld      b,e
63b3 4f        ld      c,a
63b4 49        ld      c,c
63b5 4e        ld      c,(hl)
63b6 24        inc     h
63b7 2050      jr      nz,6409h
63b9 41        ld      b,c
63ba 49        ld      c,c
63bb 44        ld      b,h
63bc 2024      jr      nz,63e2h
63be 2048      jr      nz,6408h
63c0 45        ld      b,l
63c1 4c        ld      c,h
63c2 44        ld      b,h
63c3 2024      jr      nz,63e9h
63c5 2020      jr      nz,63e7h
63c7 2020      jr      nz,63e9h
63c9 2020      jr      nz,63ebh
63cb 24        inc     h
63cc 2057      jr      nz,6425h
63ce 49        ld      c,c
63cf 4e        ld      c,(hl)
63d0 53        ld      d,e
63d1 2024      jr      nz,63f7h
63d3 2d        dec     l
63d4 2d        dec     l
63d5 2d        dec     l
63d6 2020      jr      nz,63f8h
63d8 53        ld      d,e
63d9 2045      jr      nz,6420h
63db 2052      jr      nz,642fh
63dd 2056      jr      nz,6435h
63df 2049      jr      nz,642ah
63e1 2043      jr      nz,6426h
63e3 2045      jr      nz,642ah
63e5 2020      jr      nz,6407h
63e7 2020      jr      nz,6409h
63e9 4d        ld      c,l
63ea 204f      jr      nz,643bh
63ec 2044      jr      nz,6432h
63ee 2045      jr      nz,6435h
63f0 2020      jr      nz,6412h
63f2 2d        dec     l
63f3 2d        dec     l
63f4 2d        dec     l
63f5 24        inc     h
63f6 48        ld      c,b
63f7 4f        ld      c,a
63f8 50        ld      d,b
63f9 50        ld      d,b
63fa 45        ld      b,l
63fb 52        ld      d,d
63fc 2045      jr      nz,6443h
63fe 4d        ld      c,l
63ff 50        ld      d,b
6400 54        ld      d,h
6401 59        ld      e,c
6402 24        inc     h
6403 48        ld      c,b
6404 4f        ld      c,a
6405 50        ld      d,b
6406 50        ld      d,b
6407 45        ld      b,l
6408 52        ld      d,d
6409 204c      jr      nz,6457h
640b 4f        ld      c,a
640c 43        ld      b,e
640d 4b        ld      c,e
640e 53        ld      d,e
640f 24        inc     h
6410 c9        ret     

6411 49        ld      c,c
6412 41        ld      b,c
6413 4d        ld      c,l
6414 50        ld      d,b
6415 322056    ld      (5620h),a
6418 323820    ld      (2038h),a
641b 2028      jr      nz,6445h
641d 43        ld      b,e
641e 29        add     hl,hl
641f 2031      jr      nz,6452h
6421 39        add     hl,sp
6422 39        add     hl,sp
6423 34        inc     (hl)
6424 204e      jr      nz,6474h
6426 4f        ld      c,a
6427 56        ld      d,(hl)
6428 4f        ld      c,a
6429 4d        ld      c,l
642a 41        ld      b,c
642b 54        ld      d,h
642c 49        ld      c,c
642d 43        ld      b,e
642e 24        inc     h
642f 4d        ld      c,l
6430 61        ld      h,c
6431 72        ld      (hl),d
6432 63        ld      h,e
6433 68        ld      l,b
6434 2033      jr      nz,6469h
6436 302e      jr      nc,6466h
6438 313939    ld      sp,3939h
643b 34        inc     (hl)
643c 2042      jr      nz,6480h
643e 59        ld      e,c
643f 204e      jr      nz,648fh
6441 4f        ld      c,a
6442 56        ld      d,(hl)
6443 4f        ld      c,a
6444 2041      jr      nz,6487h
6446 47        ld      b,a
6447 2041      jr      nz,648ah
6449 6e        ld      l,(hl)
644a 74        ld      (hl),h
644b 6f        ld      l,a
644c 6e        ld      l,(hl)
644d 2046      jr      nz,6495h
644f 75        ld      (hl),l
6450 63        ld      h,e
6451 68        ld      l,b
6452 73        ld      (hl),e
6453 010000    ld      bc,0000h


8000 2f        cpl     
8001 93        sub     e
8002 0c        inc     c
8003 94        sub     h
8004 1f        rra     
8005 95        sub     l
8006 c392ac    jp      0ac92h
8009 93        sub     e
800a 6e        ld      l,(hl)
800b 94        sub     h
800c c392ac    jp      0ac92h
800f 93        sub     e
8010 6e        ld      l,(hl)
8011 94        sub     h
8012 c392ac    jp      0ac92h
8015 93        sub     e
8016 6e        ld      l,(hl)
8017 94        sub     h
8018 4e        ld      c,(hl)
8019 00        nop     
801a 07        rlca    
801b 00        nop     
801c 00        nop     
801d e8        ret     pe

801e 03        inc     bc
801f 02        ld      (bc),a
8020 02        ld      (bc),a
8021 03        inc     bc
8022 02        ld      (bc),a
8023 51        ld      d,c
8024 02        ld      (bc),a
8025 02        ld      (bc),a
8026 c9        ret     

8027 010251    ld      bc,5102h
802a 02        ld      (bc),a
802b 02        ld      (bc),a
802c c9        ret     

802d 010260    ld      bc,6002h
8030 01020f    ld      bc,0f02h
8033 010260    ld      bc,6002h
8036 01020f    ld      bc,0f02h
8039 0102d0    ld      bc,0d002h
803c 00        nop     
803d 02        ld      (bc),a
803e a0        and     b
803f 00        nop     
8040 02        ld      (bc),a
8041 d0        ret     nc

8042 00        nop     
8043 02        ld      (bc),a
8044 a0        and     b
8045 00        nop     
8046 02        ld      (bc),a
8047 7b        ld      a,e
8048 00        nop     
8049 02        ld      (bc),a
804a 5f        ld      e,a
804b 00        nop     
804c 02        ld      (bc),a
804d 7b        ld      a,e
804e 00        nop     
804f 02        ld      (bc),a
8050 5f        ld      e,a
8051 00        nop     
8052 02        ld      (bc),a
8053 49        ld      c,c
8054 00        nop     
8055 02        ld      (bc),a
8056 ff        rst     38h
8057 ff        rst     38h
8058 0a        ld      a,(bc)
8059 00        nop     
805a 00        nop     
805b 9c        sbc     a,h
805c 00        nop     
805d 03        inc     bc
805e c30003    jp      0300h
8061 00        nop     
8062 00        nop     
8063 a7        and     a
8064 02        ld      (bc),a
8065 06c5      ld      b,0c5h
8067 010653    ld      bc,5306h
806a 0106c5    ld      bc,0c506h
806d 010653    ld      bc,5306h
8070 01061d    ld      bc,1d06h
8073 010653    ld      bc,5306h
8076 0106c5    ld      bc,0c506h
8079 0106a7    ld      bc,0a706h
807c 02        ld      (bc),a
807d 06c5      ld      b,0c5h
807f 010653    ld      bc,5306h
8082 0106c5    ld      bc,0c506h
8085 010653    ld      bc,5306h
8088 01061d    ld      bc,1d06h
808b 010653    ld      bc,5306h
808e 0106c5    ld      bc,0c506h
8091 0106a7    ld      bc,0a706h
8094 02        ld      (bc),a
8095 06c5      ld      b,0c5h
8097 010653    ld      bc,5306h
809a 0106c5    ld      bc,0c506h
809d 010653    ld      bc,5306h
80a0 01061d    ld      bc,1d06h
80a3 010653    ld      bc,5306h
80a6 0106c5    ld      bc,0c506h
80a9 0106a7    ld      bc,0a706h
80ac 02        ld      (bc),a
80ad 06c5      ld      b,0c5h
80af 010653    ld      bc,5306h
80b2 0106c5    ld      bc,0c506h
80b5 010653    ld      bc,5306h
80b8 01061d    ld      bc,1d06h
80bb 010653    ld      bc,5306h
80be 0106c5    ld      bc,0c506h
80c1 010657    ld      bc,5706h
80c4 03        inc     bc
80c5 063b      ld      b,3bh
80c7 02        ld      (bc),a
80c8 06ac      ld      b,0ach
80ca 01063b    ld      bc,3b06h
80cd 02        ld      (bc),a
80ce 06ac      ld      b,0ach
80d0 010653    ld      bc,5306h
80d3 0106ac    ld      bc,0ac06h
80d6 01063b    ld      bc,3b06h
80d9 02        ld      (bc),a
80da 0657      ld      b,57h
80dc 03        inc     bc
80dd 063b      ld      b,3bh
80df 02        ld      (bc),a
80e0 06ac      ld      b,0ach
80e2 01063b    ld      bc,3b06h
80e5 02        ld      (bc),a
80e6 06ac      ld      b,0ach
80e8 010653    ld      bc,5306h
80eb 0106ac    ld      bc,0ac06h
80ee 01063b    ld      bc,3b06h
80f1 02        ld      (bc),a
80f2 0657      ld      b,57h
80f4 03        inc     bc
80f5 063b      ld      b,3bh
80f7 02        ld      (bc),a
80f8 06ac      ld      b,0ach
80fa 01063b    ld      bc,3b06h
80fd 02        ld      (bc),a
80fe 06ac      ld      b,0ach
8100 010653    ld      bc,5306h
8103 0106ac    ld      bc,0ac06h
8106 01063b    ld      bc,3b06h
8109 02        ld      (bc),a
810a 0657      ld      b,57h
810c 03        inc     bc
810d 063b      ld      b,3bh
810f 02        ld      (bc),a
8110 06ac      ld      b,0ach
8112 01063b    ld      bc,3b06h
8115 02        ld      (bc),a
8116 06ac      ld      b,0ach
8118 010653    ld      bc,5306h
811b 0106ac    ld      bc,0ac06h
811e 01063b    ld      bc,3b06h
8121 02        ld      (bc),a
8122 06a7      ld      b,0a7h
8124 02        ld      (bc),a
8125 06c5      ld      b,0c5h
8127 010653    ld      bc,5306h
812a 0106c5    ld      bc,0c506h
812d 010653    ld      bc,5306h
8130 01061d    ld      bc,1d06h
8133 010653    ld      bc,5306h
8136 0106c5    ld      bc,0c506h
8139 0106a7    ld      bc,0a706h
813c 02        ld      (bc),a
813d 06c5      ld      b,0c5h
813f 010653    ld      bc,5306h
8142 0106c5    ld      bc,0c506h
8145 010653    ld      bc,5306h
8148 01061d    ld      bc,1d06h
814b 010653    ld      bc,5306h
814e 0106c5    ld      bc,0c506h
8151 0106a7    ld      bc,0a706h
8154 02        ld      (bc),a
8155 06c5      ld      b,0c5h
8157 010653    ld      bc,5306h
815a 0106c5    ld      bc,0c506h
815d 010653    ld      bc,5306h
8160 01061d    ld      bc,1d06h
8163 010653    ld      bc,5306h
8166 0106c5    ld      bc,0c506h
8169 0106a7    ld      bc,0a706h
816c 02        ld      (bc),a
816d 06c5      ld      b,0c5h
816f 010653    ld      bc,5306h
8172 0106c5    ld      bc,0c506h
8175 010653    ld      bc,5306h
8178 01061d    ld      bc,1d06h
817b 010653    ld      bc,5306h
817e 0106c5    ld      bc,0c506h
8181 0106fa    ld      bc,0fa06h
8184 02        ld      (bc),a
8185 06fc      ld      b,0fch
8187 01067d    ld      bc,7d06h
818a 0106fc    ld      bc,0fc06h
818d 01067d    ld      bc,7d06h
8190 01062e    ld      bc,2e06h
8193 01067d    ld      bc,7d06h
8196 0106fc    ld      bc,0fc06h
8199 0106fa    ld      bc,0fa06h
819c 02        ld      (bc),a
819d 06fc      ld      b,0fch
819f 01067d    ld      bc,7d06h
81a2 0106fc    ld      bc,0fc06h
81a5 01067d    ld      bc,7d06h
81a8 01062e    ld      bc,2e06h
81ab 01067d    ld      bc,7d06h
81ae 0106fc    ld      bc,0fc06h
81b1 0106fa    ld      bc,0fa06h
81b4 02        ld      (bc),a
81b5 06fc      ld      b,0fch
81b7 01067d    ld      bc,7d06h
81ba 0106fc    ld      bc,0fc06h
81bd 01067d    ld      bc,7d06h
81c0 01062e    ld      bc,2e06h
81c3 01067d    ld      bc,7d06h
81c6 0106fc    ld      bc,0fc06h
81c9 0106fa    ld      bc,0fa06h
81cc 02        ld      (bc),a
81cd 06fc      ld      b,0fch
81cf 01067d    ld      bc,7d06h
81d2 0106fc    ld      bc,0fc06h
81d5 01067d    ld      bc,7d06h
81d8 01062e    ld      bc,2e06h
81db 01067d    ld      bc,7d06h
81de 0106fc    ld      bc,0fc06h
81e1 010600    ld      bc,0006h
81e4 00        nop     
81e5 a7        and     a
81e6 02        ld      (bc),a
81e7 0c        inc     c
81e8 a7        and     a
81e9 02        ld      (bc),a
81ea 0c        inc     c
81eb 5d        ld      e,l
81ec 02        ld      (bc),a
81ed 0c        inc     c
81ee 5d        ld      e,l
81ef 02        ld      (bc),a
81f0 0c        inc     c
81f1 3b        dec     sp
81f2 02        ld      (bc),a
81f3 0c        inc     c
81f4 3b        dec     sp
81f5 02        ld      (bc),a
81f6 0c        inc     c
81f7 fc010c    call    m,0c01h
81fa c5        push    bc
81fb 010ca7    ld      bc,0a70ch
81fe 02        ld      (bc),a
81ff 0c        inc     c
8200 a7        and     a
8201 02        ld      (bc),a
8202 0c        inc     c
8203 5d        ld      e,l
8204 02        ld      (bc),a
8205 0c        inc     c
8206 5d        ld      e,l
8207 02        ld      (bc),a
8208 0c        inc     c
8209 3b        dec     sp
820a 02        ld      (bc),a
820b 0c        inc     c
820c 3b        dec     sp
820d 02        ld      (bc),a
820e 0c        inc     c
820f fc010c    call    m,0c01h
8212 c5        push    bc
8213 010c57    ld      bc,570ch
8216 03        inc     bc
8217 0c        inc     c
8218 57        ld      d,a
8219 03        inc     bc
821a 0c        inc     c
821b fa020c    jp      m,0c02h
821e fa020c    jp      m,0c02h
8221 a6        and     (hl)
8222 02        ld      (bc),a
8223 0c        inc     c
8224 a6        and     (hl)
8225 02        ld      (bc),a
8226 0c        inc     c
8227 5c        ld      e,h
8228 02        ld      (bc),a
8229 0c        inc     c
822a 3b        dec     sp
822b 02        ld      (bc),a
822c 0c        inc     c
822d 57        ld      d,a
822e 03        inc     bc
822f 0c        inc     c
8230 57        ld      d,a
8231 03        inc     bc
8232 0c        inc     c
8233 fa020c    jp      m,0c02h
8236 fa020c    jp      m,0c02h
8239 a6        and     (hl)
823a 02        ld      (bc),a
823b 0c        inc     c
823c a6        and     (hl)
823d 02        ld      (bc),a
823e 0c        inc     c
823f 5c        ld      e,h
8240 02        ld      (bc),a
8241 0c        inc     c
8242 3b        dec     sp
8243 02        ld      (bc),a
8244 0c        inc     c
8245 a7        and     a
8246 02        ld      (bc),a
8247 0c        inc     c
8248 a7        and     a
8249 02        ld      (bc),a
824a 0c        inc     c
824b 5d        ld      e,l
824c 02        ld      (bc),a
824d 0c        inc     c
824e 5d        ld      e,l
824f 02        ld      (bc),a
8250 0c        inc     c
8251 3b        dec     sp
8252 02        ld      (bc),a
8253 0c        inc     c
8254 3b        dec     sp
8255 02        ld      (bc),a
8256 0c        inc     c
8257 fc010c    call    m,0c01h
825a c5        push    bc
825b 010ca7    ld      bc,0a70ch
825e 02        ld      (bc),a
825f 0c        inc     c
8260 a7        and     a
8261 02        ld      (bc),a
8262 0c        inc     c
8263 5d        ld      e,l
8264 02        ld      (bc),a
8265 0c        inc     c
8266 5d        ld      e,l
8267 02        ld      (bc),a
8268 0c        inc     c
8269 3b        dec     sp
826a 02        ld      (bc),a
826b 0c        inc     c
826c 3b        dec     sp
826d 02        ld      (bc),a
826e 0c        inc     c
826f fc010c    call    m,0c01h
8272 c5        push    bc
8273 010c00    ld      bc,000ch
8276 00        nop     
8277 1d        dec     e
8278 010cff    ld      bc,0ff0ch
827b ff        rst     38h
827c 0c        inc     c
827d 2e01      ld      l,01h
827f 0c        inc     c
8280 ff        rst     38h
8281 ff        rst     38h
8282 0c        inc     c
8283 53        ld      d,e
8284 010cff    ld      bc,0ff0ch
8287 ff        rst     38h
8288 0c        inc     c
8289 2e01      ld      l,01h
828b 0c        inc     c
828c 1d        dec     e
828d 010cff    ld      bc,0ff0ch
8290 ff        rst     38h
8291 3c        inc     a
8292 1d        dec     e
8293 0109ff    ld      bc,0ff09h
8296 0f        rrca    
8297 03        inc     bc
8298 1d        dec     e
8299 0109ff    ld      bc,0ff09h
829c 0f        rrca    
829d 03        inc     bc
829e 1d        dec     e
829f 010c53    ld      bc,530ch
82a2 010cff    ld      bc,0ff0ch
82a5 ff        rst     38h
82a6 187d      jr      8325h
82a8 010cac    ld      bc,0ac0ch
82ab 010cff    ld      bc,0ff0ch
82ae ff        rst     38h
82af 18fc      jr      82adh
82b1 010c3b    ld      bc,3b0ch
82b4 02        ld      (bc),a
82b5 0c        inc     c
82b6 ff        rst     38h
82b7 ff        rst     38h
82b8 54        ld      d,h
82b9 1d        dec     e
82ba 010cff    ld      bc,0ff0ch
82bd ff        rst     38h
82be 0c        inc     c
82bf 2e01      ld      l,01h
82c1 0c        inc     c
82c2 ff        rst     38h
82c3 ff        rst     38h
82c4 0c        inc     c
82c5 53        ld      d,e
82c6 010cff    ld      bc,0ff0ch
82c9 ff        rst     38h
82ca 0c        inc     c
82cb 2e01      ld      l,01h
82cd 0c        inc     c
82ce 1d        dec     e
82cf 010cff    ld      bc,0ff0ch
82d2 ff        rst     38h
82d3 3c        inc     a
82d4 53        ld      d,e
82d5 010c2e    ld      bc,2e0ch
82d8 010c1d    ld      bc,1d0ch
82db 010c7b    ld      bc,7b0ch
82de 010653    ld      bc,5306h
82e1 01062e    ld      bc,2e06h
82e4 01061d    ld      bc,1d06h
82e7 0106fe    ld      bc,0fe06h
82ea 00        nop     
82eb 06ff      ld      b,0ffh
82ed ff        rst     38h
82ee 42        ld      b,d
82ef be        cp      (hl)
82f0 00        nop     
82f1 06aa      ld      b,0aah
82f3 00        nop     
82f4 0697      ld      b,97h
82f6 00        nop     
82f7 068f      ld      b,8fh
82f9 00        nop     
82fa 067f      ld      b,7fh
82fc 00        nop     
82fd 06ff      ld      b,0ffh
82ff ff        rst     38h
8300 42        ld      b,d
8301 00        nop     
8302 00        nop     
8303 a7        and     a
8304 02        ld      (bc),a
8305 0ea7      ld      c,0a7h
8307 02        ld      (bc),a
8308 07        rlca    
8309 3b        dec     sp
830a 02        ld      (bc),a
830b 0ec5      ld      c,0c5h
830d 010753    ld      bc,5307h
8310 010e53    ld      bc,530eh
8313 0107c5    ld      bc,0c507h
8316 010e3b    ld      bc,3b0eh
8319 02        ld      (bc),a
831a 07        rlca    
831b a7        and     a
831c 02        ld      (bc),a
831d 0ea7      ld      c,0a7h
831f 02        ld      (bc),a
8320 07        rlca    
8321 3b        dec     sp
8322 02        ld      (bc),a
8323 0ec5      ld      c,0c5h
8325 010753    ld      bc,5307h
8328 010e53    ld      bc,530eh
832b 0107c5    ld      bc,0c507h
832e 010e3b    ld      bc,3b0eh
8331 02        ld      (bc),a
8332 07        rlca    
8333 fa020e    jp      m,0e02h
8336 fa0207    jp      m,0702h
8339 5d        ld      e,l
833a 02        ld      (bc),a
833b 0efc      ld      c,0fch
833d 01077d    ld      bc,7d07h
8340 010e7d    ld      bc,7d0eh
8343 0107ac    ld      bc,0ac07h
8346 010efc    ld      bc,0fc0eh
8349 0107fa    ld      bc,0fa07h
834c 02        ld      (bc),a
834d 0efa      ld      c,0fah
834f 02        ld      (bc),a
8350 07        rlca    
8351 5d        ld      e,l
8352 02        ld      (bc),a
8353 0efc      ld      c,0fch
8355 01077d    ld      bc,7d07h
8358 010e7d    ld      bc,7d0eh
835b 0107ac    ld      bc,0ac07h
835e 010efc    ld      bc,0fc0eh
8361 0107a7    ld      bc,0a707h
8364 02        ld      (bc),a
8365 0ea7      ld      c,0a7h
8367 02        ld      (bc),a
8368 07        rlca    
8369 3b        dec     sp
836a 02        ld      (bc),a
836b 0ec5      ld      c,0c5h
836d 010753    ld      bc,5307h
8370 010e53    ld      bc,530eh
8373 0107c5    ld      bc,0c507h
8376 010e3b    ld      bc,3b0eh
8379 02        ld      (bc),a
837a 07        rlca    
837b a7        and     a
837c 02        ld      (bc),a
837d 0ea7      ld      c,0a7h
837f 02        ld      (bc),a
8380 07        rlca    
8381 3b        dec     sp
8382 02        ld      (bc),a
8383 0ec5      ld      c,0c5h
8385 010753    ld      bc,5307h
8388 010e53    ld      bc,530eh
838b 0107c5    ld      bc,0c507h
838e 010e3b    ld      bc,3b0eh
8391 02        ld      (bc),a
8392 07        rlca    
8393 fa020e    jp      m,0e02h
8396 fa0207    jp      m,0702h
8399 5d        ld      e,l
839a 02        ld      (bc),a
839b 0efc      ld      c,0fch
839d 01077d    ld      bc,7d07h
83a0 010e7d    ld      bc,7d0eh
83a3 0107ac    ld      bc,0ac07h
83a6 010efc    ld      bc,0fc0eh
83a9 0107fa    ld      bc,0fa07h
83ac 02        ld      (bc),a
83ad 0efa      ld      c,0fah
83af 02        ld      (bc),a
83b0 07        rlca    
83b1 5d        ld      e,l
83b2 02        ld      (bc),a
83b3 0efc      ld      c,0fch
83b5 01077d    ld      bc,7d07h
83b8 010e7d    ld      bc,7d0eh
83bb 0107ac    ld      bc,0ac07h
83be 010efc    ld      bc,0fc0eh
83c1 01075d    ld      bc,5d07h
83c4 02        ld      (bc),a
83c5 0e5d      ld      c,5dh
83c7 02        ld      (bc),a
83c8 07        rlca    
83c9 fc010e    call    m,0e01h
83cc 94        sub     h
83cd 01072e    ld      bc,2e07h
83d0 010e2e    ld      bc,2e0eh
83d3 010794    ld      bc,9407h
83d6 010efc    ld      bc,0fc0eh
83d9 01075d    ld      bc,5d07h
83dc 02        ld      (bc),a
83dd 0e5d      ld      c,5dh
83df 02        ld      (bc),a
83e0 07        rlca    
83e1 fc010e    call    m,0e01h
83e4 94        sub     h
83e5 01072e    ld      bc,2e07h
83e8 010e2e    ld      bc,2e0eh
83eb 010794    ld      bc,9407h
83ee 010efc    ld      bc,0fc0eh
83f1 0107a7    ld      bc,0a707h
83f4 02        ld      (bc),a
83f5 0ea7      ld      c,0a7h
83f7 02        ld      (bc),a
83f8 07        rlca    
83f9 1b        dec     de
83fa 02        ld      (bc),a
83fb 0ec5      ld      c,0c5h
83fd 010753    ld      bc,5307h
8400 010e53    ld      bc,530eh
8403 01077d    ld      bc,7d07h
8406 010ec5    ld      bc,0c50eh
8409 0107a7    ld      bc,0a707h
840c 02        ld      (bc),a
840d 0ea7      ld      c,0a7h
840f 02        ld      (bc),a
8410 07        rlca    
8411 1b        dec     de
8412 02        ld      (bc),a
8413 0ec5      ld      c,0c5h
8415 010753    ld      bc,5307h
8418 010e53    ld      bc,530eh
841b 01077d    ld      bc,7d07h
841e 010ec5    ld      bc,0c50eh
8421 01075d    ld      bc,5d07h
8424 02        ld      (bc),a
8425 0e00      ld      c,00h
8427 00        nop     
8428 53        ld      d,e
8429 010ea7    ld      bc,0a70eh
842c 02        ld      (bc),a
842d 07        rlca    
842e a7        and     a
842f 02        ld      (bc),a
8430 0e5d      ld      c,5dh
8432 02        ld      (bc),a
8433 07        rlca    
8434 3b        dec     sp
8435 02        ld      (bc),a
8436 0efc      ld      c,0fch
8438 0107c5    ld      bc,0c507h
843b 010e7d    ld      bc,7d0eh
843e 010753    ld      bc,5307h
8441 010e7d    ld      bc,7d0eh
8444 01071d    ld      bc,1d07h
8447 010e2e    ld      bc,2e0eh
844a 010753    ld      bc,5307h
844d 010ec5    ld      bc,0c50eh
8450 0107a7    ld      bc,0a707h
8453 02        ld      (bc),a
8454 0e3b      ld      c,3bh
8456 02        ld      (bc),a
8457 07        rlca    
8458 7d        ld      a,l
8459 010e53    ld      bc,530eh
845c 01072e    ld      bc,2e07h
845f 010e1d    ld      bc,1d0eh
8462 0107fe    ld      bc,0fe07h
8465 00        nop     
8466 0e1d      ld      c,1dh
8468 01072e    ld      bc,2e07h
846b 010e53    ld      bc,530eh
846e 01077d    ld      bc,7d07h
8471 010e53    ld      bc,530eh
8474 01072e    ld      bc,2e07h
8477 010e53    ld      bc,530eh
847a 01077d    ld      bc,7d07h
847d 010e7d    ld      bc,7d0eh
8480 0107fc    ld      bc,0fc07h
8483 010efc    ld      bc,0fc0eh
8486 010753    ld      bc,5307h
8489 010ea7    ld      bc,0a70eh
848c 02        ld      (bc),a
848d 07        rlca    
848e a7        and     a
848f 02        ld      (bc),a
8490 0e5d      ld      c,5dh
8492 02        ld      (bc),a
8493 07        rlca    
8494 3b        dec     sp
8495 02        ld      (bc),a
8496 0efc      ld      c,0fch
8498 0107c5    ld      bc,0c507h
849b 010e7d    ld      bc,7d0eh
849e 010753    ld      bc,5307h
84a1 010e7d    ld      bc,7d0eh
84a4 01071d    ld      bc,1d07h
84a7 010e2e    ld      bc,2e0eh
84aa 010753    ld      bc,5307h
84ad 010ec5    ld      bc,0c50eh
84b0 0107a7    ld      bc,0a707h
84b3 02        ld      (bc),a
84b4 0e3b      ld      c,3bh
84b6 02        ld      (bc),a
84b7 07        rlca    
84b8 7d        ld      a,l
84b9 010e53    ld      bc,530eh
84bc 01072e    ld      bc,2e07h
84bf 010e1d    ld      bc,1d0eh
84c2 0107fe    ld      bc,0fe07h
84c5 00        nop     
84c6 0e1d      ld      c,1dh
84c8 01072e    ld      bc,2e07h
84cb 010e53    ld      bc,530eh
84ce 01077d    ld      bc,7d07h
84d1 010e53    ld      bc,530eh
84d4 01072e    ld      bc,2e07h
84d7 010e53    ld      bc,530eh
84da 01077d    ld      bc,7d07h
84dd 010e7d    ld      bc,7d0eh
84e0 0107fc    ld      bc,0fc07h
84e3 010efc    ld      bc,0fc0eh
84e6 01072e    ld      bc,2e07h
84e9 010e5d    ld      bc,5d0eh
84ec 02        ld      (bc),a
84ed 07        rlca    
84ee 5d        ld      e,l
84ef 02        ld      (bc),a
84f0 0e1b      ld      c,1bh
84f2 02        ld      (bc),a
84f3 07        rlca    
84f4 fc010e    call    m,0e01h
84f7 c5        push    bc
84f8 010794    ld      bc,9407h
84fb 010e53    ld      bc,530eh
84fe 01072e    ld      bc,2e07h
8501 010e53    ld      bc,530eh
8504 0107fe    ld      bc,0fe07h
8507 00        nop     
8508 0e0d      ld      c,0dh
850a 01072e    ld      bc,2e07h
850d 010e94    ld      bc,940eh
8510 01075d    ld      bc,5d07h
8513 02        ld      (bc),a
8514 0efc      ld      c,0fch
8516 010753    ld      bc,5307h
8519 010e2e    ld      bc,2e0eh
851c 01070d    ld      bc,0d07h
851f 010efe    ld      bc,0fe0eh
8522 00        nop     
8523 07        rlca    
8524 e2000e    jp      po,0e00h
8527 fe00      cp      00h
8529 07        rlca    
852a 0d        dec     c
852b 010e2e    ld      bc,2e0eh
852e 010753    ld      bc,5307h
8531 010e2e    ld      bc,2e0eh
8534 01070d    ld      bc,0d07h
8537 010e2e    ld      bc,2e0eh
853a 010753    ld      bc,5307h
853d 010e53    ld      bc,530eh
8540 0107c5    ld      bc,0c507h
8543 010ec5    ld      bc,0c50eh
8546 01072e    ld      bc,2e07h
8549 010e00    ld      bc,000eh
854c 00        nop     
854d ff        rst     38h
854e ff        rst     38h
854f 15        dec     d
8550 53        ld      d,e
8551 010ea7    ld      bc,0a70eh
8554 02        ld      (bc),a
8555 07        rlca    
8556 a7        and     a
8557 02        ld      (bc),a
8558 0e5d      ld      c,5dh
855a 02        ld      (bc),a
855b 07        rlca    
855c 3b        dec     sp
855d 02        ld      (bc),a
855e 0efc      ld      c,0fch
8560 0107c5    ld      bc,0c507h
8563 010e7d    ld      bc,7d0eh
8566 010753    ld      bc,5307h
8569 010e7d    ld      bc,7d0eh
856c 01071d    ld      bc,1d07h
856f 010e2e    ld      bc,2e0eh
8572 010753    ld      bc,5307h
8575 010ec5    ld      bc,0c50eh
8578 0107a7    ld      bc,0a707h
857b 02        ld      (bc),a
857c 0e3b      ld      c,3bh
857e 02        ld      (bc),a
857f 07        rlca    
8580 7d        ld      a,l
8581 010e53    ld      bc,530eh
8584 01072e    ld      bc,2e07h
8587 010e1d    ld      bc,1d0eh
858a 0107fe    ld      bc,0fe07h
858d 00        nop     
858e 0e1d      ld      c,1dh
8590 01072e    ld      bc,2e07h
8593 010e53    ld      bc,530eh
8596 01077d    ld      bc,7d07h
8599 010e53    ld      bc,530eh
859c 01072e    ld      bc,2e07h
859f 010e53    ld      bc,530eh
85a2 01077d    ld      bc,7d07h
85a5 010e7d    ld      bc,7d0eh
85a8 0107ff    ld      bc,0ff07h
85ab ff        rst     38h
85ac 15        dec     d
85ad 53        ld      d,e
85ae 010ea7    ld      bc,0a70eh
85b1 02        ld      (bc),a
85b2 07        rlca    
85b3 a7        and     a
85b4 02        ld      (bc),a
85b5 0e5d      ld      c,5dh
85b7 02        ld      (bc),a
85b8 07        rlca    
85b9 3b        dec     sp
85ba 02        ld      (bc),a
85bb 0efc      ld      c,0fch
85bd 0107c5    ld      bc,0c507h
85c0 010e7d    ld      bc,7d0eh
85c3 010753    ld      bc,5307h
85c6 010e7d    ld      bc,7d0eh
85c9 01071d    ld      bc,1d07h
85cc 010e2e    ld      bc,2e0eh
85cf 010753    ld      bc,5307h
85d2 010ec5    ld      bc,0c50eh
85d5 0107a7    ld      bc,0a707h
85d8 02        ld      (bc),a
85d9 0e3b      ld      c,3bh
85db 02        ld      (bc),a
85dc 07        rlca    
85dd 7d        ld      a,l
85de 010e53    ld      bc,530eh
85e1 01072e    ld      bc,2e07h
85e4 010e1d    ld      bc,1d0eh
85e7 0107fe    ld      bc,0fe07h
85ea 00        nop     
85eb 0e1d      ld      c,1dh
85ed 01072e    ld      bc,2e07h
85f0 010e53    ld      bc,530eh
85f3 01077d    ld      bc,7d07h
85f6 010e53    ld      bc,530eh
85f9 01072e    ld      bc,2e07h
85fc 010e53    ld      bc,530eh
85ff 01077d    ld      bc,7d07h
8602 010e7d    ld      bc,7d0eh
8605 0107ff    ld      bc,0ff07h
8608 ff        rst     38h
8609 15        dec     d
860a 2e01      ld      l,01h
860c 0e5d      ld      c,5dh
860e 02        ld      (bc),a
860f 07        rlca    
8610 5d        ld      e,l
8611 02        ld      (bc),a
8612 0e1b      ld      c,1bh
8614 02        ld      (bc),a
8615 07        rlca    
8616 fc010e    call    m,0e01h
8619 c5        push    bc
861a 010794    ld      bc,9407h
861d 010e53    ld      bc,530eh
8620 01072e    ld      bc,2e07h
8623 010e53    ld      bc,530eh
8626 0107fe    ld      bc,0fe07h
8629 00        nop     
862a 0e0d      ld      c,0dh
862c 01072e    ld      bc,2e07h
862f 010e94    ld      bc,940eh
8632 01075d    ld      bc,5d07h
8635 02        ld      (bc),a
8636 0efc      ld      c,0fch
8638 010753    ld      bc,5307h
863b 010e2e    ld      bc,2e0eh
863e 01070d    ld      bc,0d07h
8641 010efe    ld      bc,0fe0eh
8644 00        nop     
8645 07        rlca    
8646 e2000e    jp      po,0e00h
8649 fe00      cp      00h
864b 07        rlca    
864c 0d        dec     c
864d 010e2e    ld      bc,2e0eh
8650 010753    ld      bc,5307h
8653 010e2e    ld      bc,2e0eh
8656 01070d    ld      bc,0d07h
8659 010e2e    ld      bc,2e0eh
865c 010753    ld      bc,5307h
865f 010e53    ld      bc,530eh
8662 0107ff    ld      bc,0ff07h
8665 ff        rst     38h
8666 23        inc     hl
8667 00        nop     
8668 00        nop     
8669 c5        push    bc
866a 0110c5    ld      bc,0c510h
866d 0110ff    ld      bc,0ff10h
8670 ff        rst     38h
8671 20c5      jr      nz,8638h
8673 0110c5    ld      bc,0c510h
8676 0110c5    ld      bc,0c510h
8679 0110fc    ld      bc,0fc10h
867c 01103b    ld      bc,3b10h
867f 02        ld      (bc),a
8680 103b      djnz    86bdh
8682 02        ld      (bc),a
8683 10ff      djnz    8684h
8685 ff        rst     38h
8686 20fc      jr      nz,8684h
8688 0110fc    ld      bc,0fc10h
868b 0110ff    ld      bc,0ff10h
868e ff        rst     38h
868f 105d      djnz    86eeh
8691 02        ld      (bc),a
8692 08        ex      af,af'
8693 a7        and     a
8694 02        ld      (bc),a
8695 08        ex      af,af'
8696 c5        push    bc
8697 0110c5    ld      bc,0c510h
869a 0110ff    ld      bc,0ff10h
869d ff        rst     38h
869e 20c5      jr      nz,8665h
86a0 0110c5    ld      bc,0c510h
86a3 0110c5    ld      bc,0c510h
86a6 0110fc    ld      bc,0fc10h
86a9 01103b    ld      bc,3b10h
86ac 02        ld      (bc),a
86ad 103b      djnz    86eah
86af 02        ld      (bc),a
86b0 10ff      djnz    86b1h
86b2 ff        rst     38h
86b3 20fc      jr      nz,86b1h
86b5 0110fc    ld      bc,0fc10h
86b8 0110ff    ld      bc,0ff10h
86bb ff        rst     38h
86bc 105d      djnz    871bh
86be 02        ld      (bc),a
86bf 08        ex      af,af'
86c0 a7        and     a
86c1 02        ld      (bc),a
86c2 08        ex      af,af'
86c3 fc0108    call    m,0801h
86c6 fc0108    call    m,0801h
86c9 fc0108    call    m,0801h
86cc fc0108    call    m,0801h
86cf fc0108    call    m,0801h
86d2 fc0108    call    m,0801h
86d5 fc0108    call    m,0801h
86d8 fc0108    call    m,0801h
86db fc0108    call    m,0801h
86de fc0108    call    m,0801h
86e1 fc0108    call    m,0801h
86e4 fc0108    call    m,0801h
86e7 3b        dec     sp
86e8 02        ld      (bc),a
86e9 08        ex      af,af'
86ea 3b        dec     sp
86eb 02        ld      (bc),a
86ec 08        ex      af,af'
86ed 3b        dec     sp
86ee 02        ld      (bc),a
86ef 08        ex      af,af'
86f0 3b        dec     sp
86f1 02        ld      (bc),a
86f2 08        ex      af,af'
86f3 81        add     a,c
86f4 02        ld      (bc),a
86f5 08        ex      af,af'
86f6 81        add     a,c
86f7 02        ld      (bc),a
86f8 08        ex      af,af'
86f9 81        add     a,c
86fa 02        ld      (bc),a
86fb 08        ex      af,af'
86fc 81        add     a,c
86fd 02        ld      (bc),a
86fe 08        ex      af,af'
86ff 81        add     a,c
8700 02        ld      (bc),a
8701 08        ex      af,af'
8702 81        add     a,c
8703 02        ld      (bc),a
8704 08        ex      af,af'
8705 81        add     a,c
8706 02        ld      (bc),a
8707 08        ex      af,af'
8708 81        add     a,c
8709 02        ld      (bc),a
870a 08        ex      af,af'
870b 3b        dec     sp
870c 02        ld      (bc),a
870d 08        ex      af,af'
870e 3b        dec     sp
870f 02        ld      (bc),a
8710 08        ex      af,af'
8711 3b        dec     sp
8712 02        ld      (bc),a
8713 08        ex      af,af'
8714 3b        dec     sp
8715 02        ld      (bc),a
8716 08        ex      af,af'
8717 3b        dec     sp
8718 02        ld      (bc),a
8719 08        ex      af,af'
871a 3b        dec     sp
871b 02        ld      (bc),a
871c 08        ex      af,af'
871d 3b        dec     sp
871e 02        ld      (bc),a
871f 08        ex      af,af'
8720 3b        dec     sp
8721 02        ld      (bc),a
8722 08        ex      af,af'
8723 fc0108    call    m,0801h
8726 fc0108    call    m,0801h
8729 fc0108    call    m,0801h
872c fc0108    call    m,0801h
872f fc0108    call    m,0801h
8732 fc0108    call    m,0801h
8735 fc0108    call    m,0801h
8738 fc0108    call    m,0801h
873b fc0108    call    m,0801h
873e fc0108    call    m,0801h
8741 fc0108    call    m,0801h
8744 fc0108    call    m,0801h
8747 3b        dec     sp
8748 02        ld      (bc),a
8749 08        ex      af,af'
874a 3b        dec     sp
874b 02        ld      (bc),a
874c 08        ex      af,af'
874d 3b        dec     sp
874e 02        ld      (bc),a
874f 08        ex      af,af'
8750 3b        dec     sp
8751 02        ld      (bc),a
8752 08        ex      af,af'
8753 81        add     a,c
8754 02        ld      (bc),a
8755 08        ex      af,af'
8756 81        add     a,c
8757 02        ld      (bc),a
8758 08        ex      af,af'
8759 81        add     a,c
875a 02        ld      (bc),a
875b 08        ex      af,af'
875c 81        add     a,c
875d 02        ld      (bc),a
875e 08        ex      af,af'
875f 81        add     a,c
8760 02        ld      (bc),a
8761 08        ex      af,af'
8762 81        add     a,c
8763 02        ld      (bc),a
8764 08        ex      af,af'
8765 81        add     a,c
8766 02        ld      (bc),a
8767 08        ex      af,af'
8768 81        add     a,c
8769 02        ld      (bc),a
876a 08        ex      af,af'
876b 3b        dec     sp
876c 02        ld      (bc),a
876d 08        ex      af,af'
876e 3b        dec     sp
876f 02        ld      (bc),a
8770 08        ex      af,af'
8771 3b        dec     sp
8772 02        ld      (bc),a
8773 08        ex      af,af'
8774 3b        dec     sp
8775 02        ld      (bc),a
8776 08        ex      af,af'
8777 3b        dec     sp
8778 02        ld      (bc),a
8779 08        ex      af,af'
877a 3b        dec     sp
877b 02        ld      (bc),a
877c 08        ex      af,af'
877d 3b        dec     sp
877e 02        ld      (bc),a
877f 08        ex      af,af'
8780 3b        dec     sp
8781 02        ld      (bc),a
8782 08        ex      af,af'
8783 c5        push    bc
8784 0108c5    ld      bc,0c508h
8787 0108c5    ld      bc,0c508h
878a 0108c5    ld      bc,0c508h
878d 0108c5    ld      bc,0c508h
8790 0108c5    ld      bc,0c508h
8793 0108c5    ld      bc,0c508h
8796 0108c5    ld      bc,0c508h
8799 0108c5    ld      bc,0c508h
879c 0108c5    ld      bc,0c508h
879f 0108c5    ld      bc,0c508h
87a2 0108c5    ld      bc,0c508h
87a5 0108fc    ld      bc,0fc08h
87a8 0108fc    ld      bc,0fc08h
87ab 0108fc    ld      bc,0fc08h
87ae 0108fc    ld      bc,0fc08h
87b1 01083b    ld      bc,3b08h
87b4 02        ld      (bc),a
87b5 08        ex      af,af'
87b6 3b        dec     sp
87b7 02        ld      (bc),a
87b8 08        ex      af,af'
87b9 3b        dec     sp
87ba 02        ld      (bc),a
87bb 08        ex      af,af'
87bc 3b        dec     sp
87bd 02        ld      (bc),a
87be 08        ex      af,af'
87bf 3b        dec     sp
87c0 02        ld      (bc),a
87c1 08        ex      af,af'
87c2 3b        dec     sp
87c3 02        ld      (bc),a
87c4 08        ex      af,af'
87c5 3b        dec     sp
87c6 02        ld      (bc),a
87c7 08        ex      af,af'
87c8 3b        dec     sp
87c9 02        ld      (bc),a
87ca 08        ex      af,af'
87cb fc0108    call    m,0801h
87ce fc0108    call    m,0801h
87d1 fc0108    call    m,0801h
87d4 fc0108    call    m,0801h
87d7 fc0108    call    m,0801h
87da fc0108    call    m,0801h
87dd fc0108    call    m,0801h
87e0 fc0108    call    m,0801h
87e3 c5        push    bc
87e4 0108c5    ld      bc,0c508h
87e7 0108c5    ld      bc,0c508h
87ea 0108c5    ld      bc,0c508h
87ed 0108c5    ld      bc,0c508h
87f0 0108c5    ld      bc,0c508h
87f3 0108c5    ld      bc,0c508h
87f6 0108c5    ld      bc,0c508h
87f9 0108c5    ld      bc,0c508h
87fc 0108c5    ld      bc,0c508h
87ff 0108c5    ld      bc,0c508h
8802 0108c5    ld      bc,0c508h
8805 0108fc    ld      bc,0fc08h
8808 0108fc    ld      bc,0fc08h
880b 0108fc    ld      bc,0fc08h
880e 0108fc    ld      bc,0fc08h
8811 01083b    ld      bc,3b08h
8814 02        ld      (bc),a
8815 08        ex      af,af'
8816 3b        dec     sp
8817 02        ld      (bc),a
8818 08        ex      af,af'
8819 3b        dec     sp
881a 02        ld      (bc),a
881b 08        ex      af,af'
881c 3b        dec     sp
881d 02        ld      (bc),a
881e 08        ex      af,af'
881f 3b        dec     sp
8820 02        ld      (bc),a
8821 08        ex      af,af'
8822 3b        dec     sp
8823 02        ld      (bc),a
8824 08        ex      af,af'
8825 3b        dec     sp
8826 02        ld      (bc),a
8827 08        ex      af,af'
8828 3b        dec     sp
8829 02        ld      (bc),a
882a 08        ex      af,af'
882b fc0108    call    m,0801h
882e fc0108    call    m,0801h
8831 fc0108    call    m,0801h
8834 fc0108    call    m,0801h
8837 fc0108    call    m,0801h
883a fc0108    call    m,0801h
883d fc0108    call    m,0801h
8840 fc0108    call    m,0801h
8843 c5        push    bc
8844 011000    ld      bc,0010h
8847 00        nop     
8848 c5        push    bc
8849 0110c5    ld      bc,0c510h
884c 0120fc    ld      bc,0fc20h
884f 01085d    ld      bc,5d08h
8852 02        ld      (bc),a
8853 08        ex      af,af'
8854 c5        push    bc
8855 011094    ld      bc,9410h
8858 01107d    ld      bc,7d10h
885b 0110fc    ld      bc,0fc10h
885e 01103b    ld      bc,3b10h
8861 02        ld      (bc),a
8862 103b      djnz    889fh
8864 02        ld      (bc),a
8865 10ff      djnz    8866h
8867 ff        rst     38h
8868 10fc      djnz    8866h
886a 0108c5    ld      bc,0c508h
886d 0108fc    ld      bc,0fc08h
8870 0110fc    ld      bc,0fc10h
8873 0110a7    ld      bc,0a710h
8876 02        ld      (bc),a
8877 10fc      djnz    8875h
8879 0110c5    ld      bc,0c510h
887c 0110c5    ld      bc,0c510h
887f 0120fc    ld      bc,0fc20h
8882 01085d    ld      bc,5d08h
8885 02        ld      (bc),a
8886 08        ex      af,af'
8887 c5        push    bc
8888 011094    ld      bc,9410h
888b 01107d    ld      bc,7d10h
888e 0110fc    ld      bc,0fc10h
8891 01107d    ld      bc,7d10h
8894 01107d    ld      bc,7d10h
8897 0110ff    ld      bc,0ff10h
889a ff        rst     38h
889b 107d      djnz    891ah
889d 010853    ld      bc,5308h
88a0 010894    ld      bc,9408h
88a3 011094    ld      bc,9410h
88a6 01107d    ld      bc,7d10h
88a9 011094    ld      bc,9410h
88ac 0110ac    ld      bc,0ac10h
88af 0108ac    ld      bc,0ac08h
88b2 0108ac    ld      bc,0ac08h
88b5 0108ac    ld      bc,0ac08h
88b8 010853    ld      bc,5308h
88bb 0108ac    ld      bc,0ac08h
88be 0108ac    ld      bc,0ac08h
88c1 0108ac    ld      bc,0ac08h
88c4 0108c5    ld      bc,0c508h
88c7 0108ac    ld      bc,0ac08h
88ca 0108ac    ld      bc,0ac08h
88cd 0108ac    ld      bc,0ac08h
88d0 0108ac    ld      bc,0ac08h
88d3 0108ac    ld      bc,0ac08h
88d6 0108c5    ld      bc,0c508h
88d9 0108c5    ld      bc,0c508h
88dc 0108fc    ld      bc,0fc08h
88df 0108fc    ld      bc,0fc08h
88e2 0108fc    ld      bc,0fc08h
88e5 0108fc    ld      bc,0fc08h
88e8 0108ac    ld      bc,0ac08h
88eb 0108ac    ld      bc,0ac08h
88ee 010840    ld      bc,4008h
88f1 010840    ld      bc,4008h
88f4 0108c5    ld      bc,0c508h
88f7 0108c5    ld      bc,0c508h
88fa 0108c5    ld      bc,0c508h
88fd 0108c5    ld      bc,0c508h
8900 01087d    ld      bc,7d08h
8903 01087d    ld      bc,7d08h
8906 01081d    ld      bc,1d08h
8909 01081d    ld      bc,1d08h
890c 0108ac    ld      bc,0ac08h
890f 0108ac    ld      bc,0ac08h
8912 0108ac    ld      bc,0ac08h
8915 0108ac    ld      bc,0ac08h
8918 010853    ld      bc,5308h
891b 0108ac    ld      bc,0ac08h
891e 0108ac    ld      bc,0ac08h
8921 0108ac    ld      bc,0ac08h
8924 0108c5    ld      bc,0c508h
8927 0108ac    ld      bc,0ac08h
892a 0108ac    ld      bc,0ac08h
892d 0108ac    ld      bc,0ac08h
8930 0108ac    ld      bc,0ac08h
8933 0108ac    ld      bc,0ac08h
8936 0108c5    ld      bc,0c508h
8939 0108c5    ld      bc,0c508h
893c 0108fc    ld      bc,0fc08h
893f 0108fc    ld      bc,0fc08h
8942 0108fc    ld      bc,0fc08h
8945 0108fc    ld      bc,0fc08h
8948 0108ac    ld      bc,0ac08h
894b 0108ac    ld      bc,0ac08h
894e 010840    ld      bc,4008h
8951 010840    ld      bc,4008h
8954 0108c5    ld      bc,0c508h
8957 0108c5    ld      bc,0c508h
895a 0108c5    ld      bc,0c508h
895d 0108c5    ld      bc,0c508h
8960 01087d    ld      bc,7d08h
8963 01087d    ld      bc,7d08h
8966 01081d    ld      bc,1d08h
8969 01081d    ld      bc,1d08h
896c 01087d    ld      bc,7d08h
896f 01087d    ld      bc,7d08h
8972 01087d    ld      bc,7d08h
8975 01087d    ld      bc,7d08h
8978 01082e    ld      bc,2e08h
897b 01087d    ld      bc,7d08h
897e 01087d    ld      bc,7d08h
8981 01087d    ld      bc,7d08h
8984 010894    ld      bc,9408h
8987 01087d    ld      bc,7d08h
898a 01087d    ld      bc,7d08h
898d 01087d    ld      bc,7d08h
8990 01087d    ld      bc,7d08h
8993 01087d    ld      bc,7d08h
8996 0108ac    ld      bc,0ac08h
8999 0108ac    ld      bc,0ac08h
899c 0108c5    ld      bc,0c508h
899f 0108c5    ld      bc,0c508h
89a2 0108c5    ld      bc,0c508h
89a5 0108c5    ld      bc,0c508h
89a8 01087d    ld      bc,7d08h
89ab 01087d    ld      bc,7d08h
89ae 01081d    ld      bc,1d08h
89b1 01081d    ld      bc,1d08h
89b4 010894    ld      bc,9408h
89b7 010894    ld      bc,9408h
89ba 010894    ld      bc,9408h
89bd 010894    ld      bc,9408h
89c0 010853    ld      bc,5308h
89c3 010853    ld      bc,5308h
89c6 0108fe    ld      bc,0fe08h
89c9 00        nop     
89ca 08        ex      af,af'
89cb fe00      cp      00h
89cd 08        ex      af,af'
89ce 7d        ld      a,l
89cf 01087d    ld      bc,7d08h
89d2 01087d    ld      bc,7d08h
89d5 01087d    ld      bc,7d08h
89d8 01082e    ld      bc,2e08h
89db 01087d    ld      bc,7d08h
89de 01087d    ld      bc,7d08h
89e1 01087d    ld      bc,7d08h
89e4 010894    ld      bc,9408h
89e7 01087d    ld      bc,7d08h
89ea 01087d    ld      bc,7d08h
89ed 01087d    ld      bc,7d08h
89f0 01087d    ld      bc,7d08h
89f3 01087d    ld      bc,7d08h
89f6 010894    ld      bc,9408h
89f9 010894    ld      bc,9408h
89fc 0108c5    ld      bc,0c508h
89ff 0108c5    ld      bc,0c508h
8a02 0108c5    ld      bc,0c508h
8a05 0108c5    ld      bc,0c508h
8a08 01087d    ld      bc,7d08h
8a0b 01087d    ld      bc,7d08h
8a0e 01081d    ld      bc,1d08h
8a11 01081d    ld      bc,1d08h
8a14 010894    ld      bc,9408h
8a17 010894    ld      bc,9408h
8a1a 010894    ld      bc,9408h
8a1d 010894    ld      bc,9408h
8a20 010853    ld      bc,5308h
8a23 010853    ld      bc,5308h
8a26 010853    ld      bc,5308h
8a29 010853    ld      bc,5308h
8a2c 0108c5    ld      bc,0c508h
8a2f 011000    ld      bc,0010h
8a32 00        nop     
8a33 e20020    jp      po,2000h
8a36 ff        rst     38h
8a37 ff        rst     38h
8a38 10fe      djnz    8a38h
8a3a 00        nop     
8a3b 102e      djnz    8a6bh
8a3d 0120fe    ld      bc,0fe20h
8a40 00        nop     
8a41 201d      jr      nz,8a60h
8a43 0120e2    ld      bc,0e220h
8a46 00        nop     
8a47 20fe      jr      nz,8a47h
8a49 00        nop     
8a4a 20ca      jr      nz,8a16h
8a4c 00        nop     
8a4d 20e2      jr      nz,8a31h
8a4f 00        nop     
8a50 20ff      jr      nz,8a51h
8a52 ff        rst     38h
8a53 10fe      djnz    8a53h
8a55 00        nop     
8a56 102e      djnz    8a86h
8a58 0120fe    ld      bc,0fe20h
8a5b 00        nop     
8a5c 207d      jr      nz,8adbh
8a5e 0120e2    ld      bc,0e220h
8a61 00        nop     
8a62 20be      jr      nz,8a22h
8a64 00        nop     
8a65 20ca      jr      nz,8a31h
8a67 00        nop     
8a68 20aa      jr      nz,8a14h
8a6a 00        nop     
8a6b 10be      djnz    8a2bh
8a6d 00        nop     
8a6e 10d6      djnz    8a46h
8a70 00        nop     
8a71 10e2      djnz    8a55h
8a73 00        nop     
8a74 10fe      djnz    8a74h
8a76 00        nop     
8a77 1053      djnz    8acch
8a79 0110fe    ld      bc,0fe10h
8a7c 00        nop     
8a7d 10e2      djnz    8a61h
8a7f 00        nop     
8a80 10d6      djnz    8a58h
8a82 00        nop     
8a83 10fe      djnz    8a83h
8a85 00        nop     
8a86 101d      djnz    8aa5h
8a88 0110fe    ld      bc,0fe10h
8a8b 00        nop     
8a8c 10d6      djnz    8a64h
8a8e 00        nop     
8a8f 10e2      djnz    8a73h
8a91 00        nop     
8a92 10fe      djnz    8a92h
8a94 00        nop     
8a95 1053      djnz    8aeah
8a97 0110aa    ld      bc,0aa10h
8a9a 00        nop     
8a9b 10d6      djnz    8a73h
8a9d 00        nop     
8a9e 10aa      djnz    8a4ah
8aa0 00        nop     
8aa1 10a0      djnz    8a43h
8aa3 00        nop     
8aa4 10aa      djnz    8a50h
8aa6 00        nop     
8aa7 08        ex      af,af'
8aa8 be        cp      (hl)
8aa9 00        nop     
8aaa 08        ex      af,af'
8aab d600      sub     00h
8aad 08        ex      af,af'
8aae e20008    jp      po,0800h
8ab1 fe00      cp      00h
8ab3 08        ex      af,af'
8ab4 1d        dec     e
8ab5 010840    ld      bc,4008h
8ab8 010853    ld      bc,5308h
8abb 01081d    ld      bc,1d08h
8abe 0110fe    ld      bc,0fe10h
8ac1 00        nop     
8ac2 10e2      djnz    8aa6h
8ac4 00        nop     
8ac5 101d      djnz    8ae4h
8ac7 0110be    ld      bc,0be10h
8aca 00        nop     
8acb 10d6      djnz    8aa3h
8acd 00        nop     
8ace 10e2      djnz    8ab2h
8ad0 00        nop     
8ad1 101d      djnz    8af0h
8ad3 011097    ld      bc,9710h
8ad6 00        nop     
8ad7 10aa      djnz    8a83h
8ad9 00        nop     
8ada 10be      djnz    8a9ah
8adc 00        nop     
8add 10ca      djnz    8aa9h
8adf 00        nop     
8ae0 10e2      djnz    8ac4h
8ae2 00        nop     
8ae3 102e      djnz    8b13h
8ae5 0110e2    ld      bc,0e210h
8ae8 00        nop     
8ae9 10ca      djnz    8ab5h
8aeb 00        nop     
8aec 10be      djnz    8aach
8aee 00        nop     
8aef 10e2      djnz    8ad3h
8af1 00        nop     
8af2 10fe      djnz    8af2h
8af4 00        nop     
8af5 10e2      djnz    8ad9h
8af7 00        nop     
8af8 10be      djnz    8ab8h
8afa 00        nop     
8afb 10ca      djnz    8ac7h
8afd 00        nop     
8afe 10e2      djnz    8ae2h
8b00 00        nop     
8b01 102e      djnz    8b31h
8b03 011097    ld      bc,9710h
8b06 00        nop     
8b07 1071      djnz    8b7ah
8b09 00        nop     
8b0a 1097      djnz    8aa3h
8b0c 00        nop     
8b0d 108f      djnz    8a9eh
8b0f 00        nop     
8b10 1097      djnz    8aa9h
8b12 00        nop     
8b13 08        ex      af,af'
8b14 aa        xor     d
8b15 00        nop     
8b16 08        ex      af,af'
8b17 be        cp      (hl)
8b18 00        nop     
8b19 08        ex      af,af'
8b1a ca0008    jp      z,0800h
8b1d e20008    jp      po,0800h
8b20 fe00      cp      00h
8b22 08        ex      af,af'
8b23 1d        dec     e
8b24 01082e    ld      bc,2e08h
8b27 0108fe    ld      bc,0fe08h
8b2a 00        nop     
8b2b 10e2      djnz    8b0fh
8b2d 00        nop     
8b2e 10ca      djnz    8afah
8b30 00        nop     
8b31 10fe      djnz    8b31h
8b33 00        nop     
8b34 10aa      djnz    8ae0h
8b36 00        nop     
8b37 10be      djnz    8af7h
8b39 00        nop     
8b3a 10ca      djnz    8b06h
8b3c 00        nop     
8b3d 10fe      djnz    8b3dh
8b3f 00        nop     
8b40 10e2      djnz    8b24h
8b42 00        nop     
8b43 1000      djnz    8b45h
8b45 00        nop     
8b46 f40508    call    p,0805h
8b49 f40508    call    p,0805h
8b4c f40508    call    p,0805h
8b4f f40508    call    p,0805h
8b52 fa0208    jp      m,0802h
8b55 fa0208    jp      m,0802h
8b58 fa0208    jp      m,0802h
8b5b f40510    call    p,1005h
8b5e f40508    call    p,0805h
8b61 f40508    call    p,0805h
8b64 f40508    call    p,0805h
8b67 f9        ld      sp,hl
8b68 03        inc     bc
8b69 08        ex      af,af'
8b6a fa0208    jp      m,0802h
8b6d fa0208    jp      m,0802h
8b70 fa0208    jp      m,0802h
8b73 f40508    call    p,0805h
8b76 f40508    call    p,0805h
8b79 f40508    call    p,0805h
8b7c f40508    call    p,0805h
8b7f fa0208    jp      m,0802h
8b82 fa0208    jp      m,0802h
8b85 fa0208    jp      m,0802h
8b88 f40510    call    p,1005h
8b8b f40508    call    p,0805h
8b8e f40508    call    p,0805h
8b91 f40508    call    p,0805h
8b94 f9        ld      sp,hl
8b95 03        inc     bc
8b96 08        ex      af,af'
8b97 fa0208    jp      m,0802h
8b9a fa0208    jp      m,0802h
8b9d fa0208    jp      m,0802h
8ba0 75        ld      (hl),l
8ba1 04        inc     b
8ba2 08        ex      af,af'
8ba3 75        ld      (hl),l
8ba4 04        inc     b
8ba5 08        ex      af,af'
8ba6 75        ld      (hl),l
8ba7 04        inc     b
8ba8 08        ex      af,af'
8ba9 75        ld      (hl),l
8baa 04        inc     b
8bab 08        ex      af,af'
8bac 3b        dec     sp
8bad 02        ld      (bc),a
8bae 08        ex      af,af'
8baf 3b        dec     sp
8bb0 02        ld      (bc),a
8bb1 08        ex      af,af'
8bb2 3b        dec     sp
8bb3 02        ld      (bc),a
8bb4 08        ex      af,af'
8bb5 75        ld      (hl),l
8bb6 04        inc     b
8bb7 1075      djnz    8c2eh
8bb9 04        inc     b
8bba 08        ex      af,af'
8bbb 75        ld      (hl),l
8bbc 04        inc     b
8bbd 08        ex      af,af'
8bbe 75        ld      (hl),l
8bbf 04        inc     b
8bc0 08        ex      af,af'
8bc1 fa0208    jp      m,0802h
8bc4 3b        dec     sp
8bc5 02        ld      (bc),a
8bc6 08        ex      af,af'
8bc7 3b        dec     sp
8bc8 02        ld      (bc),a
8bc9 08        ex      af,af'
8bca 3b        dec     sp
8bcb 02        ld      (bc),a
8bcc 08        ex      af,af'
8bcd 75        ld      (hl),l
8bce 04        inc     b
8bcf 08        ex      af,af'
8bd0 75        ld      (hl),l
8bd1 04        inc     b
8bd2 08        ex      af,af'
8bd3 75        ld      (hl),l
8bd4 04        inc     b
8bd5 08        ex      af,af'
8bd6 75        ld      (hl),l
8bd7 04        inc     b
8bd8 08        ex      af,af'
8bd9 3b        dec     sp
8bda 02        ld      (bc),a
8bdb 08        ex      af,af'
8bdc 3b        dec     sp
8bdd 02        ld      (bc),a
8bde 08        ex      af,af'
8bdf 3b        dec     sp
8be0 02        ld      (bc),a
8be1 08        ex      af,af'
8be2 75        ld      (hl),l
8be3 04        inc     b
8be4 1075      djnz    8c5bh
8be6 04        inc     b
8be7 08        ex      af,af'
8be8 75        ld      (hl),l
8be9 04        inc     b
8bea 08        ex      af,af'
8beb 75        ld      (hl),l
8bec 04        inc     b
8bed 08        ex      af,af'
8bee fa0208    jp      m,0802h
8bf1 3b        dec     sp
8bf2 02        ld      (bc),a
8bf3 08        ex      af,af'
8bf4 3b        dec     sp
8bf5 02        ld      (bc),a
8bf6 08        ex      af,af'
8bf7 3b        dec     sp
8bf8 02        ld      (bc),a
8bf9 08        ex      af,af'
8bfa f40508    call    p,0805h
8bfd f40508    call    p,0805h
8c00 f40508    call    p,0805h
8c03 f40508    call    p,0805h
8c06 fa0208    jp      m,0802h
8c09 fa0208    jp      m,0802h
8c0c fa0208    jp      m,0802h
8c0f f40510    call    p,1005h
8c12 f40508    call    p,0805h
8c15 f40508    call    p,0805h
8c18 f40508    call    p,0805h
8c1b f9        ld      sp,hl
8c1c 03        inc     bc
8c1d 08        ex      af,af'
8c1e fa0208    jp      m,0802h
8c21 fa0208    jp      m,0802h
8c24 fa0208    jp      m,0802h
8c27 f40508    call    p,0805h
8c2a f40508    call    p,0805h
8c2d f40508    call    p,0805h
8c30 f40508    call    p,0805h
8c33 fa0208    jp      m,0802h
8c36 fa0208    jp      m,0802h
8c39 fa0208    jp      m,0802h
8c3c f40510    call    p,1005h
8c3f f40508    call    p,0805h
8c42 f40508    call    p,0805h
8c45 f40508    call    p,0805h
8c48 f9        ld      sp,hl
8c49 03        inc     bc
8c4a 08        ex      af,af'
8c4b fa0208    jp      m,0802h
8c4e fa0208    jp      m,0802h
8c51 fa0208    jp      m,0802h
8c54 75        ld      (hl),l
8c55 04        inc     b
8c56 08        ex      af,af'
8c57 75        ld      (hl),l
8c58 04        inc     b
8c59 08        ex      af,af'
8c5a 75        ld      (hl),l
8c5b 04        inc     b
8c5c 08        ex      af,af'
8c5d 75        ld      (hl),l
8c5e 04        inc     b
8c5f 08        ex      af,af'
8c60 3b        dec     sp
8c61 02        ld      (bc),a
8c62 08        ex      af,af'
8c63 3b        dec     sp
8c64 02        ld      (bc),a
8c65 08        ex      af,af'
8c66 3b        dec     sp
8c67 02        ld      (bc),a
8c68 08        ex      af,af'
8c69 75        ld      (hl),l
8c6a 04        inc     b
8c6b 1075      djnz    8ce2h
8c6d 04        inc     b
8c6e 08        ex      af,af'
8c6f 75        ld      (hl),l
8c70 04        inc     b
8c71 08        ex      af,af'
8c72 75        ld      (hl),l
8c73 04        inc     b
8c74 08        ex      af,af'
8c75 fa0208    jp      m,0802h
8c78 3b        dec     sp
8c79 02        ld      (bc),a
8c7a 08        ex      af,af'
8c7b 3b        dec     sp
8c7c 02        ld      (bc),a
8c7d 08        ex      af,af'
8c7e 3b        dec     sp
8c7f 02        ld      (bc),a
8c80 08        ex      af,af'
8c81 75        ld      (hl),l
8c82 04        inc     b
8c83 08        ex      af,af'
8c84 75        ld      (hl),l
8c85 04        inc     b
8c86 08        ex      af,af'
8c87 75        ld      (hl),l
8c88 04        inc     b
8c89 08        ex      af,af'
8c8a 75        ld      (hl),l
8c8b 04        inc     b
8c8c 08        ex      af,af'
8c8d 3b        dec     sp
8c8e 02        ld      (bc),a
8c8f 08        ex      af,af'
8c90 3b        dec     sp
8c91 02        ld      (bc),a
8c92 08        ex      af,af'
8c93 3b        dec     sp
8c94 02        ld      (bc),a
8c95 08        ex      af,af'
8c96 75        ld      (hl),l
8c97 04        inc     b
8c98 1075      djnz    8d0fh
8c9a 04        inc     b
8c9b 08        ex      af,af'
8c9c 75        ld      (hl),l
8c9d 04        inc     b
8c9e 08        ex      af,af'
8c9f 75        ld      (hl),l
8ca0 04        inc     b
8ca1 08        ex      af,af'
8ca2 fa0208    jp      m,0802h
8ca5 3b        dec     sp
8ca6 02        ld      (bc),a
8ca7 08        ex      af,af'
8ca8 3b        dec     sp
8ca9 02        ld      (bc),a
8caa 08        ex      af,af'
8cab 3b        dec     sp
8cac 02        ld      (bc),a
8cad 08        ex      af,af'
8cae f40520    call    p,2005h
8cb1 00        nop     
8cb2 00        nop     
8cb3 2e01      ld      l,01h
8cb5 08        ex      af,af'
8cb6 fe00      cp      00h
8cb8 08        ex      af,af'
8cb9 fe00      cp      00h
8cbb 08        ex      af,af'
8cbc 2e01      ld      l,01h
8cbe 08        ex      af,af'
8cbf fe00      cp      00h
8cc1 08        ex      af,af'
8cc2 fe00      cp      00h
8cc4 08        ex      af,af'
8cc5 e20008    jp      po,0800h
8cc8 fe00      cp      00h
8cca 08        ex      af,af'
8ccb 2e01      ld      l,01h
8ccd 08        ex      af,af'
8cce fe00      cp      00h
8cd0 08        ex      af,af'
8cd1 fe00      cp      00h
8cd3 08        ex      af,af'
8cd4 2e01      ld      l,01h
8cd6 08        ex      af,af'
8cd7 fe00      cp      00h
8cd9 08        ex      af,af'
8cda fe00      cp      00h
8cdc 08        ex      af,af'
8cdd e20008    jp      po,0800h
8ce0 fe00      cp      00h
8ce2 08        ex      af,af'
8ce3 2e01      ld      l,01h
8ce5 08        ex      af,af'
8ce6 fe00      cp      00h
8ce8 08        ex      af,af'
8ce9 fe00      cp      00h
8ceb 08        ex      af,af'
8cec 2e01      ld      l,01h
8cee 08        ex      af,af'
8cef e20008    jp      po,0800h
8cf2 fe00      cp      00h
8cf4 08        ex      af,af'
8cf5 be        cp      (hl)
8cf6 00        nop     
8cf7 08        ex      af,af'
8cf8 fe00      cp      00h
8cfa 08        ex      af,af'
8cfb be        cp      (hl)
8cfc 00        nop     
8cfd 08        ex      af,af'
8cfe fe00      cp      00h
8d00 08        ex      af,af'
8d01 2e01      ld      l,01h
8d03 08        ex      af,af'
8d04 53        ld      d,e
8d05 01082e    ld      bc,2e08h
8d08 010853    ld      bc,5308h
8d0b 01082e    ld      bc,2e08h
8d0e 0108fe    ld      bc,0fe08h
8d11 00        nop     
8d12 08        ex      af,af'
8d13 e20008    jp      po,0800h
8d16 be        cp      (hl)
8d17 00        nop     
8d18 08        ex      af,af'
8d19 be        cp      (hl)
8d1a 00        nop     
8d1b 08        ex      af,af'
8d1c e20008    jp      po,0800h
8d1f be        cp      (hl)
8d20 00        nop     
8d21 08        ex      af,af'
8d22 be        cp      (hl)
8d23 00        nop     
8d24 08        ex      af,af'
8d25 aa        xor     d
8d26 00        nop     
8d27 08        ex      af,af'
8d28 be        cp      (hl)
8d29 00        nop     
8d2a 08        ex      af,af'
8d2b e20008    jp      po,0800h
8d2e be        cp      (hl)
8d2f 00        nop     
8d30 08        ex      af,af'
8d31 be        cp      (hl)
8d32 00        nop     
8d33 08        ex      af,af'
8d34 e20008    jp      po,0800h
8d37 be        cp      (hl)
8d38 00        nop     
8d39 08        ex      af,af'
8d3a be        cp      (hl)
8d3b 00        nop     
8d3c 08        ex      af,af'
8d3d aa        xor     d
8d3e 00        nop     
8d3f 08        ex      af,af'
8d40 be        cp      (hl)
8d41 00        nop     
8d42 08        ex      af,af'
8d43 e20008    jp      po,0800h
8d46 be        cp      (hl)
8d47 00        nop     
8d48 08        ex      af,af'
8d49 be        cp      (hl)
8d4a 00        nop     
8d4b 08        ex      af,af'
8d4c e20008    jp      po,0800h
8d4f aa        xor     d
8d50 00        nop     
8d51 08        ex      af,af'
8d52 be        cp      (hl)
8d53 00        nop     
8d54 08        ex      af,af'
8d55 8f        adc     a,a
8d56 00        nop     
8d57 08        ex      af,af'
8d58 be        cp      (hl)
8d59 00        nop     
8d5a 08        ex      af,af'
8d5b 8f        adc     a,a
8d5c 00        nop     
8d5d 08        ex      af,af'
8d5e be        cp      (hl)
8d5f 00        nop     
8d60 08        ex      af,af'
8d61 e20008    jp      po,0800h
8d64 fe00      cp      00h
8d66 08        ex      af,af'
8d67 e20008    jp      po,0800h
8d6a fe00      cp      00h
8d6c 08        ex      af,af'
8d6d e20008    jp      po,0800h
8d70 be        cp      (hl)
8d71 00        nop     
8d72 08        ex      af,af'
8d73 2e01      ld      l,01h
8d75 08        ex      af,af'
8d76 fe00      cp      00h
8d78 08        ex      af,af'
8d79 fe00      cp      00h
8d7b 08        ex      af,af'
8d7c 2e01      ld      l,01h
8d7e 08        ex      af,af'
8d7f fe00      cp      00h
8d81 08        ex      af,af'
8d82 fe00      cp      00h
8d84 08        ex      af,af'
8d85 e20008    jp      po,0800h
8d88 fe00      cp      00h
8d8a 08        ex      af,af'
8d8b 2e01      ld      l,01h
8d8d 08        ex      af,af'
8d8e fe00      cp      00h
8d90 08        ex      af,af'
8d91 fe00      cp      00h
8d93 08        ex      af,af'
8d94 2e01      ld      l,01h
8d96 08        ex      af,af'
8d97 fe00      cp      00h
8d99 08        ex      af,af'
8d9a fe00      cp      00h
8d9c 08        ex      af,af'
8d9d e20008    jp      po,0800h
8da0 fe00      cp      00h
8da2 08        ex      af,af'
8da3 2e01      ld      l,01h
8da5 08        ex      af,af'
8da6 fe00      cp      00h
8da8 08        ex      af,af'
8da9 fe00      cp      00h
8dab 08        ex      af,af'
8dac 2e01      ld      l,01h
8dae 08        ex      af,af'
8daf e20008    jp      po,0800h
8db2 fe00      cp      00h
8db4 08        ex      af,af'
8db5 be        cp      (hl)
8db6 00        nop     
8db7 08        ex      af,af'
8db8 fe00      cp      00h
8dba 08        ex      af,af'
8dbb be        cp      (hl)
8dbc 00        nop     
8dbd 08        ex      af,af'
8dbe fe00      cp      00h
8dc0 08        ex      af,af'
8dc1 2e01      ld      l,01h
8dc3 08        ex      af,af'
8dc4 53        ld      d,e
8dc5 01082e    ld      bc,2e08h
8dc8 010853    ld      bc,5308h
8dcb 01082e    ld      bc,2e08h
8dce 0108fe    ld      bc,0fe08h
8dd1 00        nop     
8dd2 08        ex      af,af'
8dd3 c5        push    bc
8dd4 01087d    ld      bc,7d08h
8dd7 01087d    ld      bc,7d08h
8dda 0108c5    ld      bc,0c508h
8ddd 01087d    ld      bc,7d08h
8de0 01087d    ld      bc,7d08h
8de3 010853    ld      bc,5308h
8de6 01087d    ld      bc,7d08h
8de9 0108c5    ld      bc,0c508h
8dec 01087d    ld      bc,7d08h
8def 01087d    ld      bc,7d08h
8df2 0108c5    ld      bc,0c508h
8df5 01087d    ld      bc,7d08h
8df8 01087d    ld      bc,7d08h
8dfb 010853    ld      bc,5308h
8dfe 01087d    ld      bc,7d08h
8e01 0108c5    ld      bc,0c508h
8e04 01087d    ld      bc,7d08h
8e07 01087d    ld      bc,7d08h
8e0a 0108c5    ld      bc,0c508h
8e0d 010853    ld      bc,5308h
8e10 01087d    ld      bc,7d08h
8e13 01081d    ld      bc,1d08h
8e16 01087d    ld      bc,7d08h
8e19 01081d    ld      bc,1d08h
8e1c 01087d    ld      bc,7d08h
8e1f 0108c5    ld      bc,0c508h
8e22 0108fc    ld      bc,0fc08h
8e25 0108c5    ld      bc,0c508h
8e28 0108fc    ld      bc,0fc08h
8e2b 0108c5    ld      bc,0c508h
8e2e 01087d    ld      bc,7d08h
8e31 01082e    ld      bc,2e08h
8e34 012000    ld      bc,0020h
8e37 00        nop     
8e38 5d        ld      e,l
8e39 02        ld      (bc),a
8e3a 10fc      djnz    8e38h
8e3c 01107d    ld      bc,7d10h
8e3f 0110fa    ld      bc,0fa10h
8e42 02        ld      (bc),a
8e43 08        ex      af,af'
8e44 5d        ld      e,l
8e45 02        ld      (bc),a
8e46 105d      djnz    8ea5h
8e48 02        ld      (bc),a
8e49 08        ex      af,af'
8e4a fc0110    call    m,1001h
8e4d 7d        ld      a,l
8e4e 0110fa    ld      bc,0fa10h
8e51 02        ld      (bc),a
8e52 105d      djnz    8eb1h
8e54 02        ld      (bc),a
8e55 10fc      djnz    8e53h
8e57 01107d    ld      bc,7d10h
8e5a 0110fa    ld      bc,0fa10h
8e5d 02        ld      (bc),a
8e5e 08        ex      af,af'
8e5f 5d        ld      e,l
8e60 02        ld      (bc),a
8e61 105d      djnz    8ec0h
8e63 02        ld      (bc),a
8e64 08        ex      af,af'
8e65 fc0110    call    m,1001h
8e68 7d        ld      a,l
8e69 0110fa    ld      bc,0fa10h
8e6c 02        ld      (bc),a
8e6d 10c5      djnz    8e34h
8e6f 01107d    ld      bc,7d10h
8e72 01101d    ld      bc,1d10h
8e75 01103b    ld      bc,3b10h
8e78 02        ld      (bc),a
8e79 08        ex      af,af'
8e7a c5        push    bc
8e7b 0110c5    ld      bc,0c510h
8e7e 01087d    ld      bc,7d08h
8e81 01101d    ld      bc,1d10h
8e84 01103b    ld      bc,3b10h
8e87 02        ld      (bc),a
8e88 10c5      djnz    8e4fh
8e8a 01107d    ld      bc,7d10h
8e8d 01101d    ld      bc,1d10h
8e90 01103b    ld      bc,3b10h
8e93 02        ld      (bc),a
8e94 08        ex      af,af'
8e95 c5        push    bc
8e96 0110c5    ld      bc,0c510h
8e99 01087d    ld      bc,7d08h
8e9c 01101d    ld      bc,1d10h
8e9f 01103b    ld      bc,3b10h
8ea2 02        ld      (bc),a
8ea3 105d      djnz    8f02h
8ea5 02        ld      (bc),a
8ea6 10fc      djnz    8ea4h
8ea8 01107d    ld      bc,7d10h
8eab 0110fa    ld      bc,0fa10h
8eae 02        ld      (bc),a
8eaf 08        ex      af,af'
8eb0 5d        ld      e,l
8eb1 02        ld      (bc),a
8eb2 105d      djnz    8f11h
8eb4 02        ld      (bc),a
8eb5 08        ex      af,af'
8eb6 fc0110    call    m,1001h
8eb9 7d        ld      a,l
8eba 0110fa    ld      bc,0fa10h
8ebd 02        ld      (bc),a
8ebe 105d      djnz    8f1dh
8ec0 02        ld      (bc),a
8ec1 10fc      djnz    8ebfh
8ec3 01107d    ld      bc,7d10h
8ec6 0110fa    ld      bc,0fa10h
8ec9 02        ld      (bc),a
8eca 08        ex      af,af'
8ecb 5d        ld      e,l
8ecc 02        ld      (bc),a
8ecd 105d      djnz    8f2ch
8ecf 02        ld      (bc),a
8ed0 08        ex      af,af'
8ed1 fc0110    call    m,1001h
8ed4 7d        ld      a,l
8ed5 0110fa    ld      bc,0fa10h
8ed8 02        ld      (bc),a
8ed9 10c5      djnz    8ea0h
8edb 01107d    ld      bc,7d10h
8ede 01101d    ld      bc,1d10h
8ee1 01103b    ld      bc,3b10h
8ee4 02        ld      (bc),a
8ee5 08        ex      af,af'
8ee6 c5        push    bc
8ee7 0110c5    ld      bc,0c510h
8eea 01087d    ld      bc,7d08h
8eed 01101d    ld      bc,1d10h
8ef0 01103b    ld      bc,3b10h
8ef3 02        ld      (bc),a
8ef4 10c5      djnz    8ebbh
8ef6 01107d    ld      bc,7d10h
8ef9 01101d    ld      bc,1d10h
8efc 01103b    ld      bc,3b10h
8eff 02        ld      (bc),a
8f00 08        ex      af,af'
8f01 c5        push    bc
8f02 0110c5    ld      bc,0c510h
8f05 01087d    ld      bc,7d08h
8f08 01101d    ld      bc,1d10h
8f0b 01103b    ld      bc,3b10h
8f0e 02        ld      (bc),a
8f0f 105d      djnz    8f6eh
8f11 02        ld      (bc),a
8f12 2000      jr      nz,8f14h
8f14 00        nop     
8f15 fa020c    jp      m,0c02h
8f18 fa0206    jp      m,0602h
8f1b 3b        dec     sp
8f1c 02        ld      (bc),a
8f1d 06c5      ld      b,0c5h
8f1f 010cc5    ld      bc,0c50ch
8f22 01063b    ld      bc,3b06h
8f25 02        ld      (bc),a
8f26 06fa      ld      b,0fah
8f28 02        ld      (bc),a
8f29 0c        inc     c
8f2a fa0206    jp      m,0602h
8f2d fa0206    jp      m,0602h
8f30 57        ld      d,a
8f31 03        inc     bc
8f32 0c        inc     c
8f33 fa0206    jp      m,0602h
8f36 fa0206    jp      m,0602h
8f39 57        ld      d,a
8f3a 03        inc     bc
8f3b 0c        inc     c
8f3c 57        ld      d,a
8f3d 03        inc     bc
8f3e 0681      ld      b,81h
8f40 02        ld      (bc),a
8f41 06fc      ld      b,0fch
8f43 010cfc    ld      bc,0fc0ch
8f46 010681    ld      bc,8106h
8f49 02        ld      (bc),a
8f4a 0657      ld      b,57h
8f4c 03        inc     bc
8f4d 0c        inc     c
8f4e 57        ld      d,a
8f4f 03        inc     bc
8f50 0657      ld      b,57h
8f52 03        inc     bc
8f53 06c0      ld      b,0c0h
8f55 03        inc     bc
8f56 0c        inc     c
8f57 57        ld      d,a
8f58 03        inc     bc
8f59 0657      ld      b,57h
8f5b 03        inc     bc
8f5c 06fa      ld      b,0fah
8f5e 02        ld      (bc),a
8f5f 0c        inc     c
8f60 fa0206    jp      m,0602h
8f63 3b        dec     sp
8f64 02        ld      (bc),a
8f65 06c5      ld      b,0c5h
8f67 010cc5    ld      bc,0c50ch
8f6a 01063b    ld      bc,3b06h
8f6d 02        ld      (bc),a
8f6e 06fa      ld      b,0fah
8f70 02        ld      (bc),a
8f71 0c        inc     c
8f72 fa0206    jp      m,0602h
8f75 fa0206    jp      m,0602h
8f78 57        ld      d,a
8f79 03        inc     bc
8f7a 0c        inc     c
8f7b fa0206    jp      m,0602h
8f7e fa0206    jp      m,0602h
8f81 57        ld      d,a
8f82 03        inc     bc
8f83 0c        inc     c
8f84 57        ld      d,a
8f85 03        inc     bc
8f86 0681      ld      b,81h
8f88 02        ld      (bc),a
8f89 06fc      ld      b,0fch
8f8b 010cfc    ld      bc,0fc0ch
8f8e 010681    ld      bc,8106h
8f91 02        ld      (bc),a
8f92 0657      ld      b,57h
8f94 03        inc     bc
8f95 0c        inc     c
8f96 57        ld      d,a
8f97 03        inc     bc
8f98 0657      ld      b,57h
8f9a 03        inc     bc
8f9b 06c0      ld      b,0c0h
8f9d 03        inc     bc
8f9e 0c        inc     c
8f9f 57        ld      d,a
8fa0 03        inc     bc
8fa1 0657      ld      b,57h
8fa3 03        inc     bc
8fa4 06fa      ld      b,0fah
8fa6 02        ld      (bc),a
8fa7 0c        inc     c
8fa8 fa0206    jp      m,0602h
8fab 3b        dec     sp
8fac 02        ld      (bc),a
8fad 06c5      ld      b,0c5h
8faf 010cc5    ld      bc,0c50ch
8fb2 01063b    ld      bc,3b06h
8fb5 02        ld      (bc),a
8fb6 0600      ld      b,00h
8fb8 00        nop     
8fb9 3b        dec     sp
8fba 02        ld      (bc),a
8fbb 061d      ld      b,1dh
8fbd 01063b    ld      bc,3b06h
8fc0 02        ld      (bc),a
8fc1 0681      ld      b,81h
8fc3 02        ld      (bc),a
8fc4 063b      ld      b,3bh
8fc6 02        ld      (bc),a
8fc7 063b      ld      b,3bh
8fc9 02        ld      (bc),a
8fca 063b      ld      b,3bh
8fcc 02        ld      (bc),a
8fcd 0c        inc     c
8fce fa0206    jp      m,0602h
8fd1 7d        ld      a,l
8fd2 0106fa    ld      bc,0fa06h
8fd5 02        ld      (bc),a
8fd6 0657      ld      b,57h
8fd8 03        inc     bc
8fd9 06fa      ld      b,0fah
8fdb 02        ld      (bc),a
8fdc 06fa      ld      b,0fah
8fde 02        ld      (bc),a
8fdf 06fa      ld      b,0fah
8fe1 02        ld      (bc),a
8fe2 0681      ld      b,81h
8fe4 02        ld      (bc),a
8fe5 0c        inc     c
8fe6 40        ld      b,b
8fe7 010681    ld      bc,8106h
8fea 02        ld      (bc),a
8feb 06cf      ld      b,0cfh
8fed 02        ld      (bc),a
8fee 0681      ld      b,81h
8ff0 02        ld      (bc),a
8ff1 0681      ld      b,81h
8ff3 02        ld      (bc),a
8ff4 0681      ld      b,81h
8ff6 02        ld      (bc),a
8ff7 0c        inc     c
8ff8 57        ld      d,a
8ff9 03        inc     bc
8ffa 06ac      ld      b,0ach
8ffc 010657    ld      bc,5706h
8fff 03        inc     bc
9000 06e0      ld      b,0e0h
9002 010657    ld      bc,5706h
9005 03        inc     bc
9006 0657      ld      b,57h
9008 03        inc     bc
9009 0657      ld      b,57h
900b 03        inc     bc
900c 0681      ld      b,81h
900e 02        ld      (bc),a
900f 063b      ld      b,3bh
9011 02        ld      (bc),a
9012 061d      ld      b,1dh
9014 01063b    ld      bc,3b06h
9017 02        ld      (bc),a
9018 0681      ld      b,81h
901a 02        ld      (bc),a
901b 063b      ld      b,3bh
901d 02        ld      (bc),a
901e 063b      ld      b,3bh
9020 02        ld      (bc),a
9021 063b      ld      b,3bh
9023 02        ld      (bc),a
9024 0c        inc     c
9025 fa0206    jp      m,0602h
9028 7d        ld      a,l
9029 0106fa    ld      bc,0fa06h
902c 02        ld      (bc),a
902d 0657      ld      b,57h
902f 03        inc     bc
9030 06fa      ld      b,0fah
9032 02        ld      (bc),a
9033 06fa      ld      b,0fah
9035 02        ld      (bc),a
9036 06fa      ld      b,0fah
9038 02        ld      (bc),a
9039 0681      ld      b,81h
903b 02        ld      (bc),a
903c 0c        inc     c
903d 40        ld      b,b
903e 010681    ld      bc,8106h
9041 02        ld      (bc),a
9042 06cf      ld      b,0cfh
9044 02        ld      (bc),a
9045 0681      ld      b,81h
9047 02        ld      (bc),a
9048 0681      ld      b,81h
904a 02        ld      (bc),a
904b 0681      ld      b,81h
904d 02        ld      (bc),a
904e 0c        inc     c
904f 57        ld      d,a
9050 03        inc     bc
9051 06ac      ld      b,0ach
9053 010657    ld      bc,5706h
9056 03        inc     bc
9057 06e0      ld      b,0e0h
9059 010657    ld      bc,5706h
905c 03        inc     bc
905d 0657      ld      b,57h
905f 03        inc     bc
9060 0657      ld      b,57h
9062 03        inc     bc
9063 0681      ld      b,81h
9065 02        ld      (bc),a
9066 063b      ld      b,3bh
9068 02        ld      (bc),a
9069 061d      ld      b,1dh
906b 01063b    ld      bc,3b06h
906e 02        ld      (bc),a
906f 0681      ld      b,81h
9071 02        ld      (bc),a
9072 063b      ld      b,3bh
9074 02        ld      (bc),a
9075 063b      ld      b,3bh
9077 02        ld      (bc),a
9078 063b      ld      b,3bh
907a 02        ld      (bc),a
907b 0c        inc     c
907c 00        nop     
907d 00        nop     
907e e20018    jp      po,1800h
9081 e20018    jp      po,1800h
9084 ff        rst     38h
9085 ff        rst     38h
9086 0c        inc     c
9087 e2000c    jp      po,0c00h
908a d600      sub     00h
908c 0c        inc     c
908d be        cp      (hl)
908e 00        nop     
908f 0c        inc     c
9090 d600      sub     00h
9092 0c        inc     c
9093 e2000c    jp      po,0c00h
9096 fe00      cp      00h
9098 0c        inc     c
9099 1d        dec     e
909a 01181d    ld      bc,1d18h
909d 010cfe    ld      bc,0fe0ch
90a0 00        nop     
90a1 0c        inc     c
90a2 1d        dec     e
90a3 010ce2    ld      bc,0e20ch
90a6 00        nop     
90a7 18e2      jr      908bh
90a9 00        nop     
90aa 18ff      jr      90abh
90ac ff        rst     38h
90ad 0c        inc     c
90ae e2000c    jp      po,0c00h
90b1 d600      sub     00h
90b3 0c        inc     c
90b4 be        cp      (hl)
90b5 00        nop     
90b6 0c        inc     c
90b7 d600      sub     00h
90b9 0c        inc     c
90ba e2000c    jp      po,0c00h
90bd fe00      cp      00h
90bf 0c        inc     c
90c0 1d        dec     e
90c1 01181d    ld      bc,1d18h
90c4 010cfe    ld      bc,0fe0ch
90c7 00        nop     
90c8 0c        inc     c
90c9 1d        dec     e
90ca 010ce2    ld      bc,0e20ch
90cd 00        nop     
90ce 18e2      jr      90b2h
90d0 00        nop     
90d1 1800      jr      90d3h
90d3 00        nop     
90d4 c0        ret     nz

90d5 03        inc     bc
90d6 06c0      ld      b,0c0h
90d8 03        inc     bc
90d9 06c0      ld      b,0c0h
90db 03        inc     bc
90dc 06c0      ld      b,0c0h
90de 03        inc     bc
90df 06c0      ld      b,0c0h
90e1 03        inc     bc
90e2 06c0      ld      b,0c0h
90e4 03        inc     bc
90e5 06c0      ld      b,0c0h
90e7 03        inc     bc
90e8 06c0      ld      b,0c0h
90ea 03        inc     bc
90eb 0657      ld      b,57h
90ed 03        inc     bc
90ee 0657      ld      b,57h
90f0 03        inc     bc
90f1 0657      ld      b,57h
90f3 03        inc     bc
90f4 0657      ld      b,57h
90f6 03        inc     bc
90f7 0657      ld      b,57h
90f9 03        inc     bc
90fa 0657      ld      b,57h
90fc 03        inc     bc
90fd 0657      ld      b,57h
90ff 03        inc     bc
9100 0657      ld      b,57h
9102 03        inc     bc
9103 069e      ld      b,9eh
9105 05        dec     b
9106 069e      ld      b,9eh
9108 05        dec     b
9109 069e      ld      b,9eh
910b 05        dec     b
910c 069e      ld      b,9eh
910e 05        dec     b
910f 069e      ld      b,9eh
9111 05        dec     b
9112 069e      ld      b,9eh
9114 05        dec     b
9115 069e      ld      b,9eh
9117 05        dec     b
9118 069e      ld      b,9eh
911a 05        dec     b
911b 0601      ld      b,01h
911d 05        dec     b
911e 0601      ld      b,01h
9120 05        dec     b
9121 0601      ld      b,01h
9123 05        dec     b
9124 0601      ld      b,01h
9126 05        dec     b
9127 0601      ld      b,01h
9129 05        dec     b
912a 0601      ld      b,01h
912c 05        dec     b
912d 0601      ld      b,01h
912f 05        dec     b
9130 0601      ld      b,01h
9132 05        dec     b
9133 06c0      ld      b,0c0h
9135 03        inc     bc
9136 06c0      ld      b,0c0h
9138 03        inc     bc
9139 06c0      ld      b,0c0h
913b 03        inc     bc
913c 06c0      ld      b,0c0h
913e 03        inc     bc
913f 06c0      ld      b,0c0h
9141 03        inc     bc
9142 06c0      ld      b,0c0h
9144 03        inc     bc
9145 06c0      ld      b,0c0h
9147 03        inc     bc
9148 06c0      ld      b,0c0h
914a 03        inc     bc
914b 0657      ld      b,57h
914d 03        inc     bc
914e 0657      ld      b,57h
9150 03        inc     bc
9151 0657      ld      b,57h
9153 03        inc     bc
9154 0657      ld      b,57h
9156 03        inc     bc
9157 0657      ld      b,57h
9159 03        inc     bc
915a 0657      ld      b,57h
915c 03        inc     bc
915d 0657      ld      b,57h
915f 03        inc     bc
9160 0657      ld      b,57h
9162 03        inc     bc
9163 069e      ld      b,9eh
9165 05        dec     b
9166 069e      ld      b,9eh
9168 05        dec     b
9169 069e      ld      b,9eh
916b 05        dec     b
916c 069e      ld      b,9eh
916e 05        dec     b
916f 069e      ld      b,9eh
9171 05        dec     b
9172 069e      ld      b,9eh
9174 05        dec     b
9175 069e      ld      b,9eh
9177 05        dec     b
9178 069e      ld      b,9eh
917a 05        dec     b
917b 0601      ld      b,01h
917d 05        dec     b
917e 0601      ld      b,01h
9180 05        dec     b
9181 0601      ld      b,01h
9183 05        dec     b
9184 0601      ld      b,01h
9186 05        dec     b
9187 0601      ld      b,01h
9189 05        dec     b
918a 0601      ld      b,01h
918c 05        dec     b
918d 0601      ld      b,01h
918f 05        dec     b
9190 0601      ld      b,01h
9192 05        dec     b
9193 06f4      ld      b,0f4h
9195 05        dec     b
9196 0c        inc     c
9197 00        nop     
9198 00        nop     
9199 e0        ret     po

919a 010640    ld      bc,4006h
919d 0106f0    ld      bc,0f006h
91a0 00        nop     
91a1 0640      ld      b,40h
91a3 0106f0    ld      bc,0f006h
91a6 00        nop     
91a7 0640      ld      b,40h
91a9 01067d    ld      bc,7d06h
91ac 0106e0    ld      bc,0e006h
91af 0106ac    ld      bc,0ac06h
91b2 01061d    ld      bc,1d06h
91b5 0106d6    ld      bc,0d606h
91b8 00        nop     
91b9 061d      ld      b,1dh
91bb 0106d6    ld      bc,0d606h
91be 00        nop     
91bf 061d      ld      b,1dh
91c1 010653    ld      bc,5306h
91c4 0106ac    ld      bc,0ac06h
91c7 010668    ld      bc,6806h
91ca 0106f0    ld      bc,0f006h
91cd 00        nop     
91ce 06b4      ld      b,0b4h
91d0 00        nop     
91d1 06f0      ld      b,0f0h
91d3 00        nop     
91d4 06b4      ld      b,0b4h
91d6 00        nop     
91d7 06f0      ld      b,0f0h
91d9 00        nop     
91da 061d      ld      b,1dh
91dc 010668    ld      bc,6806h
91df 010640    ld      bc,4006h
91e2 0106d6    ld      bc,0d606h
91e5 00        nop     
91e6 06a0      ld      b,0a0h
91e8 00        nop     
91e9 06d6      ld      b,0d6h
91eb 00        nop     
91ec 06a0      ld      b,0a0h
91ee 00        nop     
91ef 06d6      ld      b,0d6h
91f1 00        nop     
91f2 06fe      ld      b,0feh
91f4 00        nop     
91f5 0640      ld      b,40h
91f7 0106e0    ld      bc,0e006h
91fa 010640    ld      bc,4006h
91fd 0106f0    ld      bc,0f006h
9200 00        nop     
9201 0640      ld      b,40h
9203 0106f0    ld      bc,0f006h
9206 00        nop     
9207 0640      ld      b,40h
9209 01067d    ld      bc,7d06h
920c 0106e0    ld      bc,0e006h
920f 0106ac    ld      bc,0ac06h
9212 01061d    ld      bc,1d06h
9215 0106d6    ld      bc,0d606h
9218 00        nop     
9219 061d      ld      b,1dh
921b 0106d6    ld      bc,0d606h
921e 00        nop     
921f 061d      ld      b,1dh
9221 010653    ld      bc,5306h
9224 0106ac    ld      bc,0ac06h
9227 010668    ld      bc,6806h
922a 0106f0    ld      bc,0f006h
922d 00        nop     
922e 06b4      ld      b,0b4h
9230 00        nop     
9231 06f0      ld      b,0f0h
9233 00        nop     
9234 06b4      ld      b,0b4h
9236 00        nop     
9237 06f0      ld      b,0f0h
9239 00        nop     
923a 061d      ld      b,1dh
923c 010668    ld      bc,6806h
923f 010640    ld      bc,4006h
9242 0106d6    ld      bc,0d606h
9245 00        nop     
9246 06a0      ld      b,0a0h
9248 00        nop     
9249 06d6      ld      b,0d6h
924b 00        nop     
924c 06a0      ld      b,0a0h
924e 00        nop     
924f 06d6      ld      b,0d6h
9251 00        nop     
9252 06fe      ld      b,0feh
9254 00        nop     
9255 0640      ld      b,40h
9257 01067d    ld      bc,7d06h
925a 010c00    ld      bc,000ch
925d 00        nop     
925e c0        ret     nz

925f 03        inc     bc
9260 0c        inc     c
9261 81        add     a,c
9262 02        ld      (bc),a
9263 0c        inc     c
9264 e0        ret     po

9265 010c81    ld      bc,810ch
9268 02        ld      (bc),a
9269 0c        inc     c
926a 57        ld      d,a
926b 03        inc     bc
926c 0c        inc     c
926d 3b        dec     sp
926e 02        ld      (bc),a
926f 0c        inc     c
9270 ac        xor     h
9271 010c3b    ld      bc,3b0ch
9274 02        ld      (bc),a
9275 0c        inc     c
9276 cf        rst     08h
9277 02        ld      (bc),a
9278 0c        inc     c
9279 e0        ret     po

927a 010c68    ld      bc,680ch
927d 010ce0    ld      bc,0e00ch
9280 010c81    ld      bc,810ch
9283 02        ld      (bc),a
9284 0c        inc     c
9285 ac        xor     h
9286 010c40    ld      bc,400ch
9289 010cac    ld      bc,0ac0ch
928c 010cc0    ld      bc,0c00ch
928f 03        inc     bc
9290 0c        inc     c
9291 81        add     a,c
9292 02        ld      (bc),a
9293 0c        inc     c
9294 e0        ret     po

9295 010c81    ld      bc,810ch
9298 02        ld      (bc),a
9299 0c        inc     c
929a 57        ld      d,a
929b 03        inc     bc
929c 0c        inc     c
929d 3b        dec     sp
929e 02        ld      (bc),a
929f 0c        inc     c
92a0 ac        xor     h
92a1 010c3b    ld      bc,3b0ch
92a4 02        ld      (bc),a
92a5 0c        inc     c
92a6 cf        rst     08h
92a7 02        ld      (bc),a
92a8 0c        inc     c
92a9 e0        ret     po

92aa 010c68    ld      bc,680ch
92ad 010ce0    ld      bc,0e00ch
92b0 010c81    ld      bc,810ch
92b3 02        ld      (bc),a
92b4 0c        inc     c
92b5 ac        xor     h
92b6 010c40    ld      bc,400ch
92b9 010cac    ld      bc,0ac0ch
92bc 010cfa    ld      bc,0fa0ch
92bf 02        ld      (bc),a
92c0 0c        inc     c
92c1 00        nop     
92c2 00        nop     
92c3 fc010a    call    m,0a01h
92c6 e0        ret     po

92c7 010ac5    ld      bc,0c50ah
92ca 010a1d    ld      bc,1d0ah
92cd 0114c5    ld      bc,0c514h
92d0 010a1d    ld      bc,1d0ah
92d3 0114c5    ld      bc,0c514h
92d6 010a1d    ld      bc,1d0ah
92d9 013c8f    ld      bc,8f3ch
92dc 00        nop     
92dd 0a        ld      a,(bc)
92de 7f        ld      a,a
92df 00        nop     
92e0 0a        ld      a,(bc)
92e1 78        ld      a,b
92e2 00        nop     
92e3 0a        ld      a,(bc)
92e4 71        ld      (hl),c
92e5 00        nop     
92e6 0a        ld      a,(bc)
92e7 8f        adc     a,a
92e8 00        nop     
92e9 0a        ld      a,(bc)
92ea 7f        ld      a,a
92eb 00        nop     
92ec 0a        ld      a,(bc)
92ed 71        ld      (hl),c
92ee 00        nop     
92ef 14        inc     d
92f0 97        sub     a
92f1 00        nop     
92f2 0a        ld      a,(bc)
92f3 7f        ld      a,a
92f4 00        nop     
92f5 14        inc     d
92f6 8f        adc     a,a
92f7 00        nop     
92f8 3c        inc     a
92f9 fc010a    call    m,0a01h
92fc e0        ret     po

92fd 010ac5    ld      bc,0c50ah
9300 010a1d    ld      bc,1d0ah
9303 0114c5    ld      bc,0c514h
9306 010a1d    ld      bc,1d0ah
9309 0114c5    ld      bc,0c514h
930c 010a1d    ld      bc,1d0ah
930f 0146aa    ld      bc,0aa46h
9312 00        nop     
9313 0a        ld      a,(bc)
9314 be        cp      (hl)
9315 00        nop     
9316 0a        ld      a,(bc)
9317 ca000a    jp      z,0a00h
931a aa        xor     d
931b 00        nop     
931c 0a        ld      a,(bc)
931d 8f        adc     a,a
931e 00        nop     
931f 0a        ld      a,(bc)
9320 71        ld      (hl),c
9321 00        nop     
9322 14        inc     d
9323 7f        ld      a,a
9324 00        nop     
9325 0a        ld      a,(bc)
9326 8f        adc     a,a
9327 00        nop     
9328 0a        ld      a,(bc)
9329 aa        xor     d
932a 00        nop     
932b 0a        ld      a,(bc)
932c 7f        ld      a,a
932d 00        nop     
932e 3c        inc     a
932f fc010a    call    m,0a01h
9332 e0        ret     po

9333 010ac5    ld      bc,0c50ah
9336 010a1d    ld      bc,1d0ah
9339 0114c5    ld      bc,0c514h
933c 010a1d    ld      bc,1d0ah
933f 0114c5    ld      bc,0c514h
9342 010a1d    ld      bc,1d0ah
9345 013c8f    ld      bc,8f3ch
9348 00        nop     
9349 0a        ld      a,(bc)
934a 7f        ld      a,a
934b 00        nop     
934c 0a        ld      a,(bc)
934d 78        ld      a,b
934e 00        nop     
934f 0a        ld      a,(bc)
9350 71        ld      (hl),c
9351 00        nop     
9352 0a        ld      a,(bc)
9353 8f        adc     a,a
9354 00        nop     
9355 0a        ld      a,(bc)
9356 7f        ld      a,a
9357 00        nop     
9358 0a        ld      a,(bc)
9359 71        ld      (hl),c
935a 00        nop     
935b 14        inc     d
935c 97        sub     a
935d 00        nop     
935e 0a        ld      a,(bc)
935f 7f        ld      a,a
9360 00        nop     
9361 14        inc     d
9362 8f        adc     a,a
9363 00        nop     
9364 3c        inc     a
9365 8f        adc     a,a
9366 00        nop     
9367 0a        ld      a,(bc)
9368 7f        ld      a,a
9369 00        nop     
936a 0a        ld      a,(bc)
936b 71        ld      (hl),c
936c 00        nop     
936d 0a        ld      a,(bc)
936e 8f        adc     a,a
936f 00        nop     
9370 0a        ld      a,(bc)
9371 7f        ld      a,a
9372 00        nop     
9373 0a        ld      a,(bc)
9374 71        ld      (hl),c
9375 00        nop     
9376 14        inc     d
9377 8f        adc     a,a
9378 00        nop     
9379 0a        ld      a,(bc)
937a 7f        ld      a,a
937b 00        nop     
937c 0a        ld      a,(bc)
937d 8f        adc     a,a
937e 00        nop     
937f 0a        ld      a,(bc)
9380 71        ld      (hl),c
9381 00        nop     
9382 0a        ld      a,(bc)
9383 8f        adc     a,a
9384 00        nop     
9385 0a        ld      a,(bc)
9386 7f        ld      a,a
9387 00        nop     
9388 0a        ld      a,(bc)
9389 71        ld      (hl),c
938a 00        nop     
938b 14        inc     d
938c 8f        adc     a,a
938d 00        nop     
938e 0a        ld      a,(bc)
938f 7f        ld      a,a
9390 00        nop     
9391 0a        ld      a,(bc)
9392 8f        adc     a,a
9393 00        nop     
9394 0a        ld      a,(bc)
9395 71        ld      (hl),c
9396 00        nop     
9397 0a        ld      a,(bc)
9398 8f        adc     a,a
9399 00        nop     
939a 0a        ld      a,(bc)
939b 7f        ld      a,a
939c 00        nop     
939d 0a        ld      a,(bc)
939e 71        ld      (hl),c
939f 00        nop     
93a0 14        inc     d
93a1 97        sub     a
93a2 00        nop     
93a3 0a        ld      a,(bc)
93a4 7f        ld      a,a
93a5 00        nop     
93a6 14        inc     d
93a7 8f        adc     a,a
93a8 00        nop     
93a9 320000    ld      (0000h),a
93ac fa0214    jp      m,1402h
93af 75        ld      (hl),l
93b0 04        inc     b
93b1 14        inc     d
93b2 3b        dec     sp
93b3 02        ld      (bc),a
93b4 14        inc     d
93b5 f40514    call    p,1405h
93b8 81        add     a,c
93b9 02        ld      (bc),a
93ba 14        inc     d
93bb 57        ld      d,a
93bc 03        inc     bc
93bd 14        inc     d
93be 3b        dec     sp
93bf 02        ld      (bc),a
93c0 14        inc     d
93c1 75        ld      (hl),l
93c2 04        inc     b
93c3 14        inc     d
93c4 fa0214    jp      m,1402h
93c7 75        ld      (hl),l
93c8 04        inc     b
93c9 14        inc     d
93ca 3b        dec     sp
93cb 02        ld      (bc),a
93cc 14        inc     d
93cd fa0214    jp      m,1402h
93d0 fc0114    call    m,1401h
93d3 3b        dec     sp
93d4 02        ld      (bc),a
93d5 14        inc     d
93d6 5d        ld      e,l
93d7 02        ld      (bc),a
93d8 14        inc     d
93d9 a7        and     a
93da 02        ld      (bc),a
93db 14        inc     d
93dc fa0214    jp      m,1402h
93df 75        ld      (hl),l
93e0 04        inc     b
93e1 14        inc     d
93e2 3b        dec     sp
93e3 02        ld      (bc),a
93e4 14        inc     d
93e5 f40514    call    p,1405h
93e8 81        add     a,c
93e9 02        ld      (bc),a
93ea 14        inc     d
93eb 57        ld      d,a
93ec 03        inc     bc
93ed 14        inc     d
93ee 3b        dec     sp
93ef 02        ld      (bc),a
93f0 14        inc     d
93f1 8a        adc     a,d
93f2 03        inc     bc
93f3 14        inc     d
93f4 c0        ret     nz

93f5 03        inc     bc
93f6 14        inc     d
93f7 f9        ld      sp,hl
93f8 03        inc     bc
93f9 14        inc     d
93fa a7        and     a
93fb 02        ld      (bc),a
93fc 14        inc     d
93fd f9        ld      sp,hl
93fe 03        inc     bc
93ff 14        inc     d
9400 3b        dec     sp
9401 02        ld      (bc),a
9402 14        inc     d
9403 f9        ld      sp,hl
9404 03        inc     bc
9405 14        inc     d
9406 f40514    call    p,1405h
9409 4d        ld      c,l
940a 05        dec     b
940b 14        inc     d
940c b9        cp      c
940d 04        inc     b
940e 14        inc     d
940f 75        ld      (hl),l
9410 04        inc     b
9411 14        inc     d
9412 3b        dec     sp
9413 02        ld      (bc),a
9414 14        inc     d
9415 f40514    call    p,1405h
9418 5d        ld      e,l
9419 02        ld      (bc),a
941a 14        inc     d
941b 57        ld      d,a
941c 03        inc     bc
941d 14        inc     d
941e 3b        dec     sp
941f 02        ld      (bc),a
9420 14        inc     d
9421 75        ld      (hl),l
9422 04        inc     b
9423 14        inc     d
9424 fa0214    jp      m,1402h
9427 75        ld      (hl),l
9428 04        inc     b
9429 14        inc     d
942a 3b        dec     sp
942b 02        ld      (bc),a
942c 14        inc     d
942d fa0214    jp      m,1402h
9430 fc0114    call    m,1401h
9433 3b        dec     sp
9434 02        ld      (bc),a
9435 14        inc     d
9436 fa0214    jp      m,1402h
9439 3b        dec     sp
943a 02        ld      (bc),a
943b 14        inc     d
943c ff        rst     38h
943d ff        rst     38h
943e 14        inc     d
943f 75        ld      (hl),l
9440 04        inc     b
9441 14        inc     d
9442 3b        dec     sp
9443 02        ld      (bc),a
9444 14        inc     d
9445 010514    ld      bc,1405h
9448 81        add     a,c
9449 02        ld      (bc),a
944a 14        inc     d
944b 4d        ld      c,l
944c 05        dec     b
944d 14        inc     d
944e a7        and     a
944f 02        ld      (bc),a
9450 14        inc     d
9451 9e        sbc     a,(hl)
9452 05        dec     b
9453 14        inc     d
9454 cf        rst     08h
9455 02        ld      (bc),a
9456 14        inc     d
9457 f40514    call    p,1405h
945a fa0214    jp      m,1402h
945d f40514    call    p,1405h
9460 fa0214    jp      m,1402h
9463 3b        dec     sp
9464 02        ld      (bc),a
9465 14        inc     d
9466 fa0214    jp      m,1402h
9469 75        ld      (hl),l
946a 04        inc     b
946b 14        inc     d
946c 00        nop     
946d 00        nop     
946e 01001e    ld      bc,1e00h
9471 8a        adc     a,d
9472 03        inc     bc
9473 05        dec     b
9474 fa0205    jp      m,0502h
9477 8a        adc     a,d
9478 03        inc     bc
9479 05        dec     b
947a c5        push    bc
947b 0105fa    ld      bc,0fa05h
947e 02        ld      (bc),a
947f 05        dec     b
9480 7d        ld      a,l
9481 0105ff    ld      bc,0ff05h
9484 ff        rst     38h
9485 0a        ld      a,(bc)
9486 3b        dec     sp
9487 02        ld      (bc),a
9488 05        dec     b
9489 81        add     a,c
948a 02        ld      (bc),a
948b 05        dec     b
948c ff        rst     38h
948d ff        rst     38h
948e 05        dec     b
948f 3b        dec     sp
9490 02        ld      (bc),a
9491 05        dec     b
9492 ff        rst     38h
9493 ff        rst     38h
9494 05        dec     b
9495 fa0205    jp      m,0502h
9498 ac        xor     h
9499 011453    ld      bc,5314h
949c 01143b    ld      bc,3b14h
949f 02        ld      (bc),a
94a0 0a        ld      a,(bc)
94a1 e2000a    jp      po,0a00h
94a4 d600      sub     00h
94a6 0a        ld      a,(bc)
94a7 ca000a    jp      z,0a00h
94aa be        cp      (hl)
94ab 00        nop     
94ac 0a        ld      a,(bc)
94ad e2000a    jp      po,0a00h
94b0 d600      sub     00h
94b2 0a        ld      a,(bc)
94b3 be        cp      (hl)
94b4 00        nop     
94b5 14        inc     d
94b6 fe00      cp      00h
94b8 0a        ld      a,(bc)
94b9 d600      sub     00h
94bb 14        inc     d
94bc 1d        dec     e
94bd 01142e    ld      bc,2e14h
94c0 011453    ld      bc,5314h
94c3 01142e    ld      bc,2e14h
94c6 0114ff    ld      bc,0ff14h
94c9 ff        rst     38h
94ca 0a        ld      a,(bc)
94cb 8a        adc     a,d
94cc 03        inc     bc
94cd 05        dec     b
94ce fa0205    jp      m,0502h
94d1 8a        adc     a,d
94d2 03        inc     bc
94d3 05        dec     b
94d4 c5        push    bc
94d5 0105fa    ld      bc,0fa05h
94d8 02        ld      (bc),a
94d9 05        dec     b
94da 7d        ld      a,l
94db 0105ff    ld      bc,0ff05h
94de ff        rst     38h
94df 0a        ld      a,(bc)
94e0 3b        dec     sp
94e1 02        ld      (bc),a
94e2 05        dec     b
94e3 81        add     a,c
94e4 02        ld      (bc),a
94e5 05        dec     b
94e6 ff        rst     38h
94e7 ff        rst     38h
94e8 05        dec     b
94e9 3b        dec     sp
94ea 02        ld      (bc),a
94eb 05        dec     b
94ec ff        rst     38h
94ed ff        rst     38h
94ee 05        dec     b
94ef fa0205    jp      m,0502h
94f2 ac        xor     h
94f3 011453    ld      bc,5314h
94f6 01141d    ld      bc,1d14h
94f9 010aff    ld      bc,0ff0ah
94fc ff        rst     38h
94fd 0a        ld      a,(bc)
94fe 1d        dec     e
94ff 010a1d    ld      bc,1d0ah
9502 010a1d    ld      bc,1d0ah
9505 010a94    ld      bc,940ah
9508 010a53    ld      bc,530ah
950b 010ae2    ld      bc,0e20ah
950e 00        nop     
950f 14        inc     d
9510 fc010a    call    m,0a01h
9513 a7        and     a
9514 02        ld      (bc),a
9515 0a        ld      a,(bc)
9516 57        ld      d,a
9517 03        inc     bc
9518 0a        ld      a,(bc)
9519 5d        ld      e,l
951a 02        ld      (bc),a
951b 14        inc     d
951c d600      sub     00h
951e 2801      jr      z,9521h
9520 00        nop     
9521 1e8a      ld      e,8ah
9523 03        inc     bc
9524 05        dec     b
9525 fa0205    jp      m,0502h
9528 8a        adc     a,d
9529 03        inc     bc
952a 05        dec     b
952b c5        push    bc
952c 0105fa    ld      bc,0fa05h
952f 02        ld      (bc),a
9530 05        dec     b
9531 7d        ld      a,l
9532 0105ff    ld      bc,0ff05h
9535 ff        rst     38h
9536 0a        ld      a,(bc)
9537 3b        dec     sp
9538 02        ld      (bc),a
9539 05        dec     b
953a 81        add     a,c
953b 02        ld      (bc),a
953c 05        dec     b
953d ff        rst     38h
953e ff        rst     38h
953f 05        dec     b
9540 3b        dec     sp
9541 02        ld      (bc),a
9542 05        dec     b
9543 ff        rst     38h
9544 ff        rst     38h
9545 05        dec     b
9546 fa0205    jp      m,0502h
9549 ac        xor     h
954a 011453    ld      bc,5314h
954d 01143b    ld      bc,3b14h
9550 02        ld      (bc),a
9551 0a        ld      a,(bc)
9552 e2000a    jp      po,0a00h
9555 d600      sub     00h
9557 0a        ld      a,(bc)
9558 ca000a    jp      z,0a00h
955b be        cp      (hl)
955c 00        nop     
955d 0a        ld      a,(bc)
955e e2000a    jp      po,0a00h
9561 d600      sub     00h
9563 0a        ld      a,(bc)
9564 e20014    jp      po,1400h
9567 fe00      cp      00h
9569 0a        ld      a,(bc)
956a d600      sub     00h
956c 14        inc     d
956d 1d        dec     e
956e 010a7d    ld      bc,7d0ah
9571 010ac5    ld      bc,0c50ah
9574 010a7d    ld      bc,7d0ah
9577 010ac5    ld      bc,0c50ah
957a 010aff    ld      bc,0ff0ah
957d ff        rst     38h
957e 0a        ld      a,(bc)
957f e2000a    jp      po,0a00h
9582 d600      sub     00h
9584 0a        ld      a,(bc)
9585 be        cp      (hl)
9586 00        nop     
9587 0a        ld      a,(bc)
9588 e2000a    jp      po,0a00h
958b d600      sub     00h
958d 0a        ld      a,(bc)
958e be        cp      (hl)
958f 00        nop     
9590 14        inc     d
9591 e2000a    jp      po,0a00h
9594 d600      sub     00h
9596 0a        ld      a,(bc)
9597 e2000a    jp      po,0a00h
959a be        cp      (hl)
959b 00        nop     
959c 0a        ld      a,(bc)
959d e2000a    jp      po,0a00h
95a0 d600      sub     00h
95a2 0a        ld      a,(bc)
95a3 be        cp      (hl)
95a4 00        nop     
95a5 14        inc     d
95a6 e2000a    jp      po,0a00h
95a9 d600      sub     00h
95ab 0a        ld      a,(bc)
95ac e2000a    jp      po,0a00h
95af be        cp      (hl)
95b0 00        nop     
95b1 0a        ld      a,(bc)
95b2 e2000a    jp      po,0a00h
95b5 d600      sub     00h
95b7 0a        ld      a,(bc)
95b8 be        cp      (hl)
95b9 00        nop     
95ba 14        inc     d
95bb fe00      cp      00h
95bd 0a        ld      a,(bc)
95be d600      sub     00h
95c0 14        inc     d
95c1 e20032    jp      po,3200h
95c4 00        nop     
95c5 00        nop     
95c6 80        add     a,b
95c7 80        add     a,b
95c8 80        add     a,b
95c9 80        add     a,b
95ca 80        add     a,b
95cb 80        add     a,b
95cc 80        add     a,b
95cd 80        add     a,b
95ce 80        add     a,b
95cf 80        add     a,b
95d0 80        add     a,b
95d1 80        add     a,b
95d2 80        add     a,b
95d3 80        add     a,b
95d4 80        add     a,b
95d5 80        add     a,b
95d6 80        add     a,b
95d7 80        add     a,b
95d8 80        add     a,b
95d9 80        add     a,b
95da 80        add     a,b
95db 80        add     a,b
95dc 80        add     a,b
95dd 80        add     a,b
95de 80        add     a,b
95df 80        add     a,b
95e0 80        add     a,b
95e1 80        add     a,b
95e2 80        add     a,b
95e3 80        add     a,b
95e4 80        add     a,b
95e5 80        add     a,b
95e6 80        add     a,b
95e7 80        add     a,b
95e8 80        add     a,b
95e9 80        add     a,b
95ea 80        add     a,b
95eb 80        add     a,b
95ec 80        add     a,b
95ed 80        add     a,b
95ee 80        add     a,b
95ef 80        add     a,b
95f0 80        add     a,b
95f1 80        add     a,b
95f2 80        add     a,b
95f3 80        add     a,b
95f4 80        add     a,b
95f5 80        add     a,b
95f6 80        add     a,b
95f7 80        add     a,b
95f8 80        add     a,b
95f9 80        add     a,b
95fa 80        add     a,b
95fb 80        add     a,b
95fc 80        add     a,b
95fd 80        add     a,b
95fe 80        add     a,b
95ff 80        add     a,b
9600 80        add     a,b
9601 80        add     a,b
9602 80        add     a,b
9603 80        add     a,b
9604 80        add     a,b
9605 80        add     a,b
9606 80        add     a,b
9607 80        add     a,b
9608 80        add     a,b
9609 80        add     a,b
960a 80        add     a,b
960b 80        add     a,b
960c 80        add     a,b
960d 80        add     a,b
960e 80        add     a,b
960f 80        add     a,b
9610 80        add     a,b
9611 80        add     a,b
9612 80        add     a,b
9613 8f        adc     a,a
9614 8f        adc     a,a
9615 8f        adc     a,a
9616 8f        adc     a,a
9617 8f        adc     a,a
9618 80        add     a,b
9619 8f        adc     a,a
961a 84        add     a,h
961b 80        add     a,b
961c 8a        adc     a,d
961d 85        add     a,l
961e 80        add     a,b
961f 80        add     a,b
9620 80        add     a,b
9621 80        add     a,b
9622 8f        adc     a,a
9623 80        add     a,b
9624 88        adc     a,b
9625 8f        adc     a,a
9626 8f        adc     a,a
9627 8d        adc     a,l
9628 80        add     a,b
9629 8a        adc     a,d
962a 8d        adc     a,l
962b 80        add     a,b
962c 8e        adc     a,(hl)
962d 85        add     a,l
962e 80        add     a,b
962f 80        add     a,b
9630 80        add     a,b
9631 8f        adc     a,a
9632 84        add     a,h
9633 80        add     a,b
9634 8a        adc     a,d
9635 85        add     a,l
9636 80        add     a,b
9637 8e        adc     a,(hl)
9638 8f        adc     a,a
9639 8f        adc     a,a
963a 84        add     a,h
963b 80        add     a,b
963c 8f        adc     a,a
963d 80        add     a,b
963e 80        add     a,b
963f 8a        adc     a,d
9640 85        add     a,l
9641 80        add     a,b
9642 8e        adc     a,(hl)
9643 8f        adc     a,a
9644 8f        adc     a,a
9645 84        add     a,h
9646 80        add     a,b
9647 8f        adc     a,a
9648 80        add     a,b
9649 80        add     a,b
964a 8a        adc     a,d
964b 85        add     a,l
964c 80        add     a,b
964d 80        add     a,b
964e 8a        adc     a,d
964f 80        add     a,b
9650 80        add     a,b
9651 80        add     a,b
9652 8f        adc     a,a
9653 8f        adc     a,a
9654 8f        adc     a,a
9655 8f        adc     a,a
9656 80        add     a,b
9657 8f        adc     a,a
9658 8f        adc     a,a
9659 8f        adc     a,a
965a 80        add     a,b
965b 88        adc     a,b
965c 8f        adc     a,a
965d 8f        adc     a,a
965e 8d        adc     a,l
965f 80        add     a,b
9660 8a        adc     a,d
9661 8f        adc     a,a
9662 80        add     a,b
9663 80        add     a,b
9664 8e        adc     a,(hl)
9665 8f        adc     a,a
9666 8d        adc     a,l
9667 80        add     a,b
9668 80        add     a,b
9669 80        add     a,b
966a 80        add     a,b
966b 80        add     a,b
966c 80        add     a,b
966d 85        add     a,l
966e 80        add     a,b
966f 80        add     a,b
9670 8a        adc     a,d
9671 85        add     a,l
9672 80        add     a,b
9673 80        add     a,b
9674 8f        adc     a,a
9675 80        add     a,b
9676 8f        adc     a,a
9677 8f        adc     a,a
9678 8f        adc     a,a
9679 8f        adc     a,a
967a 80        add     a,b
967b 8f        adc     a,a
967c 8f        adc     a,a
967d 8f        adc     a,a
967e 8d        adc     a,l
967f 80        add     a,b
9680 8a        adc     a,d
9681 8f        adc     a,a
9682 8f        adc     a,a
9683 85        add     a,l
9684 80        add     a,b
9685 8e        adc     a,(hl)
9686 8f        adc     a,a
9687 8f        adc     a,a
9688 84        add     a,h
9689 80        add     a,b
968a 80        add     a,b
968b 80        add     a,b
968c 85        add     a,l
968d 80        add     a,b
968e 80        add     a,b
968f 8a        adc     a,d
9690 8d        adc     a,l
9691 80        add     a,b
9692 80        add     a,b
9693 8f        adc     a,a
9694 80        add     a,b
9695 80        add     a,b
9696 80        add     a,b
9697 8a        adc     a,d
9698 8f        adc     a,a
9699 8f        adc     a,a
969a 8f        adc     a,a
969b 84        add     a,h
969c 80        add     a,b
969d 88        adc     a,b
969e 8f        adc     a,a
969f 8f        adc     a,a
96a0 8d        adc     a,l
96a1 80        add     a,b
96a2 8a        adc     a,d
96a3 85        add     a,l
96a4 80        add     a,b
96a5 8e        adc     a,(hl)
96a6 87        add     a,a
96a7 80        add     a,b
96a8 8f        adc     a,a
96a9 8f        adc     a,a
96aa 8f        adc     a,a
96ab 8f        adc     a,a
96ac 80        add     a,b
96ad 8f        adc     a,a
96ae 8f        adc     a,a
96af 8f        adc     a,a
96b0 8d        adc     a,l
96b1 80        add     a,b
96b2 80        add     a,b
96b3 80        add     a,b
96b4 8b        adc     a,e
96b5 8d        adc     a,l
96b6 8b        adc     a,e
96b7 8d        adc     a,l
96b8 80        add     a,b
96b9 80        add     a,b
96ba 80        add     a,b
96bb 80        add     a,b
96bc 80        add     a,b
96bd 8a        adc     a,d
96be 8f        adc     a,a
96bf 8f        adc     a,a
96c0 8f        adc     a,a
96c1 8f        adc     a,a
96c2 8f        adc     a,a
96c3 8f        adc     a,a
96c4 8f        adc     a,a
96c5 8f        adc     a,a
96c6 85        add     a,l
96c7 80        add     a,b
96c8 8a        adc     a,d
96c9 8f        adc     a,a
96ca 8f        adc     a,a
96cb 8f        adc     a,a
96cc 8f        adc     a,a
96cd 80        add     a,b
96ce 80        add     a,b
96cf 88        adc     a,b
96d0 8f        adc     a,a
96d1 8f        adc     a,a
96d2 8d        adc     a,l
96d3 80        add     a,b
96d4 80        add     a,b
96d5 8e        adc     a,(hl)
96d6 8f        adc     a,a
96d7 8f        adc     a,a
96d8 84        add     a,h
96d9 80        add     a,b
96da 88        adc     a,b
96db 8f        adc     a,a
96dc 8f        adc     a,a
96dd 8d        adc     a,l
96de 80        add     a,b
96df 80        add     a,b
96e0 80        add     a,b
96e1 80        add     a,b
96e2 80        add     a,b
96e3 80        add     a,b
96e4 8e        adc     a,(hl)
96e5 87        add     a,a
96e6 8e        adc     a,(hl)
96e7 87        add     a,a
96e8 80        add     a,b
96e9 80        add     a,b
96ea 80        add     a,b
96eb 80        add     a,b
96ec 80        add     a,b
96ed 80        add     a,b
96ee 80        add     a,b
96ef 80        add     a,b
96f0 80        add     a,b
96f1 80        add     a,b
96f2 80        add     a,b
96f3 80        add     a,b
96f4 80        add     a,b
96f5 80        add     a,b
96f6 80        add     a,b
96f7 80        add     a,b
96f8 80        add     a,b
96f9 80        add     a,b
96fa 80        add     a,b
96fb 80        add     a,b
96fc 80        add     a,b
96fd 80        add     a,b
96fe 80        add     a,b
96ff 80        add     a,b
9700 80        add     a,b
9701 80        add     a,b
9702 80        add     a,b
9703 80        add     a,b
9704 80        add     a,b
9705 80        add     a,b
9706 80        add     a,b
9707 80        add     a,b
9708 80        add     a,b
9709 80        add     a,b
970a 80        add     a,b
970b 80        add     a,b
970c 80        add     a,b
970d 80        add     a,b
970e 80        add     a,b
970f 80        add     a,b
9710 80        add     a,b
9711 80        add     a,b
9712 80        add     a,b
9713 80        add     a,b
9714 80        add     a,b
9715 80        add     a,b
9716 80        add     a,b
9717 80        add     a,b
9718 80        add     a,b
9719 80        add     a,b
971a 80        add     a,b
971b 80        add     a,b
971c 80        add     a,b
971d 80        add     a,b
971e 80        add     a,b
971f 80        add     a,b
9720 80        add     a,b
9721 80        add     a,b
9722 80        add     a,b
9723 80        add     a,b
9724 80        add     a,b
9725 80        add     a,b
9726 80        add     a,b
9727 82        add     a,d
9728 80        add     a,b
9729 80        add     a,b
972a 80        add     a,b
972b 80        add     a,b
972c 80        add     a,b
972d 80        add     a,b
972e 80        add     a,b
972f 80        add     a,b
9730 80        add     a,b
9731 80        add     a,b
9732 80        add     a,b
9733 80        add     a,b
9734 80        add     a,b
9735 80        add     a,b
9736 80        add     a,b
9737 80        add     a,b
9738 80        add     a,b
9739 80        add     a,b
973a 80        add     a,b
973b 80        add     a,b
973c 80        add     a,b
973d 80        add     a,b
973e 80        add     a,b
973f 80        add     a,b
9740 80        add     a,b
9741 80        add     a,b
9742 80        add     a,b
9743 80        add     a,b
9744 80        add     a,b
9745 80        add     a,b
9746 80        add     a,b
9747 80        add     a,b
9748 80        add     a,b
9749 80        add     a,b
974a 80        add     a,b
974b 80        add     a,b
974c 80        add     a,b
974d 80        add     a,b
974e 80        add     a,b
974f 80        add     a,b
9750 80        add     a,b
9751 80        add     a,b
9752 80        add     a,b
9753 80        add     a,b
9754 80        add     a,b
9755 80        add     a,b
9756 80        add     a,b
9757 80        add     a,b
9758 80        add     a,b
9759 80        add     a,b
975a 80        add     a,b
975b 80        add     a,b
975c 80        add     a,b
975d 80        add     a,b
975e 80        add     a,b
975f 80        add     a,b
9760 80        add     a,b
9761 80        add     a,b
9762 80        add     a,b
9763 80        add     a,b
9764 80        add     a,b
9765 80        add     a,b
9766 80        add     a,b
9767 80        add     a,b
9768 80        add     a,b
9769 80        add     a,b
976a 80        add     a,b
976b 80        add     a,b
976c 80        add     a,b
976d 80        add     a,b
976e 80        add     a,b
976f 80        add     a,b
9770 80        add     a,b
9771 80        add     a,b
9772 80        add     a,b
9773 80        add     a,b
9774 80        add     a,b
9775 8f        adc     a,a
9776 80        add     a,b
9777 80        add     a,b
9778 80        add     a,b
9779 80        add     a,b
977a 80        add     a,b
977b 8f        adc     a,a
977c 8d        adc     a,l
977d 80        add     a,b
977e 8a        adc     a,d
977f 85        add     a,l
9780 80        add     a,b
9781 80        add     a,b
9782 80        add     a,b
9783 80        add     a,b
9784 8f        adc     a,a
9785 80        add     a,b
9786 8f        adc     a,a
9787 81        add     a,c
9788 80        add     a,b
9789 8b        adc     a,e
978a 85        add     a,l
978b 80        add     a,b
978c 8f        adc     a,a
978d 8c        adc     a,h
978e 8f        adc     a,a
978f 80        add     a,b
9790 80        add     a,b
9791 80        add     a,b
9792 80        add     a,b
9793 8f        adc     a,a
9794 8d        adc     a,l
9795 80        add     a,b
9796 8a        adc     a,d
9797 85        add     a,l
9798 8a        adc     a,d
9799 87        add     a,a
979a 80        add     a,b
979b 82        add     a,d
979c 8f        adc     a,a
979d 80        add     a,b
979e 8b        adc     a,e
979f 85        add     a,l
97a0 80        add     a,b
97a1 8f        adc     a,a
97a2 81        add     a,c
97a3 8a        adc     a,d
97a4 87        add     a,a
97a5 80        add     a,b
97a6 82        add     a,d
97a7 8f        adc     a,a
97a8 80        add     a,b
97a9 8f        adc     a,a
97aa 85        add     a,l
97ab 80        add     a,b
97ac 8f        adc     a,a
97ad 85        add     a,l
97ae 80        add     a,b
97af 80        add     a,b
97b0 8f        adc     a,a
97b1 85        add     a,l
97b2 80        add     a,b
97b3 80        add     a,b
97b4 80        add     a,b
97b5 8a        adc     a,d
97b6 85        add     a,l
97b7 80        add     a,b
97b8 80        add     a,b
97b9 80        add     a,b
97ba 8f        adc     a,a
97bb 80        add     a,b
97bc 80        add     a,b
97bd 8f        adc     a,a
97be 81        add     a,c
97bf 80        add     a,b
97c0 8b        adc     a,e
97c1 85        add     a,l
97c2 80        add     a,b
97c3 8f        adc     a,a
97c4 80        add     a,b
97c5 8a        adc     a,d
97c6 87        add     a,a
97c7 80        add     a,b
97c8 8b        adc     a,e
97c9 85        add     a,l
97ca 80        add     a,b
97cb 80        add     a,b
97cc 80        add     a,b
97cd 80        add     a,b
97ce 8a        adc     a,d
97cf 8f        adc     a,a
97d0 80        add     a,b
97d1 80        add     a,b
97d2 8a        adc     a,d
97d3 8f        adc     a,a
97d4 80        add     a,b
97d5 8a        adc     a,d
97d6 8f        adc     a,a
97d7 80        add     a,b
97d8 8f        adc     a,a
97d9 80        add     a,b
97da 80        add     a,b
97db 80        add     a,b
97dc 80        add     a,b
97dd 8f        adc     a,a
97de 80        add     a,b
97df 80        add     a,b
97e0 8b        adc     a,e
97e1 85        add     a,l
97e2 80        add     a,b
97e3 8a        adc     a,d
97e4 85        add     a,l
97e5 80        add     a,b
97e6 8a        adc     a,d
97e7 87        add     a,a
97e8 80        add     a,b
97e9 82        add     a,d
97ea 8f        adc     a,a
97eb 80        add     a,b
97ec 80        add     a,b
97ed 8a        adc     a,d
97ee 8f        adc     a,a
97ef 80        add     a,b
97f0 80        add     a,b
97f1 8a        adc     a,d
97f2 8f        adc     a,a
97f3 84        add     a,h
97f4 80        add     a,b
97f5 8f        adc     a,a
97f6 80        add     a,b
97f7 80        add     a,b
97f8 80        add     a,b
97f9 8a        adc     a,d
97fa 85        add     a,l
97fb 80        add     a,b
97fc 82        add     a,d
97fd 8f        adc     a,a
97fe 80        add     a,b
97ff 8f        adc     a,a
9800 81        add     a,c
9801 80        add     a,b
9802 8b        adc     a,e
9803 85        add     a,l
9804 8a        adc     a,d
9805 85        add     a,l
9806 8e        adc     a,(hl)
9807 87        add     a,a
9808 80        add     a,b
9809 80        add     a,b
980a 8f        adc     a,a
980b 80        add     a,b
980c 80        add     a,b
980d 80        add     a,b
980e 80        add     a,b
980f 8f        adc     a,a
9810 80        add     a,b
9811 80        add     a,b
9812 8b        adc     a,e
9813 85        add     a,l
9814 80        add     a,b
9815 80        add     a,b
9816 80        add     a,b
9817 8b        adc     a,e
9818 8d        adc     a,l
9819 8b        adc     a,e
981a 8d        adc     a,l
981b 80        add     a,b
981c 80        add     a,b
981d 80        add     a,b
981e 80        add     a,b
981f 82        add     a,d
9820 83        add     a,e
9821 8b        adc     a,e
9822 8f        adc     a,a
9823 83        add     a,e
9824 83        add     a,e
9825 8f        adc     a,a
9826 87        add     a,a
9827 83        add     a,e
9828 81        add     a,c
9829 80        add     a,b
982a 8a        adc     a,d
982b 85        add     a,l
982c 80        add     a,b
982d 80        add     a,b
982e 80        add     a,b
982f 80        add     a,b
9830 80        add     a,b
9831 8f        adc     a,a
9832 81        add     a,c
9833 80        add     a,b
9834 8b        adc     a,e
9835 85        add     a,l
9836 8a        adc     a,d
9837 87        add     a,a
9838 80        add     a,b
9839 82        add     a,d
983a 8f        adc     a,a
983b 80        add     a,b
983c 8f        adc     a,a
983d 81        add     a,c
983e 80        add     a,b
983f 8b        adc     a,e
9840 85        add     a,l
9841 80        add     a,b
9842 80        add     a,b
9843 80        add     a,b
9844 80        add     a,b
9845 8e        adc     a,(hl)
9846 87        add     a,a
9847 8e        adc     a,(hl)
9848 87        add     a,a
9849 80        add     a,b
984a 80        add     a,b
984b 80        add     a,b
984c 80        add     a,b
984d 80        add     a,b
984e 80        add     a,b
984f 80        add     a,b
9850 80        add     a,b
9851 80        add     a,b
9852 80        add     a,b
9853 80        add     a,b
9854 80        add     a,b
9855 80        add     a,b
9856 80        add     a,b
9857 80        add     a,b
9858 80        add     a,b
9859 80        add     a,b
985a 80        add     a,b
985b 80        add     a,b
985c 80        add     a,b
985d 80        add     a,b
985e 80        add     a,b
985f 80        add     a,b
9860 80        add     a,b
9861 80        add     a,b
9862 80        add     a,b
9863 80        add     a,b
9864 80        add     a,b
9865 80        add     a,b
9866 80        add     a,b
9867 80        add     a,b
9868 80        add     a,b
9869 80        add     a,b
986a 80        add     a,b
986b 80        add     a,b
986c 80        add     a,b
986d 80        add     a,b
986e 80        add     a,b
986f 80        add     a,b
9870 80        add     a,b
9871 80        add     a,b
9872 80        add     a,b
9873 80        add     a,b
9874 80        add     a,b
9875 80        add     a,b
9876 80        add     a,b
9877 80        add     a,b
9878 80        add     a,b
9879 80        add     a,b
987a 80        add     a,b
987b 80        add     a,b
987c 80        add     a,b
987d 80        add     a,b
987e 80        add     a,b
987f 80        add     a,b
9880 80        add     a,b
9881 80        add     a,b
9882 80        add     a,b
9883 80        add     a,b
9884 80        add     a,b
9885 80        add     a,b
9886 80        add     a,b
9887 80        add     a,b
9888 80        add     a,b
9889 80        add     a,b
988a 80        add     a,b
988b 80        add     a,b
988c 80        add     a,b
988d 80        add     a,b
988e 80        add     a,b
988f 80        add     a,b
9890 80        add     a,b
9891 80        add     a,b
9892 80        add     a,b
9893 80        add     a,b
9894 80        add     a,b
9895 80        add     a,b
9896 80        add     a,b
9897 80        add     a,b
9898 80        add     a,b
9899 80        add     a,b
989a 80        add     a,b
989b 80        add     a,b
989c 80        add     a,b
989d 80        add     a,b
989e 80        add     a,b
989f 80        add     a,b
98a0 80        add     a,b
98a1 80        add     a,b
98a2 80        add     a,b
98a3 80        add     a,b
98a4 80        add     a,b
98a5 80        add     a,b
98a6 80        add     a,b
98a7 80        add     a,b
98a8 80        add     a,b
98a9 80        add     a,b
98aa 80        add     a,b
98ab 80        add     a,b
98ac 80        add     a,b
98ad 80        add     a,b
98ae 80        add     a,b
98af 80        add     a,b
98b0 80        add     a,b
98b1 80        add     a,b
98b2 80        add     a,b
98b3 80        add     a,b
98b4 80        add     a,b
98b5 80        add     a,b
98b6 80        add     a,b
98b7 80        add     a,b
98b8 80        add     a,b
98b9 80        add     a,b
98ba 80        add     a,b
98bb 80        add     a,b
98bc 80        add     a,b
98bd 80        add     a,b
98be 80        add     a,b
98bf 80        add     a,b
98c0 80        add     a,b
98c1 80        add     a,b
98c2 80        add     a,b
98c3 80        add     a,b
98c4 80        add     a,b
98c5 80        add     a,b
98c6 80        add     a,b
98c7 80        add     a,b
98c8 80        add     a,b
98c9 80        add     a,b
98ca 80        add     a,b
98cb 80        add     a,b
98cc 80        add     a,b
98cd 80        add     a,b
98ce 80        add     a,b
98cf 80        add     a,b
98d0 8f        adc     a,a
98d1 8f        adc     a,a
98d2 8f        adc     a,a
98d3 8f        adc     a,a
98d4 8f        adc     a,a
98d5 8f        adc     a,a
98d6 80        add     a,b
98d7 8f        adc     a,a
98d8 80        add     a,b
98d9 80        add     a,b
98da 80        add     a,b
98db 80        add     a,b
98dc 80        add     a,b
98dd 8f        adc     a,a
98de 8f        adc     a,a
98df 84        add     a,h
98e0 8a        adc     a,d
98e1 85        add     a,l
98e2 80        add     a,b
98e3 80        add     a,b
98e4 80        add     a,b
98e5 80        add     a,b
98e6 8f        adc     a,a
98e7 80        add     a,b
98e8 8f        adc     a,a
98e9 80        add     a,b
98ea 80        add     a,b
98eb 8a        adc     a,d
98ec 85        add     a,l
98ed 80        add     a,b
98ee 8a        adc     a,d
98ef 8f        adc     a,a
98f0 85        add     a,l
98f1 80        add     a,b
98f2 80        add     a,b
98f3 80        add     a,b
98f4 80        add     a,b
98f5 8f        adc     a,a
98f6 8f        adc     a,a
98f7 84        add     a,h
98f8 8a        adc     a,d
98f9 85        add     a,l
98fa 8a        adc     a,d
98fb 85        add     a,l
98fc 80        add     a,b
98fd 80        add     a,b
98fe 8f        adc     a,a
98ff 80        add     a,b
9900 8a        adc     a,d
9901 8d        adc     a,l
9902 88        adc     a,b
9903 8f        adc     a,a
9904 80        add     a,b
9905 8a        adc     a,d
9906 85        add     a,l
9907 80        add     a,b
9908 80        add     a,b
9909 8f        adc     a,a
990a 80        add     a,b
990b 8f        adc     a,a
990c 8f        adc     a,a
990d 8a        adc     a,d
990e 8f        adc     a,a
990f 85        add     a,l
9910 80        add     a,b
9911 88        adc     a,b
9912 8f        adc     a,a
9913 8d        adc     a,l
9914 80        add     a,b
9915 80        add     a,b
9916 80        add     a,b
9917 8a        adc     a,d
9918 85        add     a,l
9919 80        add     a,b
991a 80        add     a,b
991b 80        add     a,b
991c 8f        adc     a,a
991d 80        add     a,b
991e 80        add     a,b
991f 8f        adc     a,a
9920 80        add     a,b
9921 80        add     a,b
9922 80        add     a,b
9923 80        add     a,b
9924 82        add     a,d
9925 81        add     a,c
9926 80        add     a,b
9927 8a        adc     a,d
9928 8d        adc     a,l
9929 80        add     a,b
992a 80        add     a,b
992b 80        add     a,b
992c 80        add     a,b
992d 80        add     a,b
992e 80        add     a,b
992f 80        add     a,b
9930 8e        adc     a,(hl)
9931 8f        adc     a,a
9932 84        add     a,h
9933 80        add     a,b
9934 8a        adc     a,d
9935 8f        adc     a,a
9936 85        add     a,l
9937 8f        adc     a,a
9938 8f        adc     a,a
9939 80        add     a,b
993a 8f        adc     a,a
993b 80        add     a,b
993c 80        add     a,b
993d 80        add     a,b
993e 80        add     a,b
993f 8f        adc     a,a
9940 80        add     a,b
9941 80        add     a,b
9942 8e        adc     a,(hl)
9943 85        add     a,l
9944 80        add     a,b
9945 8a        adc     a,d
9946 85        add     a,l
9947 80        add     a,b
9948 8a        adc     a,d
9949 85        add     a,l
994a 80        add     a,b
994b 80        add     a,b
994c 80        add     a,b
994d 80        add     a,b
994e 80        add     a,b
994f 8e        adc     a,(hl)
9950 8f        adc     a,a
9951 84        add     a,h
9952 80        add     a,b
9953 8a        adc     a,d
9954 8f        adc     a,a
9955 8d        adc     a,l
9956 80        add     a,b
9957 8f        adc     a,a
9958 80        add     a,b
9959 80        add     a,b
995a 80        add     a,b
995b 8a        adc     a,d
995c 85        add     a,l
995d 80        add     a,b
995e 88        adc     a,b
995f 8f        adc     a,a
9960 80        add     a,b
9961 8f        adc     a,a
9962 80        add     a,b
9963 80        add     a,b
9964 8a        adc     a,d
9965 85        add     a,l
9966 8a        adc     a,d
9967 8f        adc     a,a
9968 87        add     a,a
9969 80        add     a,b
996a 80        add     a,b
996b 80        add     a,b
996c 8f        adc     a,a
996d 80        add     a,b
996e 80        add     a,b
996f 80        add     a,b
9970 80        add     a,b
9971 8f        adc     a,a
9972 80        add     a,b
9973 80        add     a,b
9974 8e        adc     a,(hl)
9975 85        add     a,l
9976 80        add     a,b
9977 80        add     a,b
9978 80        add     a,b
9979 80        add     a,b
997a 8b        adc     a,e
997b 8d        adc     a,l
997c 8b        adc     a,e
997d 8d        adc     a,l
997e 80        add     a,b
997f 80        add     a,b
9980 80        add     a,b
9981 80        add     a,b
9982 80        add     a,b
9983 8a        adc     a,d
9984 8f        adc     a,a
9985 80        add     a,b
9986 80        add     a,b
9987 8f        adc     a,a
9988 85        add     a,l
9989 80        add     a,b
998a 80        add     a,b
998b 80        add     a,b
998c 8a        adc     a,d
998d 8f        adc     a,a
998e 8f        adc     a,a
998f 8f        adc     a,a
9990 84        add     a,h
9991 80        add     a,b
9992 80        add     a,b
9993 8f        adc     a,a
9994 80        add     a,b
9995 80        add     a,b
9996 8a        adc     a,d
9997 85        add     a,l
9998 8a        adc     a,d
9999 85        add     a,l
999a 80        add     a,b
999b 80        add     a,b
999c 8f        adc     a,a
999d 80        add     a,b
999e 8f        adc     a,a
999f 80        add     a,b
99a0 80        add     a,b
99a1 8a        adc     a,d
99a2 85        add     a,l
99a3 80        add     a,b
99a4 80        add     a,b
99a5 80        add     a,b
99a6 8e        adc     a,(hl)
99a7 87        add     a,a
99a8 8e        adc     a,(hl)
99a9 87        add     a,a
99aa 80        add     a,b
99ab 80        add     a,b
99ac 80        add     a,b
99ad 80        add     a,b
99ae 80        add     a,b
99af 80        add     a,b
99b0 80        add     a,b
99b1 80        add     a,b
99b2 80        add     a,b
99b3 80        add     a,b
99b4 80        add     a,b
99b5 80        add     a,b
99b6 80        add     a,b
99b7 80        add     a,b
99b8 80        add     a,b
99b9 80        add     a,b
99ba 80        add     a,b
99bb 80        add     a,b
99bc 80        add     a,b
99bd 80        add     a,b
99be 80        add     a,b
99bf 80        add     a,b
99c0 80        add     a,b
99c1 80        add     a,b
99c2 80        add     a,b
99c3 80        add     a,b
99c4 80        add     a,b
99c5 80        add     a,b
99c6 80        add     a,b
99c7 80        add     a,b
99c8 80        add     a,b
99c9 80        add     a,b
99ca 80        add     a,b
99cb 80        add     a,b
99cc 80        add     a,b
99cd 80        add     a,b
99ce 80        add     a,b
99cf 80        add     a,b
99d0 80        add     a,b
99d1 80        add     a,b
99d2 80        add     a,b
99d3 80        add     a,b
99d4 80        add     a,b
99d5 80        add     a,b
99d6 80        add     a,b
99d7 80        add     a,b
99d8 80        add     a,b
99d9 80        add     a,b
99da 80        add     a,b
99db 80        add     a,b
99dc 80        add     a,b
99dd 80        add     a,b
99de 80        add     a,b
99df 80        add     a,b
99e0 80        add     a,b
99e1 80        add     a,b
99e2 80        add     a,b
99e3 80        add     a,b
99e4 80        add     a,b
99e5 80        add     a,b
99e6 80        add     a,b
99e7 80        add     a,b
99e8 80        add     a,b
99e9 80        add     a,b
99ea 80        add     a,b
99eb 80        add     a,b
99ec 80        add     a,b
99ed 80        add     a,b
99ee 80        add     a,b
99ef 80        add     a,b
99f0 80        add     a,b
99f1 80        add     a,b
99f2 80        add     a,b
99f3 80        add     a,b
99f4 80        add     a,b
99f5 80        add     a,b
99f6 80        add     a,b
99f7 80        add     a,b
99f8 80        add     a,b
99f9 80        add     a,b
99fa 80        add     a,b
99fb 80        add     a,b
99fc 80        add     a,b
99fd 80        add     a,b
99fe 80        add     a,b
99ff 80        add     a,b
9a00 80        add     a,b
9a01 80        add     a,b
9a02 80        add     a,b
9a03 80        add     a,b
9a04 80        add     a,b
9a05 80        add     a,b
9a06 80        add     a,b
9a07 80        add     a,b
9a08 80        add     a,b
9a09 80        add     a,b
9a0a 80        add     a,b
9a0b 80        add     a,b
9a0c 80        add     a,b
9a0d 80        add     a,b
9a0e 80        add     a,b
9a0f 80        add     a,b
9a10 80        add     a,b
9a11 80        add     a,b
9a12 80        add     a,b
9a13 80        add     a,b
9a14 80        add     a,b
9a15 80        add     a,b
9a16 80        add     a,b
9a17 80        add     a,b
9a18 80        add     a,b
9a19 80        add     a,b
9a1a 80        add     a,b
9a1b 80        add     a,b
9a1c 80        add     a,b
9a1d 80        add     a,b
9a1e 80        add     a,b
9a1f 80        add     a,b
9a20 80        add     a,b
9a21 80        add     a,b
9a22 80        add     a,b
9a23 80        add     a,b
9a24 80        add     a,b
9a25 80        add     a,b
9a26 80        add     a,b
9a27 80        add     a,b
9a28 80        add     a,b
9a29 80        add     a,b
9a2a 80        add     a,b
9a2b 80        add     a,b
9a2c 80        add     a,b
9a2d 80        add     a,b
9a2e 80        add     a,b
9a2f 80        add     a,b
9a30 80        add     a,b
9a31 80        add     a,b
9a32 80        add     a,b
9a33 80        add     a,b
9a34 80        add     a,b
9a35 80        add     a,b
9a36 80        add     a,b
9a37 80        add     a,b
9a38 80        add     a,b
9a39 8f        adc     a,a
9a3a 8f        adc     a,a
9a3b 8f        adc     a,a
9a3c 8f        adc     a,a
9a3d 80        add     a,b
9a3e 80        add     a,b
9a3f 8f        adc     a,a
9a40 82        add     a,d
9a41 8d        adc     a,l
9a42 8a        adc     a,d
9a43 85        add     a,l
9a44 80        add     a,b
9a45 80        add     a,b
9a46 80        add     a,b
9a47 80        add     a,b
9a48 8f        adc     a,a
9a49 80        add     a,b
9a4a 8f        adc     a,a
9a4b 80        add     a,b
9a4c 80        add     a,b
9a4d 8a        adc     a,d
9a4e 85        add     a,l
9a4f 80        add     a,b
9a50 80        add     a,b
9a51 8f        adc     a,a
9a52 80        add     a,b
9a53 80        add     a,b
9a54 80        add     a,b
9a55 80        add     a,b
9a56 80        add     a,b
9a57 8f        adc     a,a
9a58 82        add     a,d
9a59 8d        adc     a,l
9a5a 8a        adc     a,d
9a5b 85        add     a,l
9a5c 8a        adc     a,d
9a5d 85        add     a,l
9a5e 80        add     a,b
9a5f 80        add     a,b
9a60 8f        adc     a,a
9a61 80        add     a,b
9a62 80        add     a,b
9a63 8f        adc     a,a
9a64 8a        adc     a,d
9a65 85        add     a,l
9a66 80        add     a,b
9a67 8a        adc     a,d
9a68 85        add     a,l
9a69 80        add     a,b
9a6a 80        add     a,b
9a6b 8f        adc     a,a
9a6c 80        add     a,b
9a6d 8f        adc     a,a
9a6e 8a        adc     a,d
9a6f 8f        adc     a,a
9a70 8a        adc     a,d
9a71 85        add     a,l
9a72 80        add     a,b
9a73 8a        adc     a,d
9a74 85        add     a,l
9a75 8f        adc     a,a
9a76 80        add     a,b
9a77 80        add     a,b
9a78 80        add     a,b
9a79 8a        adc     a,d
9a7a 85        add     a,l
9a7b 80        add     a,b
9a7c 80        add     a,b
9a7d 80        add     a,b
9a7e 8f        adc     a,a
9a7f 80        add     a,b
9a80 80        add     a,b
9a81 8f        adc     a,a
9a82 80        add     a,b
9a83 80        add     a,b
9a84 80        add     a,b
9a85 80        add     a,b
9a86 80        add     a,b
9a87 80        add     a,b
9a88 80        add     a,b
9a89 80        add     a,b
9a8a 8b        adc     a,e
9a8b 8f        adc     a,a
9a8c 8d        adc     a,l
9a8d 80        add     a,b
9a8e 80        add     a,b
9a8f 80        add     a,b
9a90 80        add     a,b
9a91 80        add     a,b
9a92 8f        adc     a,a
9a93 8a        adc     a,d
9a94 85        add     a,l
9a95 80        add     a,b
9a96 8a        adc     a,d
9a97 85        add     a,l
9a98 8f        adc     a,a
9a99 85        add     a,l
9a9a 8f        adc     a,a
9a9b 80        add     a,b
9a9c 8f        adc     a,a
9a9d 8f        adc     a,a
9a9e 8f        adc     a,a
9a9f 85        add     a,l
9aa0 80        add     a,b
9aa1 8f        adc     a,a
9aa2 8f        adc     a,a
9aa3 8f        adc     a,a
9aa4 87        add     a,a
9aa5 80        add     a,b
9aa6 80        add     a,b
9aa7 8a        adc     a,d
9aa8 85        add     a,l
9aa9 80        add     a,b
9aaa 8a        adc     a,d
9aab 85        add     a,l
9aac 80        add     a,b
9aad 80        add     a,b
9aae 80        add     a,b
9aaf 80        add     a,b
9ab0 80        add     a,b
9ab1 8f        adc     a,a
9ab2 8a        adc     a,d
9ab3 85        add     a,l
9ab4 80        add     a,b
9ab5 8a        adc     a,d
9ab6 85        add     a,l
9ab7 8b        adc     a,e
9ab8 84        add     a,h
9ab9 8f        adc     a,a
9aba 80        add     a,b
9abb 80        add     a,b
9abc 80        add     a,b
9abd 8a        adc     a,d
9abe 8f        adc     a,a
9abf 8f        adc     a,a
9ac0 8f        adc     a,a
9ac1 81        add     a,c
9ac2 80        add     a,b
9ac3 8f        adc     a,a
9ac4 80        add     a,b
9ac5 80        add     a,b
9ac6 8a        adc     a,d
9ac7 85        add     a,l
9ac8 8a        adc     a,d
9ac9 8f        adc     a,a
9aca 80        add     a,b
9acb 80        add     a,b
9acc 80        add     a,b
9acd 80        add     a,b
9ace 8f        adc     a,a
9acf 8f        adc     a,a
9ad0 8f        adc     a,a
9ad1 85        add     a,l
9ad2 80        add     a,b
9ad3 8f        adc     a,a
9ad4 8f        adc     a,a
9ad5 8f        adc     a,a
9ad6 87        add     a,a
9ad7 80        add     a,b
9ad8 80        add     a,b
9ad9 80        add     a,b
9ada 80        add     a,b
9adb 80        add     a,b
9adc 80        add     a,b
9add 8f        adc     a,a
9ade 85        add     a,l
9adf 8f        adc     a,a
9ae0 85        add     a,l
9ae1 80        add     a,b
9ae2 80        add     a,b
9ae3 80        add     a,b
9ae4 80        add     a,b
9ae5 8a        adc     a,d
9ae6 8f        adc     a,a
9ae7 80        add     a,b
9ae8 80        add     a,b
9ae9 8f        adc     a,a
9aea 85        add     a,l
9aeb 80        add     a,b
9aec 80        add     a,b
9aed 80        add     a,b
9aee 80        add     a,b
9aef 80        add     a,b
9af0 80        add     a,b
9af1 82        add     a,d
9af2 8f        adc     a,a
9af3 80        add     a,b
9af4 80        add     a,b
9af5 8f        adc     a,a
9af6 80        add     a,b
9af7 80        add     a,b
9af8 8a        adc     a,d
9af9 85        add     a,l
9afa 8a        adc     a,d
9afb 85        add     a,l
9afc 80        add     a,b
9afd 80        add     a,b
9afe 8f        adc     a,a
9aff 80        add     a,b
9b00 8f        adc     a,a
9b01 80        add     a,b
9b02 80        add     a,b
9b03 8a        adc     a,d
9b04 85        add     a,l
9b05 80        add     a,b
9b06 80        add     a,b
9b07 8a        adc     a,d
9b08 8f        adc     a,a
9b09 8a        adc     a,d
9b0a 8f        adc     a,a
9b0b 80        add     a,b
9b0c 80        add     a,b
9b0d 80        add     a,b
9b0e 80        add     a,b
9b0f 80        add     a,b
9b10 80        add     a,b
9b11 80        add     a,b
9b12 80        add     a,b
9b13 80        add     a,b
9b14 80        add     a,b
9b15 80        add     a,b
9b16 80        add     a,b
9b17 80        add     a,b
9b18 80        add     a,b
9b19 80        add     a,b
9b1a 80        add     a,b
9b1b 80        add     a,b
9b1c 80        add     a,b
9b1d 80        add     a,b
9b1e 80        add     a,b
9b1f 80        add     a,b
9b20 80        add     a,b
9b21 80        add     a,b
9b22 80        add     a,b
9b23 80        add     a,b
9b24 80        add     a,b
9b25 80        add     a,b
9b26 80        add     a,b
9b27 80        add     a,b
9b28 80        add     a,b
9b29 80        add     a,b
9b2a 80        add     a,b
9b2b 80        add     a,b
9b2c 80        add     a,b
9b2d 80        add     a,b
9b2e 80        add     a,b
9b2f 80        add     a,b
9b30 80        add     a,b
9b31 80        add     a,b
9b32 80        add     a,b
9b33 80        add     a,b
9b34 80        add     a,b
9b35 80        add     a,b
9b36 80        add     a,b
9b37 80        add     a,b
9b38 80        add     a,b
9b39 80        add     a,b
9b3a 80        add     a,b
9b3b 80        add     a,b
9b3c 80        add     a,b
9b3d 80        add     a,b
9b3e 80        add     a,b
9b3f 80        add     a,b
9b40 80        add     a,b
9b41 80        add     a,b
9b42 80        add     a,b
9b43 80        add     a,b
9b44 80        add     a,b
9b45 80        add     a,b
9b46 80        add     a,b
9b47 80        add     a,b
9b48 80        add     a,b
9b49 80        add     a,b
9b4a 80        add     a,b
9b4b 80        add     a,b
9b4c 80        add     a,b
9b4d 80        add     a,b
9b4e 80        add     a,b
9b4f 80        add     a,b
9b50 80        add     a,b
9b51 80        add     a,b
9b52 80        add     a,b
9b53 80        add     a,b
9b54 80        add     a,b
9b55 80        add     a,b
9b56 80        add     a,b
9b57 80        add     a,b
9b58 80        add     a,b
9b59 80        add     a,b
9b5a 80        add     a,b
9b5b 80        add     a,b
9b5c 80        add     a,b
9b5d 80        add     a,b
9b5e 80        add     a,b
9b5f 80        add     a,b
9b60 80        add     a,b
9b61 80        add     a,b
9b62 80        add     a,b
9b63 80        add     a,b
9b64 80        add     a,b
9b65 80        add     a,b
9b66 80        add     a,b
9b67 80        add     a,b
9b68 80        add     a,b
9b69 80        add     a,b
9b6a 80        add     a,b
9b6b 80        add     a,b
9b6c 80        add     a,b
9b6d 80        add     a,b
9b6e 80        add     a,b
9b6f 80        add     a,b
9b70 80        add     a,b
9b71 80        add     a,b
9b72 80        add     a,b
9b73 80        add     a,b
9b74 80        add     a,b
9b75 80        add     a,b
9b76 80        add     a,b
9b77 80        add     a,b
9b78 80        add     a,b
9b79 80        add     a,b
9b7a 80        add     a,b
9b7b 80        add     a,b
9b7c 80        add     a,b
9b7d 80        add     a,b
9b7e 80        add     a,b
9b7f 80        add     a,b
9b80 80        add     a,b
9b81 80        add     a,b
9b82 80        add     a,b
9b83 80        add     a,b
9b84 80        add     a,b
9b85 80        add     a,b
9b86 80        add     a,b
9b87 80        add     a,b
9b88 80        add     a,b
9b89 80        add     a,b
9b8a 80        add     a,b
9b8b 80        add     a,b
9b8c 80        add     a,b
9b8d 80        add     a,b
9b8e 80        add     a,b
9b8f 80        add     a,b
9b90 80        add     a,b
9b91 80        add     a,b
9b92 80        add     a,b
9b93 80        add     a,b
9b94 8f        adc     a,a
9b95 8f        adc     a,a
9b96 8f        adc     a,a
9b97 8f        adc     a,a
9b98 8f        adc     a,a
9b99 8f        adc     a,a
9b9a 80        add     a,b
9b9b 8f        adc     a,a
9b9c 80        add     a,b
9b9d 80        add     a,b
9b9e 80        add     a,b
9b9f 80        add     a,b
9ba0 80        add     a,b
9ba1 8f        adc     a,a
9ba2 80        add     a,b
9ba3 8b        adc     a,e
9ba4 8f        adc     a,a
9ba5 85        add     a,l
9ba6 80        add     a,b
9ba7 80        add     a,b
9ba8 80        add     a,b
9ba9 80        add     a,b
9baa 8f        adc     a,a
9bab 80        add     a,b
9bac 8f        adc     a,a
9bad 80        add     a,b
9bae 80        add     a,b
9baf 8a        adc     a,d
9bb0 85        add     a,l
9bb1 80        add     a,b
9bb2 80        add     a,b
9bb3 8f        adc     a,a
9bb4 80        add     a,b
9bb5 80        add     a,b
9bb6 80        add     a,b
9bb7 80        add     a,b
9bb8 80        add     a,b
9bb9 8f        adc     a,a
9bba 80        add     a,b
9bbb 8b        adc     a,e
9bbc 8f        adc     a,a
9bbd 85        add     a,l
9bbe 8a        adc     a,d
9bbf 85        add     a,l
9bc0 80        add     a,b
9bc1 80        add     a,b
9bc2 8f        adc     a,a
9bc3 80        add     a,b
9bc4 80        add     a,b
9bc5 8b        adc     a,e
9bc6 8f        adc     a,a
9bc7 81        add     a,c
9bc8 80        add     a,b
9bc9 8a        adc     a,d
9bca 85        add     a,l
9bcb 80        add     a,b
9bcc 80        add     a,b
9bcd 8f        adc     a,a
9bce 80        add     a,b
9bcf 8f        adc     a,a
9bd0 80        add     a,b
9bd1 85        add     a,l
9bd2 8a        adc     a,d
9bd3 85        add     a,l
9bd4 80        add     a,b
9bd5 8f        adc     a,a
9bd6 8f        adc     a,a
9bd7 8f        adc     a,a
9bd8 85        add     a,l
9bd9 80        add     a,b
9bda 80        add     a,b
9bdb 8a        adc     a,d
9bdc 85        add     a,l
9bdd 80        add     a,b
9bde 80        add     a,b
9bdf 80        add     a,b
9be0 8f        adc     a,a
9be1 80        add     a,b
9be2 80        add     a,b
9be3 8f        adc     a,a
9be4 80        add     a,b
9be5 80        add     a,b
9be6 80        add     a,b
9be7 80        add     a,b
9be8 80        add     a,b
9be9 80        add     a,b
9bea 80        add     a,b
9beb 80        add     a,b
9bec 80        add     a,b
9bed 80        add     a,b
9bee 8b        adc     a,e
9bef 85        add     a,l
9bf0 80        add     a,b
9bf1 80        add     a,b
9bf2 80        add     a,b
9bf3 8a        adc     a,d
9bf4 8f        adc     a,a
9bf5 8f        adc     a,a
9bf6 8f        adc     a,a
9bf7 80        add     a,b
9bf8 8a        adc     a,d
9bf9 85        add     a,l
9bfa 8a        adc     a,d
9bfb 80        add     a,b
9bfc 8f        adc     a,a
9bfd 80        add     a,b
9bfe 8f        adc     a,a
9bff 80        add     a,b
9c00 80        add     a,b
9c01 80        add     a,b
9c02 80        add     a,b
9c03 8f        adc     a,a
9c04 8b        adc     a,e
9c05 8d        adc     a,l
9c06 80        add     a,b
9c07 80        add     a,b
9c08 80        add     a,b
9c09 8a        adc     a,d
9c0a 85        add     a,l
9c0b 80        add     a,b
9c0c 8a        adc     a,d
9c0d 85        add     a,l
9c0e 80        add     a,b
9c0f 80        add     a,b
9c10 80        add     a,b
9c11 80        add     a,b
9c12 8a        adc     a,d
9c13 8f        adc     a,a
9c14 8f        adc     a,a
9c15 8f        adc     a,a
9c16 80        add     a,b
9c17 8a        adc     a,d
9c18 85        add     a,l
9c19 82        add     a,d
9c1a 8f        adc     a,a
9c1b 8f        adc     a,a
9c1c 80        add     a,b
9c1d 80        add     a,b
9c1e 80        add     a,b
9c1f 8a        adc     a,d
9c20 85        add     a,l
9c21 80        add     a,b
9c22 80        add     a,b
9c23 80        add     a,b
9c24 80        add     a,b
9c25 8f        adc     a,a
9c26 80        add     a,b
9c27 80        add     a,b
9c28 8a        adc     a,d
9c29 85        add     a,l
9c2a 8a        adc     a,d
9c2b 8f        adc     a,a
9c2c 8d        adc     a,l
9c2d 80        add     a,b
9c2e 80        add     a,b
9c2f 80        add     a,b
9c30 8f        adc     a,a
9c31 80        add     a,b
9c32 80        add     a,b
9c33 80        add     a,b
9c34 80        add     a,b
9c35 8f        adc     a,a
9c36 8b        adc     a,e
9c37 8d        adc     a,l
9c38 80        add     a,b
9c39 80        add     a,b
9c3a 80        add     a,b
9c3b 80        add     a,b
9c3c 80        add     a,b
9c3d 80        add     a,b
9c3e 8e        adc     a,(hl)
9c3f 87        add     a,a
9c40 8e        adc     a,(hl)
9c41 87        add     a,a
9c42 80        add     a,b
9c43 80        add     a,b
9c44 80        add     a,b
9c45 80        add     a,b
9c46 80        add     a,b
9c47 8a        adc     a,d
9c48 8f        adc     a,a
9c49 80        add     a,b
9c4a 80        add     a,b
9c4b 8f        adc     a,a
9c4c 85        add     a,l
9c4d 80        add     a,b
9c4e 80        add     a,b
9c4f 80        add     a,b
9c50 88        adc     a,b
9c51 84        add     a,h
9c52 80        add     a,b
9c53 80        add     a,b
9c54 8f        adc     a,a
9c55 80        add     a,b
9c56 80        add     a,b
9c57 8f        adc     a,a
9c58 80        add     a,b
9c59 80        add     a,b
9c5a 8a        adc     a,d
9c5b 85        add     a,l
9c5c 8a        adc     a,d
9c5d 85        add     a,l
9c5e 80        add     a,b
9c5f 80        add     a,b
9c60 8f        adc     a,a
9c61 80        add     a,b
9c62 8f        adc     a,a
9c63 80        add     a,b
9c64 80        add     a,b
9c65 8a        adc     a,d
9c66 85        add     a,l
9c67 80        add     a,b
9c68 80        add     a,b
9c69 80        add     a,b
9c6a 8b        adc     a,e
9c6b 8d        adc     a,l
9c6c 8b        adc     a,e
9c6d 8d        adc     a,l
9c6e 80        add     a,b
9c6f 80        add     a,b
9c70 80        add     a,b
9c71 80        add     a,b
9c72 80        add     a,b
9c73 80        add     a,b
9c74 80        add     a,b
9c75 80        add     a,b
9c76 80        add     a,b
9c77 80        add     a,b
9c78 80        add     a,b
9c79 80        add     a,b
9c7a 80        add     a,b
9c7b 80        add     a,b
9c7c 80        add     a,b
9c7d 80        add     a,b
9c7e 80        add     a,b
9c7f 80        add     a,b
9c80 80        add     a,b
9c81 80        add     a,b
9c82 80        add     a,b
9c83 80        add     a,b
9c84 80        add     a,b
9c85 80        add     a,b
9c86 80        add     a,b
9c87 80        add     a,b
9c88 80        add     a,b
9c89 80        add     a,b
9c8a 80        add     a,b
9c8b 80        add     a,b
9c8c 80        add     a,b
9c8d 80        add     a,b
9c8e 80        add     a,b
9c8f 80        add     a,b
9c90 80        add     a,b
9c91 80        add     a,b
9c92 80        add     a,b
9c93 80        add     a,b
9c94 80        add     a,b
9c95 80        add     a,b
9c96 80        add     a,b
9c97 80        add     a,b
9c98 80        add     a,b
9c99 80        add     a,b
9c9a 80        add     a,b
9c9b 80        add     a,b
9c9c 80        add     a,b
9c9d 80        add     a,b
9c9e 80        add     a,b
9c9f 80        add     a,b
9ca0 80        add     a,b
9ca1 80        add     a,b
9ca2 80        add     a,b
9ca3 80        add     a,b
9ca4 80        add     a,b
9ca5 80        add     a,b
9ca6 80        add     a,b
9ca7 80        add     a,b
9ca8 80        add     a,b
9ca9 80        add     a,b
9caa 80        add     a,b
9cab 80        add     a,b
9cac 80        add     a,b
9cad 80        add     a,b
9cae 80        add     a,b
9caf 80        add     a,b
9cb0 80        add     a,b
9cb1 80        add     a,b
9cb2 80        add     a,b
9cb3 80        add     a,b
9cb4 80        add     a,b
9cb5 80        add     a,b
9cb6 80        add     a,b
9cb7 80        add     a,b
9cb8 80        add     a,b
9cb9 80        add     a,b
9cba 80        add     a,b
9cbb 80        add     a,b
9cbc 80        add     a,b
9cbd 80        add     a,b
9cbe 80        add     a,b
9cbf 80        add     a,b
9cc0 80        add     a,b
9cc1 80        add     a,b
9cc2 80        add     a,b
9cc3 80        add     a,b
9cc4 80        add     a,b
9cc5 80        add     a,b
9cc6 80        add     a,b
9cc7 80        add     a,b
9cc8 80        add     a,b
9cc9 80        add     a,b
9cca 80        add     a,b
9ccb 80        add     a,b
9ccc 80        add     a,b
9ccd 80        add     a,b
9cce 80        add     a,b
9ccf 80        add     a,b
9cd0 80        add     a,b
9cd1 80        add     a,b
9cd2 80        add     a,b
9cd3 80        add     a,b
9cd4 80        add     a,b
9cd5 80        add     a,b
9cd6 80        add     a,b
9cd7 80        add     a,b
9cd8 80        add     a,b
9cd9 80        add     a,b
9cda 80        add     a,b
9cdb 80        add     a,b
9cdc 80        add     a,b
9cdd 80        add     a,b
9cde 80        add     a,b
9cdf 80        add     a,b
9ce0 80        add     a,b
9ce1 80        add     a,b
9ce2 80        add     a,b
9ce3 80        add     a,b
9ce4 80        add     a,b
9ce5 80        add     a,b
9ce6 80        add     a,b
9ce7 80        add     a,b
9ce8 80        add     a,b
9ce9 80        add     a,b
9cea 80        add     a,b
9ceb 80        add     a,b
9cec 80        add     a,b
9ced 80        add     a,b
9cee 80        add     a,b
9cef 80        add     a,b
9cf0 80        add     a,b
9cf1 80        add     a,b
9cf2 80        add     a,b
9cf3 80        add     a,b
9cf4 80        add     a,b
9cf5 80        add     a,b
9cf6 80        add     a,b
9cf7 80        add     a,b
9cf8 80        add     a,b
9cf9 80        add     a,b
9cfa 80        add     a,b
9cfb 80        add     a,b
9cfc 80        add     a,b
9cfd 8f        adc     a,a
9cfe 80        add     a,b
9cff 80        add     a,b
9d00 80        add     a,b
9d01 80        add     a,b
9d02 80        add     a,b
9d03 8f        adc     a,a
9d04 80        add     a,b
9d05 82        add     a,d
9d06 8f        adc     a,a
9d07 85        add     a,l
9d08 8a        adc     a,d
9d09 8d        adc     a,l
9d0a 80        add     a,b
9d0b 88        adc     a,b
9d0c 8f        adc     a,a
9d0d 80        add     a,b
9d0e 8f        adc     a,a
9d0f 84        add     a,h
9d10 80        add     a,b
9d11 8e        adc     a,(hl)
9d12 85        add     a,l
9d13 80        add     a,b
9d14 80        add     a,b
9d15 8f        adc     a,a
9d16 80        add     a,b
9d17 80        add     a,b
9d18 80        add     a,b
9d19 80        add     a,b
9d1a 80        add     a,b
9d1b 8f        adc     a,a
9d1c 80        add     a,b
9d1d 82        add     a,d
9d1e 8f        adc     a,a
9d1f 85        add     a,l
9d20 8a        adc     a,d
9d21 8d        adc     a,l
9d22 80        add     a,b
9d23 88        adc     a,b
9d24 8f        adc     a,a
9d25 80        add     a,b
9d26 80        add     a,b
9d27 82        add     a,d
9d28 87        add     a,a
9d29 80        add     a,b
9d2a 80        add     a,b
9d2b 8a        adc     a,d
9d2c 8d        adc     a,l
9d2d 80        add     a,b
9d2e 88        adc     a,b
9d2f 8f        adc     a,a
9d30 80        add     a,b
9d31 8f        adc     a,a
9d32 80        add     a,b
9d33 80        add     a,b
9d34 8a        adc     a,d
9d35 85        add     a,l
9d36 88        adc     a,b
9d37 8f        adc     a,a
9d38 80        add     a,b
9d39 8a        adc     a,d
9d3a 8d        adc     a,l
9d3b 80        add     a,b
9d3c 80        add     a,b
9d3d 8a        adc     a,d
9d3e 85        add     a,l
9d3f 80        add     a,b
9d40 80        add     a,b
9d41 80        add     a,b
9d42 8f        adc     a,a
9d43 80        add     a,b
9d44 80        add     a,b
9d45 8f        adc     a,a
9d46 84        add     a,h
9d47 80        add     a,b
9d48 8e        adc     a,(hl)
9d49 85        add     a,l
9d4a 80        add     a,b
9d4b 80        add     a,b
9d4c 80        add     a,b
9d4d 8a        adc     a,d
9d4e 8d        adc     a,l
9d4f 80        add     a,b
9d50 8e        adc     a,(hl)
9d51 85        add     a,l
9d52 80        add     a,b
9d53 80        add     a,b
9d54 80        add     a,b
9d55 8e        adc     a,(hl)
9d56 85        add     a,l
9d57 80        add     a,b
9d58 8f        adc     a,a
9d59 84        add     a,h
9d5a 8a        adc     a,d
9d5b 85        add     a,l
9d5c 80        add     a,b
9d5d 80        add     a,b
9d5e 8f        adc     a,a
9d5f 80        add     a,b
9d60 8f        adc     a,a
9d61 80        add     a,b
9d62 80        add     a,b
9d63 80        add     a,b
9d64 80        add     a,b
9d65 8f        adc     a,a
9d66 80        add     a,b
9d67 8b        adc     a,e
9d68 8d        adc     a,l
9d69 80        add     a,b
9d6a 80        add     a,b
9d6b 8a        adc     a,d
9d6c 85        add     a,l
9d6d 80        add     a,b
9d6e 8a        adc     a,d
9d6f 8d        adc     a,l
9d70 80        add     a,b
9d71 88        adc     a,b
9d72 8f        adc     a,a
9d73 80        add     a,b
9d74 8e        adc     a,(hl)
9d75 85        add     a,l
9d76 80        add     a,b
9d77 8f        adc     a,a
9d78 84        add     a,h
9d79 8a        adc     a,d
9d7a 85        add     a,l
9d7b 80        add     a,b
9d7c 8b        adc     a,e
9d7d 8f        adc     a,a
9d7e 80        add     a,b
9d7f 80        add     a,b
9d80 80        add     a,b
9d81 8a        adc     a,d
9d82 85        add     a,l
9d83 80        add     a,b
9d84 80        add     a,b
9d85 80        add     a,b
9d86 80        add     a,b
9d87 8f        adc     a,a
9d88 84        add     a,h
9d89 80        add     a,b
9d8a 8e        adc     a,(hl)
9d8b 85        add     a,l
9d8c 8a        adc     a,d
9d8d 85        add     a,l
9d8e 8b        adc     a,e
9d8f 8d        adc     a,l
9d90 80        add     a,b
9d91 80        add     a,b
9d92 8f        adc     a,a
9d93 80        add     a,b
9d94 80        add     a,b
9d95 80        add     a,b
9d96 80        add     a,b
9d97 8f        adc     a,a
9d98 80        add     a,b
9d99 8b        adc     a,e
9d9a 8d        adc     a,l
9d9b 80        add     a,b
9d9c 80        add     a,b
9d9d 80        add     a,b
9d9e 80        add     a,b
9d9f 8e        adc     a,(hl)
9da0 87        add     a,a
9da1 8e        adc     a,(hl)
9da2 87        add     a,a
9da3 80        add     a,b
9da4 80        add     a,b
9da5 80        add     a,b
9da6 80        add     a,b
9da7 88        adc     a,b
9da8 8c        adc     a,h
9da9 8e        adc     a,(hl)
9daa 8f        adc     a,a
9dab 8c        adc     a,h
9dac 8c        adc     a,h
9dad 8f        adc     a,a
9dae 8d        adc     a,l
9daf 8c        adc     a,h
9db0 84        add     a,h
9db1 80        add     a,b
9db2 8a        adc     a,d
9db3 8d        adc     a,l
9db4 80        add     a,b
9db5 88        adc     a,b
9db6 8f        adc     a,a
9db7 80        add     a,b
9db8 80        add     a,b
9db9 8f        adc     a,a
9dba 84        add     a,h
9dbb 80        add     a,b
9dbc 8e        adc     a,(hl)
9dbd 85        add     a,l
9dbe 8a        adc     a,d
9dbf 8d        adc     a,l
9dc0 80        add     a,b
9dc1 88        adc     a,b
9dc2 8f        adc     a,a
9dc3 80        add     a,b
9dc4 8f        adc     a,a
9dc5 84        add     a,h
9dc6 80        add     a,b
9dc7 8e        adc     a,(hl)
9dc8 85        add     a,l
9dc9 80        add     a,b
9dca 80        add     a,b
9dcb 80        add     a,b
9dcc 80        add     a,b
9dcd 8b        adc     a,e
9dce 8d        adc     a,l
9dcf 8b        adc     a,e
9dd0 8d        adc     a,l
9dd1 80        add     a,b
9dd2 80        add     a,b
9dd3 80        add     a,b
9dd4 80        add     a,b
9dd5 80        add     a,b
9dd6 80        add     a,b
9dd7 80        add     a,b
9dd8 80        add     a,b
9dd9 80        add     a,b
9dda 80        add     a,b
9ddb 80        add     a,b
9ddc 80        add     a,b
9ddd 80        add     a,b
9dde 80        add     a,b
9ddf 80        add     a,b
9de0 80        add     a,b
9de1 80        add     a,b
9de2 80        add     a,b
9de3 80        add     a,b
9de4 80        add     a,b
9de5 80        add     a,b
9de6 80        add     a,b
9de7 80        add     a,b
9de8 80        add     a,b
9de9 80        add     a,b
9dea 80        add     a,b
9deb 80        add     a,b
9dec 80        add     a,b
9ded 80        add     a,b
9dee 80        add     a,b
9def 80        add     a,b
9df0 80        add     a,b
9df1 80        add     a,b
9df2 80        add     a,b
9df3 80        add     a,b
9df4 80        add     a,b
9df5 80        add     a,b
9df6 80        add     a,b
9df7 80        add     a,b
9df8 80        add     a,b
9df9 80        add     a,b
9dfa 80        add     a,b
9dfb 80        add     a,b
9dfc 80        add     a,b
9dfd 80        add     a,b
9dfe 80        add     a,b
9dff 80        add     a,b
9e00 80        add     a,b
9e01 80        add     a,b
9e02 80        add     a,b
9e03 80        add     a,b
9e04 80        add     a,b
9e05 80        add     a,b
9e06 80        add     a,b
9e07 80        add     a,b
9e08 80        add     a,b
9e09 80        add     a,b
9e0a 80        add     a,b
9e0b 80        add     a,b
9e0c 80        add     a,b
9e0d 80        add     a,b
9e0e 80        add     a,b
9e0f 80        add     a,b
9e10 80        add     a,b
9e11 80        add     a,b
9e12 80        add     a,b
9e13 80        add     a,b
9e14 80        add     a,b
9e15 80        add     a,b
9e16 80        add     a,b
9e17 80        add     a,b
9e18 80        add     a,b
9e19 80        add     a,b
9e1a 80        add     a,b
9e1b 80        add     a,b
9e1c 80        add     a,b
9e1d 80        add     a,b
9e1e 80        add     a,b
9e1f 80        add     a,b
9e20 80        add     a,b
9e21 80        add     a,b
9e22 80        add     a,b
9e23 80        add     a,b
9e24 80        add     a,b
9e25 80        add     a,b
9e26 80        add     a,b
9e27 80        add     a,b
9e28 80        add     a,b
9e29 80        add     a,b
9e2a 80        add     a,b
9e2b 80        add     a,b
9e2c 80        add     a,b
9e2d 80        add     a,b
9e2e 80        add     a,b
9e2f 80        add     a,b
9e30 80        add     a,b
9e31 80        add     a,b
9e32 80        add     a,b
9e33 80        add     a,b
9e34 80        add     a,b
9e35 80        add     a,b
9e36 80        add     a,b
9e37 80        add     a,b
9e38 80        add     a,b
9e39 80        add     a,b
9e3a 80        add     a,b
9e3b 80        add     a,b
9e3c 80        add     a,b
9e3d 80        add     a,b
9e3e 80        add     a,b
9e3f 80        add     a,b
9e40 80        add     a,b
9e41 80        add     a,b
9e42 80        add     a,b
9e43 80        add     a,b
9e44 80        add     a,b
9e45 80        add     a,b
9e46 80        add     a,b
9e47 80        add     a,b
9e48 80        add     a,b
9e49 80        add     a,b
9e4a 80        add     a,b
9e4b 80        add     a,b
9e4c 80        add     a,b
9e4d 80        add     a,b
9e4e 80        add     a,b
9e4f 80        add     a,b
9e50 80        add     a,b
9e51 80        add     a,b
9e52 80        add     a,b
9e53 80        add     a,b
9e54 80        add     a,b
9e55 80        add     a,b
9e56 80        add     a,b
9e57 80        add     a,b
9e58 80        add     a,b
9e59 80        add     a,b
9e5a 80        add     a,b
9e5b 80        add     a,b
9e5c 80        add     a,b
9e5d 80        add     a,b
9e5e 80        add     a,b
9e5f 8f        adc     a,a
9e60 8f        adc     a,a
9e61 8f        adc     a,a
9e62 8f        adc     a,a
9e63 8f        adc     a,a
9e64 80        add     a,b
9e65 8f        adc     a,a
9e66 80        add     a,b
9e67 80        add     a,b
9e68 8b        adc     a,e
9e69 85        add     a,l
9e6a 80        add     a,b
9e6b 8b        adc     a,e
9e6c 8f        adc     a,a
9e6d 8f        adc     a,a
9e6e 83        add     a,e
9e6f 80        add     a,b
9e70 82        add     a,d
9e71 8f        adc     a,a
9e72 8f        adc     a,a
9e73 87        add     a,a
9e74 80        add     a,b
9e75 80        add     a,b
9e76 80        add     a,b
9e77 8f        adc     a,a
9e78 80        add     a,b
9e79 80        add     a,b
9e7a 80        add     a,b
9e7b 80        add     a,b
9e7c 80        add     a,b
9e7d 8f        adc     a,a
9e7e 80        add     a,b
9e7f 80        add     a,b
9e80 8b        adc     a,e
9e81 85        add     a,l
9e82 80        add     a,b
9e83 8b        adc     a,e
9e84 8f        adc     a,a
9e85 8f        adc     a,a
9e86 81        add     a,c
9e87 80        add     a,b
9e88 80        add     a,b
9e89 80        add     a,b
9e8a 85        add     a,l
9e8b 80        add     a,b
9e8c 80        add     a,b
9e8d 80        add     a,b
9e8e 8b        adc     a,e
9e8f 8f        adc     a,a
9e90 8f        adc     a,a
9e91 81        add     a,c
9e92 80        add     a,b
9e93 8f        adc     a,a
9e94 80        add     a,b
9e95 80        add     a,b
9e96 8a        adc     a,d
9e97 85        add     a,l
9e98 8a        adc     a,d
9e99 85        add     a,l
9e9a 80        add     a,b
9e9b 80        add     a,b
9e9c 8f        adc     a,a
9e9d 80        add     a,b
9e9e 80        add     a,b
9e9f 8a        adc     a,d
9ea0 85        add     a,l
9ea1 80        add     a,b
9ea2 80        add     a,b
9ea3 8f        adc     a,a
9ea4 8f        adc     a,a
9ea5 8f        adc     a,a
9ea6 80        add     a,b
9ea7 82        add     a,d
9ea8 8f        adc     a,a
9ea9 8f        adc     a,a
9eaa 87        add     a,a
9eab 80        add     a,b
9eac 80        add     a,b
9ead 80        add     a,b
9eae 80        add     a,b
9eaf 80        add     a,b
9eb0 8b        adc     a,e
9eb1 8f        adc     a,a
9eb2 87        add     a,a
9eb3 80        add     a,b
9eb4 80        add     a,b
9eb5 80        add     a,b
9eb6 80        add     a,b
9eb7 8f        adc     a,a
9eb8 80        add     a,b
9eb9 80        add     a,b
9eba 8a        adc     a,d
9ebb 85        add     a,l
9ebc 8a        adc     a,d
9ebd 85        add     a,l
9ebe 80        add     a,b
9ebf 80        add     a,b
9ec0 8f        adc     a,a
9ec1 80        add     a,b
9ec2 8f        adc     a,a
9ec3 8f        adc     a,a
9ec4 8f        adc     a,a
9ec5 8f        adc     a,a
9ec6 80        add     a,b
9ec7 8f        adc     a,a
9ec8 80        add     a,b
9ec9 80        add     a,b
9eca 8b        adc     a,e
9ecb 85        add     a,l
9ecc 8a        adc     a,d
9ecd 8f        adc     a,a
9ece 8f        adc     a,a
9ecf 85        add     a,l
9ed0 80        add     a,b
9ed1 8b        adc     a,e
9ed2 8f        adc     a,a
9ed3 8f        adc     a,a
9ed4 81        add     a,c
9ed5 80        add     a,b
9ed6 8f        adc     a,a
9ed7 80        add     a,b
9ed8 80        add     a,b
9ed9 8a        adc     a,d
9eda 85        add     a,l
9edb 8a        adc     a,d
9edc 85        add     a,l
9edd 80        add     a,b
9ede 82        add     a,d
9edf 8f        adc     a,a
9ee0 80        add     a,b
9ee1 80        add     a,b
9ee2 80        add     a,b
9ee3 8a        adc     a,d
9ee4 85        add     a,l
9ee5 80        add     a,b
9ee6 80        add     a,b
9ee7 80        add     a,b
9ee8 80        add     a,b
9ee9 82        add     a,d
9eea 8f        adc     a,a
9eeb 8f        adc     a,a
9eec 87        add     a,a
9eed 80        add     a,b
9eee 8a        adc     a,d
9eef 85        add     a,l
9ef0 80        add     a,b
9ef1 8b        adc     a,e
9ef2 8d        adc     a,l
9ef3 80        add     a,b
9ef4 8f        adc     a,a
9ef5 8f        adc     a,a
9ef6 8f        adc     a,a
9ef7 8f        adc     a,a
9ef8 80        add     a,b
9ef9 8f        adc     a,a
9efa 80        add     a,b
9efb 80        add     a,b
9efc 8b        adc     a,e
9efd 85        add     a,l
9efe 80        add     a,b
9eff 80        add     a,b
9f00 8e        adc     a,(hl)
9f01 87        add     a,a
9f02 8e        adc     a,(hl)
9f03 87        add     a,a
9f04 80        add     a,b
9f05 80        add     a,b
9f06 80        add     a,b
9f07 80        add     a,b
9f08 80        add     a,b
9f09 8a        adc     a,d
9f0a 8f        adc     a,a
9f0b 8f        adc     a,a
9f0c 8f        adc     a,a
9f0d 8f        adc     a,a
9f0e 8f        adc     a,a
9f0f 8f        adc     a,a
9f10 8f        adc     a,a
9f11 8f        adc     a,a
9f12 85        add     a,l
9f13 80        add     a,b
9f14 80        add     a,b
9f15 8b        adc     a,e
9f16 8f        adc     a,a
9f17 8f        adc     a,a
9f18 81        add     a,c
9f19 80        add     a,b
9f1a 80        add     a,b
9f1b 82        add     a,d
9f1c 8f        adc     a,a
9f1d 8f        adc     a,a
9f1e 87        add     a,a
9f1f 80        add     a,b
9f20 80        add     a,b
9f21 8b        adc     a,e
9f22 8f        adc     a,a
9f23 8f        adc     a,a
9f24 81        add     a,c
9f25 80        add     a,b
9f26 82        add     a,d
9f27 8f        adc     a,a
9f28 8f        adc     a,a
9f29 87        add     a,a
9f2a 80        add     a,b
9f2b 80        add     a,b
9f2c 80        add     a,b
9f2d 80        add     a,b
9f2e 80        add     a,b
9f2f 80        add     a,b
9f30 8b        adc     a,e
9f31 8d        adc     a,l
9f32 8b        adc     a,e
9f33 8d        adc     a,l
9f34 80        add     a,b
9f35 80        add     a,b
9f36 80        add     a,b
9f37 80        add     a,b
9f38 80        add     a,b
9f39 80        add     a,b
9f3a 80        add     a,b
9f3b 80        add     a,b
9f3c 80        add     a,b
9f3d 80        add     a,b
9f3e 80        add     a,b
9f3f 80        add     a,b
9f40 80        add     a,b
9f41 80        add     a,b
9f42 80        add     a,b
9f43 80        add     a,b
9f44 80        add     a,b
9f45 80        add     a,b
9f46 80        add     a,b
9f47 80        add     a,b
9f48 80        add     a,b
9f49 80        add     a,b
9f4a 80        add     a,b
9f4b 80        add     a,b
9f4c 80        add     a,b
9f4d 80        add     a,b
9f4e 80        add     a,b
9f4f 80        add     a,b
9f50 80        add     a,b
9f51 80        add     a,b
9f52 80        add     a,b
9f53 80        add     a,b
9f54 80        add     a,b
9f55 80        add     a,b
9f56 80        add     a,b
9f57 80        add     a,b
9f58 80        add     a,b
9f59 80        add     a,b
9f5a 80        add     a,b
9f5b 80        add     a,b
9f5c 80        add     a,b
9f5d 80        add     a,b
9f5e 80        add     a,b
9f5f 80        add     a,b
9f60 80        add     a,b
9f61 80        add     a,b
9f62 80        add     a,b
9f63 80        add     a,b
9f64 80        add     a,b
9f65 80        add     a,b
9f66 80        add     a,b
9f67 80        add     a,b
9f68 80        add     a,b
9f69 80        add     a,b
9f6a 80        add     a,b
9f6b 80        add     a,b
9f6c 80        add     a,b
9f6d 80        add     a,b
9f6e 80        add     a,b
9f6f 80        add     a,b
9f70 80        add     a,b
9f71 80        add     a,b
9f72 80        add     a,b
9f73 80        add     a,b
9f74 80        add     a,b
9f75 80        add     a,b
9f76 80        add     a,b
9f77 80        add     a,b
9f78 80        add     a,b
9f79 80        add     a,b
9f7a 80        add     a,b
9f7b 80        add     a,b
9f7c 80        add     a,b
9f7d 80        add     a,b
9f7e 80        add     a,b
9f7f 80        add     a,b
9f80 80        add     a,b
9f81 80        add     a,b
9f82 80        add     a,b
9f83 80        add     a,b
9f84 80        add     a,b
9f85 80        add     a,b
9f86 80        add     a,b
9f87 80        add     a,b
9f88 80        add     a,b
9f89 80        add     a,b
9f8a 80        add     a,b
9f8b 80        add     a,b
9f8c 80        add     a,b
9f8d 80        add     a,b
9f8e 80        add     a,b
9f8f 80        add     a,b
9f90 80        add     a,b
9f91 80        add     a,b
9f92 80        add     a,b
9f93 80        add     a,b
9f94 80        add     a,b
9f95 80        add     a,b
9f96 80        add     a,b
9f97 80        add     a,b
9f98 80        add     a,b
9f99 80        add     a,b
9f9a 80        add     a,b
9f9b 80        add     a,b
9f9c 80        add     a,b
9f9d 80        add     a,b
9f9e 80        add     a,b
9f9f 80        add     a,b
9fa0 80        add     a,b
9fa1 80        add     a,b
9fa2 80        add     a,b
9fa3 80        add     a,b
9fa4 80        add     a,b
9fa5 80        add     a,b
9fa6 80        add     a,b
9fa7 80        add     a,b
9fa8 80        add     a,b
9fa9 80        add     a,b
9faa 80        add     a,b
9fab 80        add     a,b
9fac 80        add     a,b
9fad 80        add     a,b
9fae 80        add     a,b
9faf 80        add     a,b
9fb0 80        add     a,b
9fb1 80        add     a,b
9fb2 80        add     a,b
9fb3 80        add     a,b
9fb4 80        add     a,b
9fb5 80        add     a,b
9fb6 80        add     a,b
9fb7 80        add     a,b
9fb8 80        add     a,b
9fb9 80        add     a,b
9fba 80        add     a,b
9fbb 80        add     a,b
9fbc 80        add     a,b
9fbd 80        add     a,b
9fbe 80        add     a,b
9fbf 80        add     a,b
9fc0 8a        adc     a,d
9fc1 8f        adc     a,a
9fc2 8f        adc     a,a
9fc3 8f        adc     a,a
9fc4 8f        adc     a,a
9fc5 85        add     a,l
9fc6 8a        adc     a,d
9fc7 8d        adc     a,l
9fc8 80        add     a,b
9fc9 80        add     a,b
9fca 8f        adc     a,a
9fcb 80        add     a,b
9fcc 80        add     a,b
9fcd 80        add     a,b
9fce 80        add     a,b
9fcf 8a        adc     a,d
9fd0 85        add     a,l
9fd1 80        add     a,b
9fd2 8e        adc     a,(hl)
9fd3 8f        adc     a,a
9fd4 8f        adc     a,a
9fd5 84        add     a,h
9fd6 80        add     a,b
9fd7 8f        adc     a,a
9fd8 84        add     a,h
9fd9 88        adc     a,b
9fda 8f        adc     a,a
9fdb 80        add     a,b
9fdc 80        add     a,b
9fdd 80        add     a,b
9fde 8a        adc     a,d
9fdf 8d        adc     a,l
9fe0 80        add     a,b
9fe1 80        add     a,b
9fe2 8f        adc     a,a
9fe3 80        add     a,b
9fe4 88        adc     a,b
9fe5 8f        adc     a,a
9fe6 8f        adc     a,a
9fe7 8d        adc     a,l
9fe8 80        add     a,b
9fe9 8a        adc     a,d
9fea 85        add     a,l
9feb 80        add     a,b
9fec 80        add     a,b
9fed 8f        adc     a,a
9fee 80        add     a,b
9fef 88        adc     a,b
9ff0 8f        adc     a,a
9ff1 8f        adc     a,a
9ff2 8d        adc     a,l
9ff3 80        add     a,b
9ff4 8a        adc     a,d
9ff5 85        add     a,l
9ff6 80        add     a,b
9ff7 80        add     a,b
9ff8 8f        adc     a,a
9ff9 80        add     a,b
9ffa 80        add     a,b
9ffb 80        add     a,b
9ffc 85        add     a,l
9ffd 80        add     a,b
9ffe 80        add     a,b
9fff 8a        adc     a,d
a000 8f        adc     a,a
a001 8f        adc     a,a
a002 8f        adc     a,a
a003 85        add     a,l
a004 8a        adc     a,d
a005 8f        adc     a,a
a006 8f        adc     a,a
a007 85        add     a,l
a008 80        add     a,b
a009 8e        adc     a,(hl)
a00a 8f        adc     a,a
a00b 8f        adc     a,a
a00c 84        add     a,h
a00d 80        add     a,b
a00e 8f        adc     a,a
a00f 85        add     a,l
a010 80        add     a,b
a011 88        adc     a,b
a012 8f        adc     a,a
a013 8f        adc     a,a
a014 84        add     a,h
a015 80        add     a,b
a016 80        add     a,b
a017 80        add     a,b
a018 80        add     a,b
a019 80        add     a,b
a01a 8a        adc     a,d
a01b 80        add     a,b
a01c 80        add     a,b
a01d 80        add     a,b
a01e 8f        adc     a,a
a01f 80        add     a,b
a020 80        add     a,b
a021 8a        adc     a,d
a022 85        add     a,l
a023 8a        adc     a,d
a024 8f        adc     a,a
a025 8f        adc     a,a
a026 8f        adc     a,a
a027 85        add     a,l
a028 8a        adc     a,d
a029 8f        adc     a,a
a02a 8f        adc     a,a
a02b 8f        adc     a,a
a02c 84        add     a,h
a02d 80        add     a,b
a02e 8f        adc     a,a
a02f 8f        adc     a,a
a030 8f        adc     a,a
a031 80        add     a,b
a032 88        adc     a,b
a033 8f        adc     a,a
a034 8f        adc     a,a
a035 8d        adc     a,l
a036 80        add     a,b
a037 80        add     a,b
a038 80        add     a,b
a039 8a        adc     a,d
a03a 80        add     a,b
a03b 80        add     a,b
a03c 80        add     a,b
a03d 8f        adc     a,a
a03e 84        add     a,h
a03f 80        add     a,b
a040 8a        adc     a,d
a041 85        add     a,l
a042 80        add     a,b
a043 80        add     a,b
a044 80        add     a,b
a045 8f        adc     a,a
a046 8f        adc     a,a
a047 8f        adc     a,a
a048 8d        adc     a,l
a049 80        add     a,b
a04a 80        add     a,b
a04b 8e        adc     a,(hl)
a04c 8f        adc     a,a
a04d 8f        adc     a,a
a04e 84        add     a,h
a04f 80        add     a,b
a050 8f        adc     a,a
a051 80        add     a,b
a052 88        adc     a,b
a053 8f        adc     a,a
a054 81        add     a,c
a055 8a        adc     a,d
a056 8f        adc     a,a
a057 8f        adc     a,a
a058 8f        adc     a,a
a059 85        add     a,l
a05a 8a        adc     a,d
a05b 8f        adc     a,a
a05c 8f        adc     a,a
a05d 8f        adc     a,a
a05e 84        add     a,h
a05f 80        add     a,b
a060 80        add     a,b
a061 82        add     a,d
a062 8f        adc     a,a
a063 86        add     a,(hl)
a064 8f        adc     a,a
a065 84        add     a,h
a066 80        add     a,b
a067 80        add     a,b
a068 80        add     a,b
a069 80        add     a,b
a06a 80        add     a,b
a06b 8f        adc     a,a
a06c 8f        adc     a,a
a06d 8f        adc     a,a
a06e 8f        adc     a,a
a06f 8f        adc     a,a
a070 8f        adc     a,a
a071 8f        adc     a,a
a072 8f        adc     a,a
a073 8f        adc     a,a
a074 80        add     a,b
a075 80        add     a,b
a076 8f        adc     a,a
a077 8f        adc     a,a
a078 8f        adc     a,a
a079 8f        adc     a,a
a07a 85        add     a,l
a07b 80        add     a,b
a07c 80        add     a,b
a07d 8e        adc     a,(hl)
a07e 8f        adc     a,a
a07f 8f        adc     a,a
a080 84        add     a,h
a081 80        add     a,b
a082 88        adc     a,b
a083 8f        adc     a,a
a084 8f        adc     a,a
a085 8d        adc     a,l
a086 80        add     a,b
a087 80        add     a,b
a088 8e        adc     a,(hl)
a089 8f        adc     a,a
a08a 8f        adc     a,a
a08b 84        add     a,h
a08c 80        add     a,b
a08d 80        add     a,b
a08e 80        add     a,b
a08f 80        add     a,b
a090 80        add     a,b
a091 88        adc     a,b
a092 8f        adc     a,a
a093 89        adc     a,c
a094 8f        adc     a,a
a095 81        add     a,c
a096 80        add     a,b
a097 80        add     a,b
a098 80        add     a,b
a099 80        add     a,b
a09a 80        add     a,b
a09b 80        add     a,b
a09c 80        add     a,b
a09d 80        add     a,b
a09e 80        add     a,b
a09f 80        add     a,b
a0a0 80        add     a,b
a0a1 80        add     a,b
a0a2 80        add     a,b
a0a3 80        add     a,b
a0a4 80        add     a,b
a0a5 80        add     a,b
a0a6 80        add     a,b
a0a7 80        add     a,b
a0a8 80        add     a,b
a0a9 80        add     a,b
a0aa 80        add     a,b
a0ab 80        add     a,b
a0ac 80        add     a,b
a0ad 80        add     a,b
a0ae 80        add     a,b
a0af 80        add     a,b
a0b0 80        add     a,b
a0b1 80        add     a,b
a0b2 80        add     a,b
a0b3 80        add     a,b
a0b4 80        add     a,b
a0b5 80        add     a,b
a0b6 80        add     a,b
a0b7 80        add     a,b
a0b8 80        add     a,b
a0b9 80        add     a,b
a0ba 80        add     a,b
a0bb 80        add     a,b
a0bc 80        add     a,b
a0bd 80        add     a,b
a0be 80        add     a,b
a0bf 80        add     a,b
a0c0 80        add     a,b
a0c1 80        add     a,b
a0c2 80        add     a,b
a0c3 80        add     a,b
a0c4 80        add     a,b
a0c5 80        add     a,b
a0c6 80        add     a,b
a0c7 80        add     a,b
a0c8 80        add     a,b
a0c9 80        add     a,b
a0ca 80        add     a,b
a0cb 80        add     a,b
a0cc 80        add     a,b
a0cd 80        add     a,b
a0ce 80        add     a,b
a0cf 80        add     a,b
a0d0 80        add     a,b
a0d1 80        add     a,b
a0d2 80        add     a,b
a0d3 80        add     a,b
a0d4 80        add     a,b
a0d5 81        add     a,c
a0d6 80        add     a,b
a0d7 80        add     a,b
a0d8 80        add     a,b
a0d9 80        add     a,b
a0da 80        add     a,b
a0db 80        add     a,b
a0dc 80        add     a,b
a0dd 80        add     a,b
a0de 80        add     a,b
a0df 80        add     a,b
a0e0 80        add     a,b
a0e1 80        add     a,b
a0e2 80        add     a,b
a0e3 80        add     a,b
a0e4 80        add     a,b
a0e5 80        add     a,b
a0e6 80        add     a,b
a0e7 80        add     a,b
a0e8 80        add     a,b
a0e9 80        add     a,b
a0ea 80        add     a,b
a0eb 80        add     a,b
a0ec 80        add     a,b
a0ed 80        add     a,b
a0ee 80        add     a,b
a0ef 80        add     a,b
a0f0 80        add     a,b
a0f1 80        add     a,b
a0f2 80        add     a,b
a0f3 80        add     a,b
a0f4 80        add     a,b
a0f5 80        add     a,b
a0f6 80        add     a,b
a0f7 80        add     a,b
a0f8 80        add     a,b
a0f9 80        add     a,b
a0fa 80        add     a,b
a0fb 80        add     a,b
a0fc 80        add     a,b
a0fd 80        add     a,b
a0fe 80        add     a,b
a0ff 80        add     a,b
a100 80        add     a,b
a101 80        add     a,b
a102 80        add     a,b
a103 80        add     a,b
a104 80        add     a,b
a105 80        add     a,b
a106 80        add     a,b
a107 80        add     a,b
a108 80        add     a,b
a109 80        add     a,b
a10a 80        add     a,b
a10b 80        add     a,b
a10c 80        add     a,b
a10d 80        add     a,b
a10e 80        add     a,b
a10f 80        add     a,b
a110 80        add     a,b
a111 80        add     a,b
a112 80        add     a,b
a113 80        add     a,b
a114 80        add     a,b
a115 80        add     a,b
a116 80        add     a,b
a117 80        add     a,b
a118 80        add     a,b
a119 80        add     a,b
a11a 80        add     a,b
a11b 80        add     a,b
a11c 80        add     a,b
a11d 80        add     a,b
a11e 80        add     a,b
a11f 80        add     a,b
a120 80        add     a,b
a121 80        add     a,b
a122 8a        adc     a,d
a123 85        add     a,l
a124 80        add     a,b
a125 80        add     a,b
a126 80        add     a,b
a127 80        add     a,b
a128 8a        adc     a,d
a129 8f        adc     a,a
a12a 84        add     a,h
a12b 80        add     a,b
a12c 8f        adc     a,a
a12d 80        add     a,b
a12e 80        add     a,b
a12f 80        add     a,b
a130 80        add     a,b
a131 8a        adc     a,d
a132 85        add     a,l
a133 8a        adc     a,d
a134 87        add     a,a
a135 80        add     a,b
a136 82        add     a,d
a137 8f        adc     a,a
a138 80        add     a,b
a139 8a        adc     a,d
a13a 8d        adc     a,l
a13b 8e        adc     a,(hl)
a13c 85        add     a,l
a13d 80        add     a,b
a13e 80        add     a,b
a13f 80        add     a,b
a140 8a        adc     a,d
a141 8f        adc     a,a
a142 84        add     a,h
a143 80        add     a,b
a144 8f        adc     a,a
a145 80        add     a,b
a146 8f        adc     a,a
a147 81        add     a,c
a148 80        add     a,b
a149 8b        adc     a,e
a14a 85        add     a,l
a14b 82        add     a,d
a14c 8f        adc     a,a
a14d 80        add     a,b
a14e 8a        adc     a,d
a14f 87        add     a,a
a150 80        add     a,b
a151 8f        adc     a,a
a152 81        add     a,c
a153 80        add     a,b
a154 8b        adc     a,e
a155 85        add     a,l
a156 8a        adc     a,d
a157 8f        adc     a,a
a158 80        add     a,b
a159 8a        adc     a,d
a15a 8f        adc     a,a
a15b 80        add     a,b
a15c 80        add     a,b
a15d 8a        adc     a,d
a15e 8f        adc     a,a
a15f 80        add     a,b
a160 80        add     a,b
a161 80        add     a,b
a162 80        add     a,b
a163 8f        adc     a,a
a164 80        add     a,b
a165 80        add     a,b
a166 80        add     a,b
a167 8a        adc     a,d
a168 85        add     a,l
a169 80        add     a,b
a16a 8a        adc     a,d
a16b 87        add     a,a
a16c 80        add     a,b
a16d 82        add     a,d
a16e 8f        adc     a,a
a16f 80        add     a,b
a170 8a        adc     a,d
a171 85        add     a,l
a172 80        add     a,b
a173 8f        adc     a,a
a174 81        add     a,c
a175 82        add     a,d
a176 8f        adc     a,a
a177 80        add     a,b
a178 80        add     a,b
a179 80        add     a,b
a17a 80        add     a,b
a17b 80        add     a,b
a17c 8f        adc     a,a
a17d 85        add     a,l
a17e 80        add     a,b
a17f 80        add     a,b
a180 8f        adc     a,a
a181 85        add     a,l
a182 80        add     a,b
a183 8f        adc     a,a
a184 85        add     a,l
a185 8a        adc     a,d
a186 85        add     a,l
a187 80        add     a,b
a188 80        add     a,b
a189 80        add     a,b
a18a 8a        adc     a,d
a18b 85        add     a,l
a18c 80        add     a,b
a18d 82        add     a,d
a18e 8f        adc     a,a
a18f 80        add     a,b
a190 80        add     a,b
a191 8f        adc     a,a
a192 80        add     a,b
a193 80        add     a,b
a194 8f        adc     a,a
a195 81        add     a,c
a196 80        add     a,b
a197 8b        adc     a,e
a198 85        add     a,l
a199 80        add     a,b
a19a 80        add     a,b
a19b 8f        adc     a,a
a19c 85        add     a,l
a19d 80        add     a,b
a19e 80        add     a,b
a19f 8f        adc     a,a
a1a0 8d        adc     a,l
a1a1 80        add     a,b
a1a2 8a        adc     a,d
a1a3 85        add     a,l
a1a4 80        add     a,b
a1a5 80        add     a,b
a1a6 80        add     a,b
a1a7 8f        adc     a,a
a1a8 80        add     a,b
a1a9 80        add     a,b
a1aa 8b        adc     a,e
a1ab 85        add     a,l
a1ac 8a        adc     a,d
a1ad 87        add     a,a
a1ae 80        add     a,b
a1af 82        add     a,d
a1b0 8f        adc     a,a
a1b1 80        add     a,b
a1b2 8f        adc     a,a
a1b3 88        adc     a,b
a1b4 8f        adc     a,a
a1b5 81        add     a,c
a1b6 80        add     a,b
a1b7 8a        adc     a,d
a1b8 85        add     a,l
a1b9 80        add     a,b
a1ba 80        add     a,b
a1bb 80        add     a,b
a1bc 8a        adc     a,d
a1bd 85        add     a,l
a1be 80        add     a,b
a1bf 82        add     a,d
a1c0 8f        adc     a,a
a1c1 80        add     a,b
a1c2 80        add     a,b
a1c3 80        add     a,b
a1c4 82        add     a,d
a1c5 8f        adc     a,a
a1c6 86        add     a,(hl)
a1c7 8f        adc     a,a
a1c8 84        add     a,h
a1c9 80        add     a,b
a1ca 80        add     a,b
a1cb 80        add     a,b
a1cc 80        add     a,b
a1cd 83        add     a,e
a1ce 83        add     a,e
a1cf 8f        adc     a,a
a1d0 87        add     a,a
a1d1 83        add     a,e
a1d2 8b        adc     a,e
a1d3 8f        adc     a,a
a1d4 83        add     a,e
a1d5 83        add     a,e
a1d6 80        add     a,b
a1d7 80        add     a,b
a1d8 8f        adc     a,a
a1d9 80        add     a,b
a1da 80        add     a,b
a1db 80        add     a,b
a1dc 80        add     a,b
a1dd 80        add     a,b
a1de 8a        adc     a,d
a1df 87        add     a,a
a1e0 80        add     a,b
a1e1 82        add     a,d
a1e2 8f        adc     a,a
a1e3 80        add     a,b
a1e4 8f        adc     a,a
a1e5 81        add     a,c
a1e6 80        add     a,b
a1e7 8b        adc     a,e
a1e8 85        add     a,l
a1e9 8a        adc     a,d
a1ea 87        add     a,a
a1eb 80        add     a,b
a1ec 82        add     a,d
a1ed 8f        adc     a,a
a1ee 80        add     a,b
a1ef 80        add     a,b
a1f0 80        add     a,b
a1f1 80        add     a,b
a1f2 88        adc     a,b
a1f3 8f        adc     a,a
a1f4 89        adc     a,c
a1f5 8f        adc     a,a
a1f6 81        add     a,c
a1f7 80        add     a,b
a1f8 80        add     a,b
a1f9 80        add     a,b
a1fa 80        add     a,b
a1fb 80        add     a,b
a1fc 80        add     a,b
a1fd 80        add     a,b
a1fe 80        add     a,b
a1ff 80        add     a,b
a200 80        add     a,b
a201 80        add     a,b
a202 80        add     a,b
a203 80        add     a,b
a204 80        add     a,b
a205 80        add     a,b
a206 80        add     a,b
a207 80        add     a,b
a208 80        add     a,b
a209 80        add     a,b
a20a 80        add     a,b
a20b 80        add     a,b
a20c 80        add     a,b
a20d 80        add     a,b
a20e 80        add     a,b
a20f 80        add     a,b
a210 80        add     a,b
a211 80        add     a,b
a212 80        add     a,b
a213 80        add     a,b
a214 80        add     a,b
a215 80        add     a,b
a216 80        add     a,b
a217 80        add     a,b
a218 80        add     a,b
a219 80        add     a,b
a21a 80        add     a,b
a21b 80        add     a,b
a21c 80        add     a,b
a21d 80        add     a,b
a21e 80        add     a,b
a21f 80        add     a,b
a220 80        add     a,b
a221 80        add     a,b
a222 80        add     a,b
a223 80        add     a,b
a224 80        add     a,b
a225 80        add     a,b
a226 80        add     a,b
a227 80        add     a,b
a228 80        add     a,b
a229 80        add     a,b
a22a 80        add     a,b
a22b 80        add     a,b
a22c 80        add     a,b
a22d 80        add     a,b
a22e 80        add     a,b
a22f 80        add     a,b
a230 80        add     a,b
a231 80        add     a,b
a232 80        add     a,b
a233 80        add     a,b
a234 80        add     a,b
a235 80        add     a,b
a236 80        add     a,b
a237 80        add     a,b
a238 80        add     a,b
a239 80        add     a,b
a23a 80        add     a,b
a23b 80        add     a,b
a23c 80        add     a,b
a23d 80        add     a,b
a23e 80        add     a,b
a23f 80        add     a,b
a240 80        add     a,b
a241 80        add     a,b
a242 80        add     a,b
a243 80        add     a,b
a244 80        add     a,b
a245 80        add     a,b
a246 80        add     a,b
a247 80        add     a,b
a248 80        add     a,b
a249 80        add     a,b
a24a 80        add     a,b
a24b 80        add     a,b
a24c 80        add     a,b
a24d 80        add     a,b
a24e 80        add     a,b
a24f 80        add     a,b
a250 80        add     a,b
a251 80        add     a,b
a252 80        add     a,b
a253 80        add     a,b
a254 80        add     a,b
a255 80        add     a,b
a256 80        add     a,b
a257 80        add     a,b
a258 80        add     a,b
a259 80        add     a,b
a25a 80        add     a,b
a25b 80        add     a,b
a25c 80        add     a,b
a25d 80        add     a,b
a25e 80        add     a,b
a25f 80        add     a,b
a260 80        add     a,b
a261 80        add     a,b
a262 80        add     a,b
a263 80        add     a,b
a264 80        add     a,b
a265 80        add     a,b
a266 80        add     a,b
a267 80        add     a,b
a268 80        add     a,b
a269 80        add     a,b
a26a 80        add     a,b
a26b 80        add     a,b
a26c 80        add     a,b
a26d 80        add     a,b
a26e 80        add     a,b
a26f 80        add     a,b
a270 80        add     a,b
a271 80        add     a,b
a272 80        add     a,b
a273 80        add     a,b
a274 80        add     a,b
a275 80        add     a,b
a276 80        add     a,b
a277 80        add     a,b
a278 80        add     a,b
a279 80        add     a,b
a27a 80        add     a,b
a27b 80        add     a,b
a27c 80        add     a,b
a27d 8a        adc     a,d
a27e 8f        adc     a,a
a27f 8f        adc     a,a
a280 8f        adc     a,a
a281 8f        adc     a,a
a282 8f        adc     a,a
a283 85        add     a,l
a284 8a        adc     a,d
a285 85        add     a,l
a286 80        add     a,b
a287 80        add     a,b
a288 80        add     a,b
a289 80        add     a,b
a28a 8a        adc     a,d
a28b 8f        adc     a,a
a28c 8d        adc     a,l
a28d 80        add     a,b
a28e 8f        adc     a,a
a28f 80        add     a,b
a290 80        add     a,b
a291 80        add     a,b
a292 80        add     a,b
a293 8a        adc     a,d
a294 85        add     a,l
a295 8a        adc     a,d
a296 85        add     a,l
a297 80        add     a,b
a298 80        add     a,b
a299 8f        adc     a,a
a29a 80        add     a,b
a29b 80        add     a,b
a29c 8f        adc     a,a
a29d 8f        adc     a,a
a29e 80        add     a,b
a29f 80        add     a,b
a2a0 80        add     a,b
a2a1 80        add     a,b
a2a2 8a        adc     a,d
a2a3 8f        adc     a,a
a2a4 8d        adc     a,l
a2a5 80        add     a,b
a2a6 8f        adc     a,a
a2a7 80        add     a,b
a2a8 8f        adc     a,a
a2a9 80        add     a,b
a2aa 80        add     a,b
a2ab 8a        adc     a,d
a2ac 85        add     a,l
a2ad 80        add     a,b
a2ae 8f        adc     a,a
a2af 84        add     a,h
a2b0 8e        adc     a,(hl)
a2b1 85        add     a,l
a2b2 80        add     a,b
a2b3 8f        adc     a,a
a2b4 80        add     a,b
a2b5 80        add     a,b
a2b6 8a        adc     a,d
a2b7 85        add     a,l
a2b8 8a        adc     a,d
a2b9 8f        adc     a,a
a2ba 85        add     a,l
a2bb 8f        adc     a,a
a2bc 8f        adc     a,a
a2bd 80        add     a,b
a2be 80        add     a,b
a2bf 8e        adc     a,(hl)
a2c0 8f        adc     a,a
a2c1 84        add     a,h
a2c2 80        add     a,b
a2c3 80        add     a,b
a2c4 80        add     a,b
a2c5 8f        adc     a,a
a2c6 80        add     a,b
a2c7 80        add     a,b
a2c8 80        add     a,b
a2c9 8a        adc     a,d
a2ca 85        add     a,l
a2cb 80        add     a,b
a2cc 8a        adc     a,d
a2cd 85        add     a,l
a2ce 80        add     a,b
a2cf 80        add     a,b
a2d0 80        add     a,b
a2d1 80        add     a,b
a2d2 83        add     a,e
a2d3 80        add     a,b
a2d4 80        add     a,b
a2d5 8f        adc     a,a
a2d6 84        add     a,h
a2d7 80        add     a,b
a2d8 80        add     a,b
a2d9 80        add     a,b
a2da 80        add     a,b
a2db 80        add     a,b
a2dc 80        add     a,b
a2dd 88        adc     a,b
a2de 8f        adc     a,a
a2df 8d        adc     a,l
a2e0 80        add     a,b
a2e1 80        add     a,b
a2e2 8f        adc     a,a
a2e3 8f        adc     a,a
a2e4 8a        adc     a,d
a2e5 8f        adc     a,a
a2e6 85        add     a,l
a2e7 8a        adc     a,d
a2e8 85        add     a,l
a2e9 80        add     a,b
a2ea 80        add     a,b
a2eb 80        add     a,b
a2ec 8a        adc     a,d
a2ed 85        add     a,l
a2ee 80        add     a,b
a2ef 88        adc     a,b
a2f0 8f        adc     a,a
a2f1 80        add     a,b
a2f2 80        add     a,b
a2f3 8f        adc     a,a
a2f4 80        add     a,b
a2f5 80        add     a,b
a2f6 8f        adc     a,a
a2f7 80        add     a,b
a2f8 80        add     a,b
a2f9 80        add     a,b
a2fa 80        add     a,b
a2fb 80        add     a,b
a2fc 88        adc     a,b
a2fd 8f        adc     a,a
a2fe 8d        adc     a,l
a2ff 80        add     a,b
a300 80        add     a,b
a301 8f        adc     a,a
a302 8f        adc     a,a
a303 84        add     a,h
a304 8a        adc     a,d
a305 85        add     a,l
a306 80        add     a,b
a307 80        add     a,b
a308 80        add     a,b
a309 8f        adc     a,a
a30a 80        add     a,b
a30b 80        add     a,b
a30c 8e        adc     a,(hl)
a30d 85        add     a,l
a30e 8a        adc     a,d
a30f 85        add     a,l
a310 80        add     a,b
a311 80        add     a,b
a312 8f        adc     a,a
a313 80        add     a,b
a314 8f        adc     a,a
a315 8f        adc     a,a
a316 81        add     a,c
a317 80        add     a,b
a318 80        add     a,b
a319 8a        adc     a,d
a31a 85        add     a,l
a31b 80        add     a,b
a31c 80        add     a,b
a31d 80        add     a,b
a31e 8a        adc     a,d
a31f 85        add     a,l
a320 80        add     a,b
a321 88        adc     a,b
a322 8f        adc     a,a
a323 80        add     a,b
a324 80        add     a,b
a325 80        add     a,b
a326 80        add     a,b
a327 82        add     a,d
a328 8f        adc     a,a
a329 86        add     a,(hl)
a32a 8f        adc     a,a
a32b 84        add     a,h
a32c 80        add     a,b
a32d 80        add     a,b
a32e 80        add     a,b
a32f 80        add     a,b
a330 80        add     a,b
a331 8f        adc     a,a
a332 85        add     a,l
a333 80        add     a,b
a334 8a        adc     a,d
a335 8f        adc     a,a
a336 80        add     a,b
a337 80        add     a,b
a338 80        add     a,b
a339 80        add     a,b
a33a 8f        adc     a,a
a33b 8f        adc     a,a
a33c 8f        adc     a,a
a33d 8d        adc     a,l
a33e 80        add     a,b
a33f 80        add     a,b
a340 8a        adc     a,d
a341 85        add     a,l
a342 80        add     a,b
a343 80        add     a,b
a344 8f        adc     a,a
a345 80        add     a,b
a346 8f        adc     a,a
a347 80        add     a,b
a348 80        add     a,b
a349 8a        adc     a,d
a34a 85        add     a,l
a34b 8a        adc     a,d
a34c 85        add     a,l
a34d 80        add     a,b
a34e 80        add     a,b
a34f 8f        adc     a,a
a350 80        add     a,b
a351 80        add     a,b
a352 80        add     a,b
a353 88        adc     a,b
a354 8f        adc     a,a
a355 89        adc     a,c
a356 8f        adc     a,a
a357 81        add     a,c
a358 80        add     a,b
a359 80        add     a,b
a35a 80        add     a,b
a35b 80        add     a,b
a35c 80        add     a,b
a35d 80        add     a,b
a35e 80        add     a,b
a35f 80        add     a,b
a360 80        add     a,b
a361 80        add     a,b
a362 80        add     a,b
a363 80        add     a,b
a364 80        add     a,b
a365 80        add     a,b
a366 80        add     a,b
a367 80        add     a,b
a368 80        add     a,b
a369 80        add     a,b
a36a 80        add     a,b
a36b 80        add     a,b
a36c 80        add     a,b
a36d 80        add     a,b
a36e 80        add     a,b
a36f 80        add     a,b
a370 80        add     a,b
a371 80        add     a,b
a372 80        add     a,b
a373 80        add     a,b
a374 80        add     a,b
a375 80        add     a,b
a376 80        add     a,b
a377 80        add     a,b
a378 80        add     a,b
a379 80        add     a,b
a37a 80        add     a,b
a37b 80        add     a,b
a37c 80        add     a,b
a37d 80        add     a,b
a37e 80        add     a,b
a37f 80        add     a,b
a380 80        add     a,b
a381 80        add     a,b
a382 80        add     a,b
a383 80        add     a,b
a384 80        add     a,b
a385 80        add     a,b
a386 80        add     a,b
a387 80        add     a,b
a388 80        add     a,b
a389 80        add     a,b
a38a 80        add     a,b
a38b 80        add     a,b
a38c 80        add     a,b
a38d 80        add     a,b
a38e 80        add     a,b
a38f 80        add     a,b
a390 80        add     a,b
a391 80        add     a,b
a392 80        add     a,b
a393 80        add     a,b
a394 80        add     a,b
a395 80        add     a,b
a396 80        add     a,b
a397 80        add     a,b
a398 80        add     a,b
a399 80        add     a,b
a39a 80        add     a,b
a39b 80        add     a,b
a39c 80        add     a,b
a39d 80        add     a,b
a39e 80        add     a,b
a39f 80        add     a,b
a3a0 80        add     a,b
a3a1 80        add     a,b
a3a2 80        add     a,b
a3a3 80        add     a,b
a3a4 80        add     a,b
a3a5 80        add     a,b
a3a6 80        add     a,b
a3a7 80        add     a,b
a3a8 80        add     a,b
a3a9 80        add     a,b
a3aa 80        add     a,b
a3ab 80        add     a,b
a3ac 80        add     a,b
a3ad 80        add     a,b
a3ae 80        add     a,b
a3af 80        add     a,b
a3b0 80        add     a,b
a3b1 80        add     a,b
a3b2 80        add     a,b
a3b3 80        add     a,b
a3b4 80        add     a,b
a3b5 80        add     a,b
a3b6 80        add     a,b
a3b7 80        add     a,b
a3b8 80        add     a,b
a3b9 80        add     a,b
a3ba 80        add     a,b
a3bb 80        add     a,b
a3bc 80        add     a,b
a3bd 80        add     a,b
a3be 80        add     a,b
a3bf 80        add     a,b
a3c0 80        add     a,b
a3c1 80        add     a,b
a3c2 80        add     a,b
a3c3 80        add     a,b
a3c4 80        add     a,b
a3c5 80        add     a,b
a3c6 80        add     a,b
a3c7 80        add     a,b
a3c8 80        add     a,b
a3c9 80        add     a,b
a3ca 80        add     a,b
a3cb 80        add     a,b
a3cc 80        add     a,b
a3cd 80        add     a,b
a3ce 80        add     a,b
a3cf 80        add     a,b
a3d0 80        add     a,b
a3d1 80        add     a,b
a3d2 80        add     a,b
a3d3 80        add     a,b
a3d4 80        add     a,b
a3d5 80        add     a,b
a3d6 80        add     a,b
a3d7 80        add     a,b
a3d8 80        add     a,b
a3d9 80        add     a,b
a3da 80        add     a,b
a3db 80        add     a,b
a3dc 80        add     a,b
a3dd 80        add     a,b
a3de 80        add     a,b
a3df 80        add     a,b
a3e0 80        add     a,b
a3e1 80        add     a,b
a3e2 80        add     a,b
a3e3 80        add     a,b
a3e4 80        add     a,b
a3e5 80        add     a,b
a3e6 8a        adc     a,d
a3e7 8f        adc     a,a
a3e8 8f        adc     a,a
a3e9 8f        adc     a,a
a3ea 85        add     a,l
a3eb 80        add     a,b
a3ec 8a        adc     a,d
a3ed 85        add     a,l
a3ee 8b        adc     a,e
a3ef 84        add     a,h
a3f0 8f        adc     a,a
a3f1 80        add     a,b
a3f2 80        add     a,b
a3f3 80        add     a,b
a3f4 80        add     a,b
a3f5 8a        adc     a,d
a3f6 85        add     a,l
a3f7 8a        adc     a,d
a3f8 85        add     a,l
a3f9 80        add     a,b
a3fa 80        add     a,b
a3fb 8f        adc     a,a
a3fc 80        add     a,b
a3fd 80        add     a,b
a3fe 8a        adc     a,d
a3ff 85        add     a,l
a400 80        add     a,b
a401 80        add     a,b
a402 80        add     a,b
a403 80        add     a,b
a404 8a        adc     a,d
a405 85        add     a,l
a406 8b        adc     a,e
a407 84        add     a,h
a408 8f        adc     a,a
a409 80        add     a,b
a40a 8f        adc     a,a
a40b 80        add     a,b
a40c 80        add     a,b
a40d 8a        adc     a,d
a40e 85        add     a,l
a40f 80        add     a,b
a410 8a        adc     a,d
a411 85        add     a,l
a412 8f        adc     a,a
a413 80        add     a,b
a414 80        add     a,b
a415 8f        adc     a,a
a416 80        add     a,b
a417 80        add     a,b
a418 8a        adc     a,d
a419 85        add     a,l
a41a 8a        adc     a,d
a41b 85        add     a,l
a41c 8f        adc     a,a
a41d 85        add     a,l
a41e 8f        adc     a,a
a41f 80        add     a,b
a420 80        add     a,b
a421 8f        adc     a,a
a422 8a        adc     a,d
a423 85        add     a,l
a424 80        add     a,b
a425 80        add     a,b
a426 80        add     a,b
a427 8f        adc     a,a
a428 80        add     a,b
a429 80        add     a,b
a42a 80        add     a,b
a42b 8a        adc     a,d
a42c 85        add     a,l
a42d 80        add     a,b
a42e 8a        adc     a,d
a42f 85        add     a,l
a430 80        add     a,b
a431 80        add     a,b
a432 80        add     a,b
a433 80        add     a,b
a434 80        add     a,b
a435 80        add     a,b
a436 80        add     a,b
a437 82        add     a,d
a438 8f        adc     a,a
a439 8f        adc     a,a
a43a 84        add     a,h
a43b 80        add     a,b
a43c 80        add     a,b
a43d 80        add     a,b
a43e 80        add     a,b
a43f 8a        adc     a,d
a440 85        add     a,l
a441 8f        adc     a,a
a442 80        add     a,b
a443 80        add     a,b
a444 8f        adc     a,a
a445 8a        adc     a,d
a446 8f        adc     a,a
a447 8a        adc     a,d
a448 85        add     a,l
a449 8a        adc     a,d
a44a 8f        adc     a,a
a44b 8f        adc     a,a
a44c 8f        adc     a,a
a44d 80        add     a,b
a44e 8a        adc     a,d
a44f 8f        adc     a,a
a450 8f        adc     a,a
a451 8f        adc     a,a
a452 81        add     a,c
a453 80        add     a,b
a454 80        add     a,b
a455 8f        adc     a,a
a456 80        add     a,b
a457 80        add     a,b
a458 8f        adc     a,a
a459 80        add     a,b
a45a 80        add     a,b
a45b 80        add     a,b
a45c 80        add     a,b
a45d 80        add     a,b
a45e 8a        adc     a,d
a45f 85        add     a,l
a460 8f        adc     a,a
a461 80        add     a,b
a462 80        add     a,b
a463 8f        adc     a,a
a464 82        add     a,d
a465 8d        adc     a,l
a466 8a        adc     a,d
a467 85        add     a,l
a468 80        add     a,b
a469 80        add     a,b
a46a 80        add     a,b
a46b 8f        adc     a,a
a46c 8f        adc     a,a
a46d 8f        adc     a,a
a46e 87        add     a,a
a46f 80        add     a,b
a470 8a        adc     a,d
a471 85        add     a,l
a472 80        add     a,b
a473 80        add     a,b
a474 8f        adc     a,a
a475 80        add     a,b
a476 8f        adc     a,a
a477 85        add     a,l
a478 80        add     a,b
a479 80        add     a,b
a47a 80        add     a,b
a47b 8a        adc     a,d
a47c 8f        adc     a,a
a47d 8f        adc     a,a
a47e 8f        adc     a,a
a47f 80        add     a,b
a480 8a        adc     a,d
a481 8f        adc     a,a
a482 8f        adc     a,a
a483 8f        adc     a,a
a484 81        add     a,c
a485 80        add     a,b
a486 80        add     a,b
a487 80        add     a,b
a488 80        add     a,b
a489 80        add     a,b
a48a 8a        adc     a,d
a48b 8f        adc     a,a
a48c 8a        adc     a,d
a48d 8f        adc     a,a
a48e 80        add     a,b
a48f 80        add     a,b
a490 80        add     a,b
a491 80        add     a,b
a492 80        add     a,b
a493 8f        adc     a,a
a494 85        add     a,l
a495 80        add     a,b
a496 8a        adc     a,d
a497 8f        adc     a,a
a498 80        add     a,b
a499 80        add     a,b
a49a 80        add     a,b
a49b 80        add     a,b
a49c 80        add     a,b
a49d 80        add     a,b
a49e 80        add     a,b
a49f 8b        adc     a,e
a4a0 85        add     a,l
a4a1 80        add     a,b
a4a2 8a        adc     a,d
a4a3 85        add     a,l
a4a4 80        add     a,b
a4a5 80        add     a,b
a4a6 8f        adc     a,a
a4a7 80        add     a,b
a4a8 8f        adc     a,a
a4a9 80        add     a,b
a4aa 80        add     a,b
a4ab 8a        adc     a,d
a4ac 85        add     a,l
a4ad 8a        adc     a,d
a4ae 85        add     a,l
a4af 80        add     a,b
a4b0 80        add     a,b
a4b1 8f        adc     a,a
a4b2 80        add     a,b
a4b3 80        add     a,b
a4b4 80        add     a,b
a4b5 8f        adc     a,a
a4b6 85        add     a,l
a4b7 8f        adc     a,a
a4b8 85        add     a,l
a4b9 80        add     a,b
a4ba 80        add     a,b
a4bb 80        add     a,b
a4bc 80        add     a,b
a4bd 80        add     a,b
a4be 80        add     a,b
a4bf 80        add     a,b
a4c0 80        add     a,b
a4c1 80        add     a,b
a4c2 80        add     a,b
a4c3 80        add     a,b
a4c4 80        add     a,b
a4c5 80        add     a,b
a4c6 80        add     a,b
a4c7 80        add     a,b
a4c8 80        add     a,b
a4c9 80        add     a,b
a4ca 80        add     a,b
a4cb 80        add     a,b
a4cc 80        add     a,b
a4cd 80        add     a,b
a4ce 80        add     a,b
a4cf 80        add     a,b
a4d0 80        add     a,b
a4d1 80        add     a,b
a4d2 80        add     a,b
a4d3 80        add     a,b
a4d4 80        add     a,b
a4d5 80        add     a,b
a4d6 80        add     a,b
a4d7 80        add     a,b
a4d8 80        add     a,b
a4d9 80        add     a,b
a4da 80        add     a,b
a4db 80        add     a,b
a4dc 80        add     a,b
a4dd 80        add     a,b
a4de 80        add     a,b
a4df 80        add     a,b
a4e0 80        add     a,b
a4e1 80        add     a,b
a4e2 80        add     a,b
a4e3 80        add     a,b
a4e4 80        add     a,b
a4e5 80        add     a,b
a4e6 80        add     a,b
a4e7 80        add     a,b
a4e8 80        add     a,b
a4e9 80        add     a,b
a4ea 80        add     a,b
a4eb 80        add     a,b
a4ec 80        add     a,b
a4ed 80        add     a,b
a4ee 80        add     a,b
a4ef 80        add     a,b
a4f0 80        add     a,b
a4f1 80        add     a,b
a4f2 80        add     a,b
a4f3 80        add     a,b
a4f4 80        add     a,b
a4f5 80        add     a,b
a4f6 80        add     a,b
a4f7 80        add     a,b
a4f8 80        add     a,b
a4f9 80        add     a,b
a4fa 80        add     a,b
a4fb 80        add     a,b
a4fc 80        add     a,b
a4fd 80        add     a,b
a4fe 80        add     a,b
a4ff 80        add     a,b
a500 80        add     a,b
a501 80        add     a,b
a502 80        add     a,b
a503 80        add     a,b
a504 80        add     a,b
a505 80        add     a,b
a506 80        add     a,b
a507 80        add     a,b
a508 80        add     a,b
a509 80        add     a,b
a50a 80        add     a,b
a50b 80        add     a,b
a50c 80        add     a,b
a50d 80        add     a,b
a50e 80        add     a,b
a50f 80        add     a,b
a510 80        add     a,b
a511 80        add     a,b
a512 80        add     a,b
a513 80        add     a,b
a514 80        add     a,b
a515 80        add     a,b
a516 80        add     a,b
a517 80        add     a,b
a518 80        add     a,b
a519 80        add     a,b
a51a 80        add     a,b
a51b 80        add     a,b
a51c 80        add     a,b
a51d 80        add     a,b
a51e 80        add     a,b
a51f 80        add     a,b
a520 80        add     a,b
a521 80        add     a,b
a522 80        add     a,b
a523 80        add     a,b
a524 80        add     a,b
a525 80        add     a,b
a526 80        add     a,b
a527 80        add     a,b
a528 80        add     a,b
a529 80        add     a,b
a52a 80        add     a,b
a52b 80        add     a,b
a52c 80        add     a,b
a52d 80        add     a,b
a52e 80        add     a,b
a52f 80        add     a,b
a530 80        add     a,b
a531 80        add     a,b
a532 80        add     a,b
a533 80        add     a,b
a534 80        add     a,b
a535 80        add     a,b
a536 80        add     a,b
a537 80        add     a,b
a538 80        add     a,b
a539 80        add     a,b
a53a 80        add     a,b
a53b 80        add     a,b
a53c 80        add     a,b
a53d 80        add     a,b
a53e 80        add     a,b
a53f 80        add     a,b
a540 80        add     a,b
a541 8a        adc     a,d
a542 8f        adc     a,a
a543 8f        adc     a,a
a544 8f        adc     a,a
a545 8f        adc     a,a
a546 8f        adc     a,a
a547 85        add     a,l
a548 8a        adc     a,d
a549 85        add     a,l
a54a 80        add     a,b
a54b 80        add     a,b
a54c 80        add     a,b
a54d 80        add     a,b
a54e 8a        adc     a,d
a54f 85        add     a,l
a550 82        add     a,d
a551 8f        adc     a,a
a552 8f        adc     a,a
a553 80        add     a,b
a554 80        add     a,b
a555 80        add     a,b
a556 80        add     a,b
a557 8a        adc     a,d
a558 85        add     a,l
a559 8a        adc     a,d
a55a 85        add     a,l
a55b 80        add     a,b
a55c 80        add     a,b
a55d 8f        adc     a,a
a55e 80        add     a,b
a55f 80        add     a,b
a560 8a        adc     a,d
a561 85        add     a,l
a562 80        add     a,b
a563 80        add     a,b
a564 80        add     a,b
a565 80        add     a,b
a566 8a        adc     a,d
a567 85        add     a,l
a568 82        add     a,d
a569 8f        adc     a,a
a56a 8f        adc     a,a
a56b 80        add     a,b
a56c 8f        adc     a,a
a56d 80        add     a,b
a56e 80        add     a,b
a56f 8a        adc     a,d
a570 85        add     a,l
a571 80        add     a,b
a572 82        add     a,d
a573 8f        adc     a,a
a574 87        add     a,a
a575 80        add     a,b
a576 80        add     a,b
a577 8f        adc     a,a
a578 80        add     a,b
a579 80        add     a,b
a57a 8a        adc     a,d
a57b 85        add     a,l
a57c 8a        adc     a,d
a57d 85        add     a,l
a57e 8a        adc     a,d
a57f 80        add     a,b
a580 8f        adc     a,a
a581 80        add     a,b
a582 8a        adc     a,d
a583 8f        adc     a,a
a584 8f        adc     a,a
a585 8f        adc     a,a
a586 80        add     a,b
a587 80        add     a,b
a588 80        add     a,b
a589 8f        adc     a,a
a58a 80        add     a,b
a58b 80        add     a,b
a58c 80        add     a,b
a58d 8a        adc     a,d
a58e 85        add     a,l
a58f 80        add     a,b
a590 8a        adc     a,d
a591 85        add     a,l
a592 80        add     a,b
a593 80        add     a,b
a594 80        add     a,b
a595 80        add     a,b
a596 80        add     a,b
a597 80        add     a,b
a598 80        add     a,b
a599 80        add     a,b
a59a 80        add     a,b
a59b 82        add     a,d
a59c 8f        adc     a,a
a59d 80        add     a,b
a59e 80        add     a,b
a59f 80        add     a,b
a5a0 80        add     a,b
a5a1 8f        adc     a,a
a5a2 8f        adc     a,a
a5a3 8f        adc     a,a
a5a4 85        add     a,l
a5a5 80        add     a,b
a5a6 8f        adc     a,a
a5a7 80        add     a,b
a5a8 85        add     a,l
a5a9 8a        adc     a,d
a5aa 85        add     a,l
a5ab 8a        adc     a,d
a5ac 85        add     a,l
a5ad 80        add     a,b
a5ae 80        add     a,b
a5af 80        add     a,b
a5b0 8a        adc     a,d
a5b1 87        add     a,a
a5b2 8f        adc     a,a
a5b3 84        add     a,h
a5b4 80        add     a,b
a5b5 80        add     a,b
a5b6 80        add     a,b
a5b7 8f        adc     a,a
a5b8 80        add     a,b
a5b9 80        add     a,b
a5ba 8f        adc     a,a
a5bb 80        add     a,b
a5bc 80        add     a,b
a5bd 80        add     a,b
a5be 80        add     a,b
a5bf 80        add     a,b
a5c0 8f        adc     a,a
a5c1 8f        adc     a,a
a5c2 8f        adc     a,a
a5c3 85        add     a,l
a5c4 80        add     a,b
a5c5 8f        adc     a,a
a5c6 80        add     a,b
a5c7 8b        adc     a,e
a5c8 8f        adc     a,a
a5c9 85        add     a,l
a5ca 80        add     a,b
a5cb 80        add     a,b
a5cc 80        add     a,b
a5cd 8f        adc     a,a
a5ce 80        add     a,b
a5cf 80        add     a,b
a5d0 80        add     a,b
a5d1 80        add     a,b
a5d2 8a        adc     a,d
a5d3 85        add     a,l
a5d4 80        add     a,b
a5d5 80        add     a,b
a5d6 8f        adc     a,a
a5d7 80        add     a,b
a5d8 8f        adc     a,a
a5d9 8f        adc     a,a
a5da 84        add     a,h
a5db 80        add     a,b
a5dc 80        add     a,b
a5dd 8a        adc     a,d
a5de 85        add     a,l
a5df 80        add     a,b
a5e0 80        add     a,b
a5e1 80        add     a,b
a5e2 8a        adc     a,d
a5e3 87        add     a,a
a5e4 8f        adc     a,a
a5e5 84        add     a,h
a5e6 80        add     a,b
a5e7 80        add     a,b
a5e8 80        add     a,b
a5e9 80        add     a,b
a5ea 80        add     a,b
a5eb 88        adc     a,b
a5ec 8f        adc     a,a
a5ed 89        adc     a,c
a5ee 8f        adc     a,a
a5ef 81        add     a,c
a5f0 80        add     a,b
a5f1 80        add     a,b
a5f2 80        add     a,b
a5f3 80        add     a,b
a5f4 80        add     a,b
a5f5 8f        adc     a,a
a5f6 85        add     a,l
a5f7 80        add     a,b
a5f8 8a        adc     a,d
a5f9 8f        adc     a,a
a5fa 80        add     a,b
a5fb 80        add     a,b
a5fc 80        add     a,b
a5fd 80        add     a,b
a5fe 8c        adc     a,h
a5ff 80        add     a,b
a600 80        add     a,b
a601 8a        adc     a,d
a602 85        add     a,l
a603 80        add     a,b
a604 8a        adc     a,d
a605 85        add     a,l
a606 80        add     a,b
a607 80        add     a,b
a608 8f        adc     a,a
a609 80        add     a,b
a60a 8f        adc     a,a
a60b 80        add     a,b
a60c 80        add     a,b
a60d 8a        adc     a,d
a60e 85        add     a,l
a60f 8a        adc     a,d
a610 85        add     a,l
a611 80        add     a,b
a612 80        add     a,b
a613 8f        adc     a,a
a614 80        add     a,b
a615 80        add     a,b
a616 80        add     a,b
a617 82        add     a,d
a618 8f        adc     a,a
a619 86        add     a,(hl)
a61a 8f        adc     a,a
a61b 84        add     a,h
a61c 80        add     a,b
a61d 80        add     a,b
a61e 80        add     a,b
a61f 80        add     a,b
a620 80        add     a,b
a621 80        add     a,b
a622 80        add     a,b
a623 80        add     a,b
a624 80        add     a,b
a625 80        add     a,b
a626 80        add     a,b
a627 80        add     a,b
a628 80        add     a,b
a629 80        add     a,b
a62a 80        add     a,b
a62b 80        add     a,b
a62c 80        add     a,b
a62d 80        add     a,b
a62e 80        add     a,b
a62f 80        add     a,b
a630 80        add     a,b
a631 80        add     a,b
a632 80        add     a,b
a633 80        add     a,b
a634 80        add     a,b
a635 80        add     a,b
a636 80        add     a,b
a637 80        add     a,b
a638 80        add     a,b
a639 80        add     a,b
a63a 80        add     a,b
a63b 80        add     a,b
a63c 80        add     a,b
a63d 80        add     a,b
a63e 80        add     a,b
a63f 80        add     a,b
a640 80        add     a,b
a641 80        add     a,b
a642 80        add     a,b
a643 80        add     a,b
a644 80        add     a,b
a645 80        add     a,b
a646 80        add     a,b
a647 80        add     a,b
a648 80        add     a,b
a649 80        add     a,b
a64a 80        add     a,b
a64b 80        add     a,b
a64c 80        add     a,b
a64d 80        add     a,b
a64e 80        add     a,b
a64f 80        add     a,b
a650 80        add     a,b
a651 80        add     a,b
a652 80        add     a,b
a653 80        add     a,b
a654 80        add     a,b
a655 80        add     a,b
a656 80        add     a,b
a657 80        add     a,b
a658 80        add     a,b
a659 80        add     a,b
a65a 80        add     a,b
a65b 80        add     a,b
a65c 80        add     a,b
a65d 80        add     a,b
a65e 80        add     a,b
a65f 80        add     a,b
a660 80        add     a,b
a661 80        add     a,b
a662 80        add     a,b
a663 80        add     a,b
a664 80        add     a,b
a665 80        add     a,b
a666 80        add     a,b
a667 80        add     a,b
a668 80        add     a,b
a669 80        add     a,b
a66a 80        add     a,b
a66b 80        add     a,b
a66c 80        add     a,b
a66d 80        add     a,b
a66e 80        add     a,b
a66f 80        add     a,b
a670 80        add     a,b
a671 80        add     a,b
a672 80        add     a,b
a673 80        add     a,b
a674 80        add     a,b
a675 80        add     a,b
a676 80        add     a,b
a677 80        add     a,b
a678 80        add     a,b
a679 80        add     a,b
a67a 80        add     a,b
a67b 80        add     a,b
a67c 80        add     a,b
a67d 80        add     a,b
a67e 80        add     a,b
a67f 80        add     a,b
a680 80        add     a,b
a681 80        add     a,b
a682 80        add     a,b
a683 80        add     a,b
a684 80        add     a,b
a685 80        add     a,b
a686 80        add     a,b
a687 80        add     a,b
a688 80        add     a,b
a689 80        add     a,b
a68a 80        add     a,b
a68b 80        add     a,b
a68c 80        add     a,b
a68d 80        add     a,b
a68e 80        add     a,b
a68f 80        add     a,b
a690 80        add     a,b
a691 80        add     a,b
a692 80        add     a,b
a693 80        add     a,b
a694 80        add     a,b
a695 80        add     a,b
a696 80        add     a,b
a697 80        add     a,b
a698 80        add     a,b
a699 80        add     a,b
a69a 80        add     a,b
a69b 80        add     a,b
a69c 80        add     a,b
a69d 80        add     a,b
a69e 80        add     a,b
a69f 80        add     a,b
a6a0 80        add     a,b
a6a1 80        add     a,b
a6a2 80        add     a,b
a6a3 80        add     a,b
a6a4 80        add     a,b
a6a5 80        add     a,b
a6a6 80        add     a,b
a6a7 80        add     a,b
a6a8 80        add     a,b
a6a9 80        add     a,b
a6aa 8a        adc     a,d
a6ab 85        add     a,l
a6ac 80        add     a,b
a6ad 80        add     a,b
a6ae 80        add     a,b
a6af 80        add     a,b
a6b0 8a        adc     a,d
a6b1 85        add     a,l
a6b2 80        add     a,b
a6b3 8b        adc     a,e
a6b4 8f        adc     a,a
a6b5 80        add     a,b
a6b6 8f        adc     a,a
a6b7 84        add     a,h
a6b8 80        add     a,b
a6b9 8e        adc     a,(hl)
a6ba 85        add     a,l
a6bb 8a        adc     a,d
a6bc 8d        adc     a,l
a6bd 80        add     a,b
a6be 88        adc     a,b
a6bf 8f        adc     a,a
a6c0 80        add     a,b
a6c1 80        add     a,b
a6c2 8a        adc     a,d
a6c3 85        add     a,l
a6c4 80        add     a,b
a6c5 80        add     a,b
a6c6 80        add     a,b
a6c7 80        add     a,b
a6c8 8a        adc     a,d
a6c9 85        add     a,l
a6ca 80        add     a,b
a6cb 8b        adc     a,e
a6cc 8f        adc     a,a
a6cd 80        add     a,b
a6ce 8f        adc     a,a
a6cf 84        add     a,h
a6d0 80        add     a,b
a6d1 8e        adc     a,(hl)
a6d2 85        add     a,l
a6d3 80        add     a,b
a6d4 80        add     a,b
a6d5 8b        adc     a,e
a6d6 81        add     a,c
a6d7 80        add     a,b
a6d8 80        add     a,b
a6d9 8f        adc     a,a
a6da 84        add     a,h
a6db 80        add     a,b
a6dc 8e        adc     a,(hl)
a6dd 85        add     a,l
a6de 8a        adc     a,d
a6df 85        add     a,l
a6e0 80        add     a,b
a6e1 80        add     a,b
a6e2 8f        adc     a,a
a6e3 80        add     a,b
a6e4 8e        adc     a,(hl)
a6e5 85        add     a,l
a6e6 80        add     a,b
a6e7 8f        adc     a,a
a6e8 84        add     a,h
a6e9 80        add     a,b
a6ea 80        add     a,b
a6eb 8f        adc     a,a
a6ec 80        add     a,b
a6ed 80        add     a,b
a6ee 80        add     a,b
a6ef 8a        adc     a,d
a6f0 85        add     a,l
a6f1 80        add     a,b
a6f2 8a        adc     a,d
a6f3 8d        adc     a,l
a6f4 80        add     a,b
a6f5 88        adc     a,b
a6f6 8f        adc     a,a
a6f7 80        add     a,b
a6f8 80        add     a,b
a6f9 80        add     a,b
a6fa 80        add     a,b
a6fb 8f        adc     a,a
a6fc 84        add     a,h
a6fd 88        adc     a,b
a6fe 8f        adc     a,a
a6ff 80        add     a,b
a700 80        add     a,b
a701 80        add     a,b
a702 88        adc     a,b
a703 8f        adc     a,a
a704 80        add     a,b
a705 8a        adc     a,d
a706 8d        adc     a,l
a707 80        add     a,b
a708 8f        adc     a,a
a709 80        add     a,b
a70a 80        add     a,b
a70b 8a        adc     a,d
a70c 85        add     a,l
a70d 8a        adc     a,d
a70e 85        add     a,l
a70f 80        add     a,b
a710 80        add     a,b
a711 80        add     a,b
a712 8a        adc     a,d
a713 85        add     a,l
a714 82        add     a,d
a715 8f        adc     a,a
a716 84        add     a,h
a717 80        add     a,b
a718 80        add     a,b
a719 8f        adc     a,a
a71a 80        add     a,b
a71b 80        add     a,b
a71c 8f        adc     a,a
a71d 84        add     a,h
a71e 80        add     a,b
a71f 8e        adc     a,(hl)
a720 85        add     a,l
a721 88        adc     a,b
a722 8f        adc     a,a
a723 80        add     a,b
a724 8a        adc     a,d
a725 8d        adc     a,l
a726 80        add     a,b
a727 8f        adc     a,a
a728 80        add     a,b
a729 82        add     a,d
a72a 8f        adc     a,a
a72b 85        add     a,l
a72c 80        add     a,b
a72d 80        add     a,b
a72e 80        add     a,b
a72f 8f        adc     a,a
a730 80        add     a,b
a731 80        add     a,b
a732 80        add     a,b
a733 80        add     a,b
a734 8a        adc     a,d
a735 8d        adc     a,l
a736 80        add     a,b
a737 88        adc     a,b
a738 8f        adc     a,a
a739 80        add     a,b
a73a 8f        adc     a,a
a73b 82        add     a,d
a73c 8f        adc     a,a
a73d 84        add     a,h
a73e 80        add     a,b
a73f 8a        adc     a,d
a740 85        add     a,l
a741 80        add     a,b
a742 80        add     a,b
a743 80        add     a,b
a744 8a        adc     a,d
a745 85        add     a,l
a746 82        add     a,d
a747 8f        adc     a,a
a748 84        add     a,h
a749 80        add     a,b
a74a 80        add     a,b
a74b 80        add     a,b
a74c 88        adc     a,b
a74d 8f        adc     a,a
a74e 89        adc     a,c
a74f 8f        adc     a,a
a750 81        add     a,c
a751 80        add     a,b
a752 80        add     a,b
a753 80        add     a,b
a754 80        add     a,b
a755 8c        adc     a,h
a756 8c        adc     a,h
a757 8f        adc     a,a
a758 8d        adc     a,l
a759 8c        adc     a,h
a75a 8e        adc     a,(hl)
a75b 8f        adc     a,a
a75c 8c        adc     a,h
a75d 8c        adc     a,h
a75e 80        add     a,b
a75f 80        add     a,b
a760 8f        adc     a,a
a761 84        add     a,h
a762 80        add     a,b
a763 8e        adc     a,(hl)
a764 85        add     a,l
a765 80        add     a,b
a766 8a        adc     a,d
a767 8d        adc     a,l
a768 80        add     a,b
a769 88        adc     a,b
a76a 8f        adc     a,a
a76b 80        add     a,b
a76c 8f        adc     a,a
a76d 84        add     a,h
a76e 80        add     a,b
a76f 8e        adc     a,(hl)
a770 85        add     a,l
a771 8a        adc     a,d
a772 8d        adc     a,l
a773 80        add     a,b
a774 88        adc     a,b
a775 8f        adc     a,a
a776 80        add     a,b
a777 80        add     a,b
a778 80        add     a,b
a779 80        add     a,b
a77a 82        add     a,d
a77b 8f        adc     a,a
a77c 86        add     a,(hl)
a77d 8f        adc     a,a
a77e 84        add     a,h
a77f 80        add     a,b
a780 80        add     a,b
a781 80        add     a,b
a782 80        add     a,b
a783 80        add     a,b
a784 80        add     a,b
a785 80        add     a,b
a786 80        add     a,b
a787 80        add     a,b
a788 80        add     a,b
a789 80        add     a,b
a78a 80        add     a,b
a78b 80        add     a,b
a78c 80        add     a,b
a78d 80        add     a,b
a78e 80        add     a,b
a78f 80        add     a,b
a790 80        add     a,b
a791 80        add     a,b
a792 80        add     a,b
a793 80        add     a,b
a794 80        add     a,b
a795 80        add     a,b
a796 80        add     a,b
a797 80        add     a,b
a798 80        add     a,b
a799 80        add     a,b
a79a 80        add     a,b
a79b 80        add     a,b
a79c 80        add     a,b
a79d 80        add     a,b
a79e 80        add     a,b
a79f 80        add     a,b
a7a0 80        add     a,b
a7a1 80        add     a,b
a7a2 80        add     a,b
a7a3 80        add     a,b
a7a4 80        add     a,b
a7a5 80        add     a,b
a7a6 80        add     a,b
a7a7 80        add     a,b
a7a8 80        add     a,b
a7a9 80        add     a,b
a7aa 80        add     a,b
a7ab 80        add     a,b
a7ac 80        add     a,b
a7ad 80        add     a,b
a7ae 80        add     a,b
a7af 80        add     a,b
a7b0 80        add     a,b
a7b1 80        add     a,b
a7b2 80        add     a,b
a7b3 80        add     a,b
a7b4 80        add     a,b
a7b5 80        add     a,b
a7b6 80        add     a,b
a7b7 80        add     a,b
a7b8 80        add     a,b
a7b9 80        add     a,b
a7ba 80        add     a,b
a7bb 80        add     a,b
a7bc 80        add     a,b
a7bd 80        add     a,b
a7be 80        add     a,b
a7bf 80        add     a,b
a7c0 80        add     a,b
a7c1 80        add     a,b
a7c2 80        add     a,b
a7c3 80        add     a,b
a7c4 80        add     a,b
a7c5 80        add     a,b
a7c6 80        add     a,b
a7c7 80        add     a,b
a7c8 80        add     a,b
a7c9 80        add     a,b
a7ca 80        add     a,b
a7cb 80        add     a,b
a7cc 80        add     a,b
a7cd 80        add     a,b
a7ce 80        add     a,b
a7cf 80        add     a,b
a7d0 80        add     a,b
a7d1 80        add     a,b
a7d2 80        add     a,b
a7d3 80        add     a,b
a7d4 80        add     a,b
a7d5 80        add     a,b
a7d6 80        add     a,b
a7d7 80        add     a,b
a7d8 80        add     a,b
a7d9 80        add     a,b
a7da 80        add     a,b
a7db 80        add     a,b
a7dc 80        add     a,b
a7dd 80        add     a,b
a7de 80        add     a,b
a7df 80        add     a,b
a7e0 80        add     a,b
a7e1 80        add     a,b
a7e2 80        add     a,b
a7e3 80        add     a,b
a7e4 80        add     a,b
a7e5 80        add     a,b
a7e6 80        add     a,b
a7e7 80        add     a,b
a7e8 80        add     a,b
a7e9 80        add     a,b
a7ea 80        add     a,b
a7eb 80        add     a,b
a7ec 80        add     a,b
a7ed 80        add     a,b
a7ee 80        add     a,b
a7ef 80        add     a,b
a7f0 80        add     a,b
a7f1 80        add     a,b
a7f2 80        add     a,b
a7f3 80        add     a,b
a7f4 80        add     a,b
a7f5 80        add     a,b
a7f6 80        add     a,b
a7f7 80        add     a,b
a7f8 80        add     a,b
a7f9 80        add     a,b
a7fa 80        add     a,b
a7fb 80        add     a,b
a7fc 80        add     a,b
a7fd 80        add     a,b
a7fe 80        add     a,b
a7ff 80        add     a,b
a800 80        add     a,b
a801 80        add     a,b
a802 80        add     a,b
a803 80        add     a,b
a804 80        add     a,b
a805 80        add     a,b
a806 80        add     a,b
a807 80        add     a,b
a808 80        add     a,b
a809 80        add     a,b
a80a 80        add     a,b
a80b 80        add     a,b
a80c 8a        adc     a,d
a80d 8f        adc     a,a
a80e 8f        adc     a,a
a80f 8f        adc     a,a
a810 8f        adc     a,a
a811 85        add     a,l
a812 8a        adc     a,d
a813 85        add     a,l
a814 80        add     a,b
a815 82        add     a,d
a816 8f        adc     a,a
a817 80        add     a,b
a818 82        add     a,d
a819 8f        adc     a,a
a81a 8f        adc     a,a
a81b 87        add     a,a
a81c 81        add     a,c
a81d 80        add     a,b
a81e 8b        adc     a,e
a81f 8f        adc     a,a
a820 8f        adc     a,a
a821 81        add     a,c
a822 80        add     a,b
a823 80        add     a,b
a824 8a        adc     a,d
a825 85        add     a,l
a826 80        add     a,b
a827 80        add     a,b
a828 80        add     a,b
a829 80        add     a,b
a82a 8a        adc     a,d
a82b 85        add     a,l
a82c 80        add     a,b
a82d 82        add     a,d
a82e 8f        adc     a,a
a82f 80        add     a,b
a830 82        add     a,d
a831 8f        adc     a,a
a832 8f        adc     a,a
a833 87        add     a,a
a834 80        add     a,b
a835 80        add     a,b
a836 80        add     a,b
a837 8a        adc     a,d
a838 80        add     a,b
a839 80        add     a,b
a83a 80        add     a,b
a83b 82        add     a,d
a83c 8f        adc     a,a
a83d 8f        adc     a,a
a83e 87        add     a,a
a83f 80        add     a,b
a840 8a        adc     a,d
a841 85        add     a,l
a842 80        add     a,b
a843 80        add     a,b
a844 8f        adc     a,a
a845 80        add     a,b
a846 8f        adc     a,a
a847 80        add     a,b
a848 80        add     a,b
a849 8a        adc     a,d
a84a 85        add     a,l
a84b 80        add     a,b
a84c 80        add     a,b
a84d 8f        adc     a,a
a84e 80        add     a,b
a84f 80        add     a,b
a850 8a        adc     a,d
a851 8f        adc     a,a
a852 8f        adc     a,a
a853 85        add     a,l
a854 80        add     a,b
a855 8b        adc     a,e
a856 8f        adc     a,a
a857 8f        adc     a,a
a858 81        add     a,c
a859 80        add     a,b
a85a 80        add     a,b
a85b 80        add     a,b
a85c 80        add     a,b
a85d 82        add     a,d
a85e 8f        adc     a,a
a85f 8f        adc     a,a
a860 81        add     a,c
a861 80        add     a,b
a862 80        add     a,b
a863 80        add     a,b
a864 8a        adc     a,d
a865 85        add     a,l
a866 80        add     a,b
a867 80        add     a,b
a868 8f        adc     a,a
a869 80        add     a,b
a86a 8f        adc     a,a
a86b 80        add     a,b
a86c 80        add     a,b
a86d 8a        adc     a,d
a86e 85        add     a,l
a86f 8a        adc     a,d
a870 8f        adc     a,a
a871 8f        adc     a,a
a872 8f        adc     a,a
a873 85        add     a,l
a874 8a        adc     a,d
a875 85        add     a,l
a876 80        add     a,b
a877 82        add     a,d
a878 8f        adc     a,a
a879 80        add     a,b
a87a 8f        adc     a,a
a87b 8f        adc     a,a
a87c 8f        adc     a,a
a87d 80        add     a,b
a87e 82        add     a,d
a87f 8f        adc     a,a
a880 8f        adc     a,a
a881 87        add     a,a
a882 80        add     a,b
a883 8a        adc     a,d
a884 85        add     a,l
a885 80        add     a,b
a886 80        add     a,b
a887 8f        adc     a,a
a888 80        add     a,b
a889 8f        adc     a,a
a88a 80        add     a,b
a88b 80        add     a,b
a88c 8b        adc     a,e
a88d 85        add     a,l
a88e 80        add     a,b
a88f 80        add     a,b
a890 80        add     a,b
a891 8f        adc     a,a
a892 80        add     a,b
a893 80        add     a,b
a894 80        add     a,b
a895 80        add     a,b
a896 80        add     a,b
a897 8b        adc     a,e
a898 8f        adc     a,a
a899 8f        adc     a,a
a89a 81        add     a,c
a89b 80        add     a,b
a89c 8f        adc     a,a
a89d 80        add     a,b
a89e 82        add     a,d
a89f 8f        adc     a,a
a8a0 84        add     a,h
a8a1 8a        adc     a,d
a8a2 8f        adc     a,a
a8a3 8f        adc     a,a
a8a4 8f        adc     a,a
a8a5 85        add     a,l
a8a6 8a        adc     a,d
a8a7 85        add     a,l
a8a8 80        add     a,b
a8a9 82        add     a,d
a8aa 8f        adc     a,a
a8ab 80        add     a,b
a8ac 80        add     a,b
a8ad 88        adc     a,b
a8ae 8f        adc     a,a
a8af 89        adc     a,c
a8b0 8f        adc     a,a
a8b1 81        add     a,c
a8b2 80        add     a,b
a8b3 80        add     a,b
a8b4 80        add     a,b
a8b5 80        add     a,b
a8b6 80        add     a,b
a8b7 8f        adc     a,a
a8b8 8f        adc     a,a
a8b9 8f        adc     a,a
a8ba 8f        adc     a,a
a8bb 8f        adc     a,a
a8bc 8f        adc     a,a
a8bd 8f        adc     a,a
a8be 8f        adc     a,a
a8bf 8f        adc     a,a
a8c0 80        add     a,b
a8c1 80        add     a,b
a8c2 82        add     a,d
a8c3 8f        adc     a,a
a8c4 8f        adc     a,a
a8c5 87        add     a,a
a8c6 80        add     a,b
a8c7 80        add     a,b
a8c8 80        add     a,b
a8c9 8b        adc     a,e
a8ca 8f        adc     a,a
a8cb 8f        adc     a,a
a8cc 81        add     a,c
a8cd 80        add     a,b
a8ce 82        add     a,d
a8cf 8f        adc     a,a
a8d0 8f        adc     a,a
a8d1 87        add     a,a
a8d2 80        add     a,b
a8d3 80        add     a,b
a8d4 8b        adc     a,e
a8d5 8f        adc     a,a
a8d6 8f        adc     a,a
a8d7 81        add     a,c
a8d8 80        add     a,b
a8d9 80        add     a,b
a8da 80        add     a,b
a8db 80        add     a,b
a8dc 80        add     a,b
a8dd 82        add     a,d
a8de 8f        adc     a,a
a8df 86        add     a,(hl)
a8e0 8f        adc     a,a
a8e1 84        add     a,h
a8e2 80        add     a,b
a8e3 80        add     a,b
a8e4 80        add     a,b
a8e5 80        add     a,b
a8e6 80        add     a,b
a8e7 80        add     a,b
a8e8 80        add     a,b
a8e9 80        add     a,b
a8ea 80        add     a,b
a8eb 80        add     a,b
a8ec 80        add     a,b
a8ed 80        add     a,b
a8ee 80        add     a,b
a8ef 80        add     a,b
a8f0 80        add     a,b
a8f1 80        add     a,b
a8f2 80        add     a,b
a8f3 80        add     a,b
a8f4 80        add     a,b
a8f5 80        add     a,b
a8f6 80        add     a,b
a8f7 80        add     a,b
a8f8 80        add     a,b
a8f9 80        add     a,b
a8fa 80        add     a,b
a8fb 80        add     a,b
a8fc 80        add     a,b
a8fd 80        add     a,b
a8fe 80        add     a,b
a8ff 80        add     a,b
a900 80        add     a,b
a901 80        add     a,b
a902 80        add     a,b
a903 80        add     a,b
a904 80        add     a,b
a905 80        add     a,b
a906 80        add     a,b
a907 80        add     a,b
a908 80        add     a,b
a909 80        add     a,b
a90a 80        add     a,b
a90b 80        add     a,b
a90c 80        add     a,b
a90d 80        add     a,b
a90e 80        add     a,b
a90f 80        add     a,b
a910 80        add     a,b
a911 80        add     a,b
a912 80        add     a,b
a913 80        add     a,b
a914 80        add     a,b
a915 80        add     a,b
a916 80        add     a,b
a917 80        add     a,b
a918 80        add     a,b
a919 80        add     a,b
a91a 80        add     a,b
a91b 80        add     a,b
a91c 80        add     a,b
a91d 80        add     a,b
a91e 80        add     a,b
a91f 80        add     a,b
a920 80        add     a,b
a921 80        add     a,b
